; ModuleID = 'lighting.cpp'
source_filename = "lighting.cpp"
target datalayout = "e-m:e-p270:32:32-p271:32:32-p272:64:64-i64:64-f80:128-n8:16:32:64-S128"
target triple = "x86_64-pc-linux-gnu"

%"struct.pov::Frame_Struct" = type { ptr, i32, i32, i32, ptr, ptr, double, double, double, [5 x float], [5 x float], [5 x float], ptr, ptr, ptr, ptr, ptr }
%"struct.pov::OPTIONS_STRUCT" = type { i32, i8, i8, i8, i32, i32, [4096 x i8], [4096 x i8], [4096 x i8], [4096 x i8], [4096 x i8], float, float, i32, i32, double, i8, double, i32, [25 x ptr], i32, i32, i32, double, double, i32, i32, double, double, i32, i8, i64, i32, i32, i32, %"struct.pov::FRAMESEQ", double, i64, double, double, double, double, double, i64, i32, i64, i32, i32, i32, i32, i32, i32, double, double, double, i32, i32, ptr, ptr, i32, i8, double, double, i32, i32, i8, i32, i32, [4096 x i8], [6 x %"struct.pov::shelldata"], [4096 x i8], [4096 x i8], i32, i32, i64, i32, i32, i32, %struct.POVMSData }
%"struct.pov::FRAMESEQ" = type { i32, double, i32, i32, double, i32, i32, double, i32, double, i32, double, i8, i8 }
%"struct.pov::shelldata" = type { i32, i32, [250 x i8] }
%struct.POVMSData = type { i32, i32, %union.anon }
%union.anon = type { ptr }
%"struct.pov::Method_Struct" = type { ptr, ptr, ptr, ptr, ptr, ptr, ptr, ptr, ptr, ptr, ptr }
%"struct.pov::photon_options_struct" = type { i32, double, double, double, i32, i32, double, double, double, i32, i32, ptr, i32, i32, %"struct.pov::photon_map_struct", i32, double, double, ptr, ptr, ptr, ptr, ptr, i32, i32, i32, i32, ptr, i8, %"struct.pov::photon_map_struct", double, i32, i32, i32, i32 }
%"struct.pov::photon_map_struct" = type { ptr, i32, i32, double, double, double, i32 }
%"struct.pov::ComTexData_Struct" = type { ptr, ptr, [100 x double], [100 x [3 x double]], [100 x [5 x float]], [100 x float] }
%"struct.pov::istk_entry" = type { double, [3 x double], [3 x double], [3 x double], [2 x double], ptr, i32, i32, double, double, double, double, double, double, double, double, double, ptr, ptr }
%"struct.pov::Light_Tested_Struct" = type { i32, [5 x float] }
%"struct.pov::Object_Struct" = type { ptr, i32, ptr, ptr, ptr, ptr, ptr, ptr, ptr, %"struct.pov::Bounding_Box_Struct", ptr, ptr, float, i32 }
%"struct.pov::Bounding_Box_Struct" = type { [3 x float], [3 x float] }
%"struct.pov::Ray_Struct" = type { [3 x double], [3 x double], i32, i32, [100 x ptr] }
%"struct.pov::Mesh_Triangle_Struct" = type { i8, i64, i64, i64, i64, i64, i64, i64, i64, i64, i64, i64, i64, i64, float, [3 x float] }
%"struct.pov::Mesh_Struct" = type { ptr, i32, ptr, ptr, ptr, ptr, ptr, ptr, ptr, %"struct.pov::Bounding_Box_Struct", ptr, ptr, float, i32, ptr, i64, ptr, i16 }
%"struct.pov::Texture_Struct" = type { i16, i16, i16, i32, float, float, float, ptr, ptr, ptr, %union.anon.0, ptr, ptr, ptr, ptr, ptr, i32 }
%union.anon.0 = type { %struct.anon.3 }
%struct.anon.3 = type { [3 x double], [3 x double], double, double, i16, ptr, i32, [3 x double] }
%"struct.pov::Blend_Map_Struct" = type { i32, i16, i8, i8, ptr }
%"struct.pov::Blend_Map_Entry" = type { float, i8, %union.anon.7 }
%union.anon.7 = type { [2 x double], [8 x i8] }
%"struct.pov::Interior_Struct" = type { i32, i32, i32, float, float, float, float, float, float, [5 x float], ptr }
%"struct.pov::Tnormal_Struct" = type { i16, i16, i16, i32, float, float, float, ptr, ptr, ptr, %union.anon.8, float, float }
%union.anon.8 = type { %struct.anon.12 }
%struct.anon.12 = type { [3 x double], [3 x double], double, double, i16, ptr, i32, [3 x double] }
%"struct.pov::Light_Source_Struct" = type { ptr, i32, ptr, ptr, ptr, ptr, ptr, ptr, ptr, %"struct.pov::Bounding_Box_Struct", ptr, ptr, float, i32, ptr, [5 x float], [3 x double], [3 x double], [3 x double], [3 x double], [3 x double], double, double, double, double, double, ptr, i8, i8, i8, i8, i8, i8, i8, i8, i32, i32, i32, i32, i32, ptr, ptr, ptr, ptr, [6 x ptr] }
%"struct.pov::istack_struct" = type { ptr, ptr, i32, i32 }
%"struct.pov::Finish_Struct" = type { float, float, float, float, float, float, float, float, float, float, float, float, float, float, float, float, [3 x float], [3 x float], [3 x float], float, i32, float, i32 }
%"struct.pov::Turb_Struct" = type { i16, ptr, ptr, [3 x double], i32, float, float }
%"struct.pov::photon_struct" = type { [3 x float], [4 x i8], i8, i8, i8 }

@_ZN3pov21warpNormalTextureListE = dso_local local_unnamed_addr global ptr null, align 8
@_ZN3pov28warpNormalTextureListMaxSizeE = dso_local local_unnamed_addr global i32 0, align 4
@_ZN3pov7GFilColE = dso_local local_unnamed_addr global [5 x float] zeroinitializer, align 16
@_ZN3pov10Light_ListE = dso_local local_unnamed_addr global ptr null, align 8
@_ZN3pov12Texture_ListE = dso_local local_unnamed_addr global ptr null, align 8
@_ZN3pov11Weight_ListE = dso_local local_unnamed_addr global ptr null, align 8
@_ZN3pov30Number_Of_Textures_And_WeightsE = dso_local local_unnamed_addr global i32 0, align 4
@_ZN3pov22photonsAlreadyGatheredE = dso_local local_unnamed_addr global i32 0, align 4
@_ZN3pov11previousRadE = dso_local local_unnamed_addr global double 0.000000e+00, align 8
@_ZN3pov19MediaMallocPoolSizeE = dso_local local_unnamed_addr global i64 0, align 8
@_ZN3pov17MaxLightPoolDepthE = dso_local local_unnamed_addr global i64 0, align 8
@_ZN3pov17LightingPoolIndexE = dso_local local_unnamed_addr global i64 -1, align 8
@_ZN3pov14WeightListPoolE = dso_local local_unnamed_addr global ptr null, align 8
@_ZN3pov15TextureListPoolE = dso_local local_unnamed_addr global ptr null, align 8
@_ZN3pov13LightListPoolE = dso_local local_unnamed_addr global ptr null, align 8
@_ZN3pov20ShadowMediaListIndexE = dso_local local_unnamed_addr global i64 -1, align 8
@_ZN3pov19ShadowMediaListPoolE = dso_local local_unnamed_addr global ptr null, align 8
@_ZN3pov23ShadowMediaListPoolSizeE = dso_local local_unnamed_addr global ptr null, align 8
@_ZN3pov22LightingMediaListIndexE = dso_local local_unnamed_addr global i64 -1, align 8
@_ZN3pov21LightingMediaListPoolE = dso_local local_unnamed_addr global ptr null, align 8
@_ZN3pov25LightingMediaListPoolSizeE = dso_local local_unnamed_addr global ptr null, align 8
@_ZN3pov22ComputeTextureUsedPoolE = dso_local local_unnamed_addr global ptr null, align 8
@_ZN3pov22ComputeTextureFreePoolE = dso_local local_unnamed_addr global ptr null, align 8
@_ZN3pov22ComputeTexturePoolSizeE = dso_local local_unnamed_addr global i32 0, align 4
@_ZN3pov18warpNormalTexturesE = dso_local local_unnamed_addr global i32 0, align 4
@_ZN3pov9disp_elemE = dso_local local_unnamed_addr global i32 0, align 4
@_ZN3pov11disp_nelemsE = dso_local local_unnamed_addr global i32 0, align 4
@_ZN3pov19TotalMallocPoolSizeE = dso_local local_unnamed_addr global i64 0, align 8
@_ZN3pov17MaxMediaPoolDepthE = dso_local local_unnamed_addr global i64 0, align 8
@_ZN3pov14MediaPoolIndexE = dso_local local_unnamed_addr global i64 -1, align 8
@_ZN3pov18MediaLightListPoolE = dso_local local_unnamed_addr global ptr null, align 8
@_ZN3pov20MediaLitIntervalPoolE = dso_local local_unnamed_addr global ptr null, align 8
@_ZN3pov17MediaIntervalPoolE = dso_local local_unnamed_addr global ptr null, align 8
@_ZN3pov21MediaIntervalPoolSizeE = dso_local local_unnamed_addr global ptr null, align 8
@_ZN3pov2s0E = dso_local local_unnamed_addr global ptr null, align 8
@_ZN3pov2s1E = dso_local local_unnamed_addr global ptr null, align 8
@.str = private unnamed_addr constant [13 x i8] c"lighting.cpp\00", align 1
@.str.1 = private unnamed_addr constant [25 x i8] c"Warp normal texture list\00", align 1
@.str.2 = private unnamed_addr constant [46 x i8] c"Too many entries in texture and weight lists.\00", align 1
@_ZN3pov11Total_DepthE = external local_unnamed_addr global double, align 8
@_ZN3pov5FrameE = external local_unnamed_addr global %"struct.pov::Frame_Struct", align 8
@_ZN3pov11ADC_BailoutE = external local_unnamed_addr global double, align 8
@_ZN3pov13backtraceFlagE = external local_unnamed_addr global i32, align 4
@_ZN3pov4optsE = external local_unnamed_addr global %"struct.pov::OPTIONS_STRUCT", align 8
@.str.3 = private unnamed_addr constant [16 x i8] c"temp media list\00", align 1
@.str.4 = private unnamed_addr constant [11 x i8] c"light list\00", align 1
@.str.5 = private unnamed_addr constant [13 x i8] c"lit interval\00", align 1
@.str.6 = private unnamed_addr constant [16 x i8] c"media intervals\00", align 1
@.str.7 = private unnamed_addr constant [18 x i8] c"Weight list stack\00", align 1
@.str.8 = private unnamed_addr constant [21 x i8] c"compute texture data\00", align 1
@_ZN3pov24CSG_Intersection_MethodsE = external global %"struct.pov::Method_Struct", align 8
@_ZN3pov17CSG_Merge_MethodsE = external global %"struct.pov::Method_Struct", align 8
@_ZN3pov17CSG_Union_MethodsE = external global %"struct.pov::Method_Struct", align 8
@_ZN3pov12Blob_MethodsE = external global %"struct.pov::Method_Struct", align 8
@_ZN3pov12Mesh_MethodsE = external global %"struct.pov::Method_Struct", align 8
@.str.9 = private unnamed_addr constant [37 x i8] c"Bad texture type in do_texture_map()\00", align 1
@_ZN3pov11Trace_LevelE = external local_unnamed_addr global i32, align 4
@_ZN3pov13photonOptionsE = external global %"struct.pov::photon_options_struct", align 8
@.str.10 = private unnamed_addr constant [25 x i8] c"Too many texture layers.\00", align 1
@.str.11 = private unnamed_addr constant [41 x i8] c"Reflection_Type 1 used with no interior.\00", align 1
@.str.12 = private unnamed_addr constant [25 x i8] c"Illegal reflection_type.\00", align 1
@_ZN3pov5statsE = external local_unnamed_addr global [123 x i64], align 16
@_ZN3pov18firstRadiosityPassE = external local_unnamed_addr global i32, align 4
@_ZN3pov17In_Reflection_RayE = external local_unnamed_addr global i8, align 1
@_ZN3pov21Radiosity_Trace_LevelE = external local_unnamed_addr global i32, align 4
@.str.13 = private unnamed_addr constant [35 x i8] c"ERROR - Containing Index too high.\00", align 1
@_ZN3pov13In_Shadow_RayE = external local_unnamed_addr global i8, align 1
@_ZN3pov11Root_ObjectE = external local_unnamed_addr global ptr, align 8
@.str.14 = private unnamed_addr constant [10 x i8] c"temp data\00", align 1

; Function Attrs: sspstrong uwtable
define dso_local void @_ZN3pov24Initialize_Lighting_CodeEv() local_unnamed_addr #0 {
  store ptr null, ptr @_ZN3pov10Light_ListE, align 8, !tbaa !5
  store ptr null, ptr @_ZN3pov12Texture_ListE, align 8, !tbaa !5
  store ptr null, ptr @_ZN3pov11Weight_ListE, align 8, !tbaa !5
  store i32 16, ptr @_ZN3pov30Number_Of_Textures_And_WeightsE, align 4, !tbaa !9
  %1 = load i32, ptr getelementptr inbounds (%"struct.pov::Frame_Struct", ptr @_ZN3pov5FrameE, i64 0, i32 3), align 8, !tbaa !11
  store i64 5, ptr @_ZN3pov17MaxMediaPoolDepthE, align 8, !tbaa !14
  store i64 20, ptr @_ZN3pov17MaxLightPoolDepthE, align 8, !tbaa !14
  store i64 0, ptr @_ZN3pov19MediaMallocPoolSizeE, align 8, !tbaa !14
  store i64 0, ptr @_ZN3pov19TotalMallocPoolSizeE, align 8, !tbaa !14
  store i64 -1, ptr @_ZN3pov20ShadowMediaListIndexE, align 8, !tbaa !14
  store i64 -1, ptr @_ZN3pov22LightingMediaListIndexE, align 8, !tbaa !14
  store i64 -1, ptr @_ZN3pov14MediaPoolIndexE, align 8, !tbaa !14
  store i64 -1, ptr @_ZN3pov17LightingPoolIndexE, align 8, !tbaa !14
  %2 = icmp eq i32 %1, 0
  %3 = select i1 %2, i32 2, i32 %1
  %4 = sext i32 %3 to i64
  %5 = shl nsw i64 %4, 3
  %6 = tail call noundef ptr @_ZN3pov10pov_mallocEmPKciS1_(i64 noundef %5, ptr noundef nonnull @.str, i32 noundef 5998, ptr noundef nonnull @.str.14)
  store ptr %6, ptr @_ZN3pov2s0E, align 8, !tbaa !5
  %7 = tail call noundef ptr @_ZN3pov10pov_mallocEmPKciS1_(i64 noundef %5, ptr noundef nonnull @.str, i32 noundef 5999, ptr noundef nonnull @.str.14)
  store ptr %7, ptr @_ZN3pov2s1E, align 8, !tbaa !5
  %8 = load i64, ptr @_ZN3pov17MaxMediaPoolDepthE, align 8, !tbaa !14
  %9 = shl i64 %8, 3
  %10 = tail call noundef ptr @_ZN3pov10pov_mallocEmPKciS1_(i64 noundef %9, ptr noundef nonnull @.str, i32 noundef 6004, ptr noundef nonnull @.str.3)
  store ptr %10, ptr @_ZN3pov23ShadowMediaListPoolSizeE, align 8, !tbaa !5
  %11 = load i64, ptr @_ZN3pov17MaxMediaPoolDepthE, align 8, !tbaa !14
  %12 = shl i64 %11, 3
  %13 = tail call noundef ptr @_ZN3pov10pov_mallocEmPKciS1_(i64 noundef %12, ptr noundef nonnull @.str, i32 noundef 6005, ptr noundef nonnull @.str.3)
  store ptr %13, ptr @_ZN3pov25LightingMediaListPoolSizeE, align 8, !tbaa !5
  %14 = load i64, ptr @_ZN3pov17MaxMediaPoolDepthE, align 8, !tbaa !14
  %15 = shl i64 %14, 3
  %16 = tail call noundef ptr @_ZN3pov10pov_mallocEmPKciS1_(i64 noundef %15, ptr noundef nonnull @.str, i32 noundef 6006, ptr noundef nonnull @.str.3)
  store ptr %16, ptr @_ZN3pov21MediaIntervalPoolSizeE, align 8, !tbaa !5
  %17 = load i64, ptr @_ZN3pov17MaxMediaPoolDepthE, align 8, !tbaa !14
  %18 = shl i64 %17, 3
  %19 = tail call noundef ptr @_ZN3pov10pov_mallocEmPKciS1_(i64 noundef %18, ptr noundef nonnull @.str, i32 noundef 6008, ptr noundef nonnull @.str.3)
  store ptr %19, ptr @_ZN3pov19ShadowMediaListPoolE, align 8, !tbaa !5
  %20 = load i64, ptr @_ZN3pov17MaxMediaPoolDepthE, align 8, !tbaa !14
  %21 = shl i64 %20, 3
  %22 = tail call noundef ptr @_ZN3pov10pov_mallocEmPKciS1_(i64 noundef %21, ptr noundef nonnull @.str, i32 noundef 6009, ptr noundef nonnull @.str.3)
  store ptr %22, ptr @_ZN3pov21LightingMediaListPoolE, align 8, !tbaa !5
  %23 = load i64, ptr @_ZN3pov17MaxMediaPoolDepthE, align 8, !tbaa !14
  %24 = shl i64 %23, 3
  %25 = tail call noundef ptr @_ZN3pov10pov_mallocEmPKciS1_(i64 noundef %24, ptr noundef nonnull @.str, i32 noundef 6010, ptr noundef nonnull @.str.4)
  store ptr %25, ptr @_ZN3pov18MediaLightListPoolE, align 8, !tbaa !5
  %26 = load i64, ptr @_ZN3pov17MaxMediaPoolDepthE, align 8, !tbaa !14
  %27 = shl i64 %26, 3
  %28 = tail call noundef ptr @_ZN3pov10pov_mallocEmPKciS1_(i64 noundef %27, ptr noundef nonnull @.str, i32 noundef 6011, ptr noundef nonnull @.str.5)
  store ptr %28, ptr @_ZN3pov20MediaLitIntervalPoolE, align 8, !tbaa !5
  %29 = load i64, ptr @_ZN3pov17MaxMediaPoolDepthE, align 8, !tbaa !14
  %30 = shl i64 %29, 3
  %31 = tail call noundef ptr @_ZN3pov10pov_mallocEmPKciS1_(i64 noundef %30, ptr noundef nonnull @.str, i32 noundef 6012, ptr noundef nonnull @.str.6)
  store ptr %31, ptr @_ZN3pov17MediaIntervalPoolE, align 8, !tbaa !5
  %32 = load i64, ptr @_ZN3pov17MaxMediaPoolDepthE, align 8, !tbaa !14
  %33 = icmp sgt i64 %32, 0
  br i1 %33, label %36, label %34

34:                                               ; preds = %0
  %35 = load i64, ptr @_ZN3pov19MediaMallocPoolSizeE, align 8, !tbaa !14
  br label %72

36:                                               ; preds = %0
  %37 = shl nsw i64 %4, 5
  %38 = shl nsw i32 %3, 1
  %39 = or i32 %38, 1
  %40 = sext i32 %39 to i64
  %41 = shl nsw i64 %40, 5
  %42 = add nsw i64 %37, 1120
  %43 = add nsw i64 %42, %41
  br label %44

44:                                               ; preds = %44, %36
  %45 = phi i64 [ 0, %36 ], [ %69, %44 ]
  %46 = tail call noundef ptr @_ZN3pov10pov_mallocEmPKciS1_(i64 noundef 80, ptr noundef nonnull @.str, i32 noundef 6016, ptr noundef nonnull @.str.3)
  %47 = load ptr, ptr @_ZN3pov19ShadowMediaListPoolE, align 8, !tbaa !5
  %48 = getelementptr inbounds ptr, ptr %47, i64 %45
  store ptr %46, ptr %48, align 8, !tbaa !5
  %49 = load ptr, ptr @_ZN3pov23ShadowMediaListPoolSizeE, align 8, !tbaa !5
  %50 = getelementptr inbounds i64, ptr %49, i64 %45
  store i64 10, ptr %50, align 8, !tbaa !14
  %51 = tail call noundef ptr @_ZN3pov10pov_mallocEmPKciS1_(i64 noundef 80, ptr noundef nonnull @.str, i32 noundef 6018, ptr noundef nonnull @.str.3)
  %52 = load ptr, ptr @_ZN3pov21LightingMediaListPoolE, align 8, !tbaa !5
  %53 = getelementptr inbounds ptr, ptr %52, i64 %45
  store ptr %51, ptr %53, align 8, !tbaa !5
  %54 = load ptr, ptr @_ZN3pov25LightingMediaListPoolSizeE, align 8, !tbaa !5
  %55 = getelementptr inbounds i64, ptr %54, i64 %45
  store i64 10, ptr %55, align 8, !tbaa !14
  %56 = tail call noundef ptr @_ZN3pov10pov_mallocEmPKciS1_(i64 noundef %37, ptr noundef nonnull @.str, i32 noundef 6020, ptr noundef nonnull @.str.4)
  %57 = load ptr, ptr @_ZN3pov18MediaLightListPoolE, align 8, !tbaa !5
  %58 = getelementptr inbounds ptr, ptr %57, i64 %45
  store ptr %56, ptr %58, align 8, !tbaa !5
  %59 = tail call noundef ptr @_ZN3pov10pov_mallocEmPKciS1_(i64 noundef %41, ptr noundef nonnull @.str, i32 noundef 6021, ptr noundef nonnull @.str.5)
  %60 = load ptr, ptr @_ZN3pov20MediaLitIntervalPoolE, align 8, !tbaa !5
  %61 = getelementptr inbounds ptr, ptr %60, i64 %45
  store ptr %59, ptr %61, align 8, !tbaa !5
  %62 = tail call noundef ptr @_ZN3pov10pov_mallocEmPKciS1_(i64 noundef 960, ptr noundef nonnull @.str, i32 noundef 6022, ptr noundef nonnull @.str.6)
  %63 = load ptr, ptr @_ZN3pov17MediaIntervalPoolE, align 8, !tbaa !5
  %64 = getelementptr inbounds ptr, ptr %63, i64 %45
  store ptr %62, ptr %64, align 8, !tbaa !5
  %65 = load ptr, ptr @_ZN3pov21MediaIntervalPoolSizeE, align 8, !tbaa !5
  %66 = getelementptr inbounds i64, ptr %65, i64 %45
  store i64 10, ptr %66, align 8, !tbaa !14
  %67 = load i64, ptr @_ZN3pov19MediaMallocPoolSizeE, align 8, !tbaa !14
  %68 = add i64 %43, %67
  store i64 %68, ptr @_ZN3pov19MediaMallocPoolSizeE, align 8, !tbaa !14
  %69 = add nuw nsw i64 %45, 1
  %70 = load i64, ptr @_ZN3pov17MaxMediaPoolDepthE, align 8, !tbaa !14
  %71 = icmp sgt i64 %70, %69
  br i1 %71, label %44, label %72

72:                                               ; preds = %44, %34
  %73 = phi i64 [ %35, %34 ], [ %68, %44 ]
  %74 = load i64, ptr @_ZN3pov19TotalMallocPoolSizeE, align 8, !tbaa !14
  %75 = add nsw i64 %74, %73
  store i64 %75, ptr @_ZN3pov19TotalMallocPoolSizeE, align 8, !tbaa !14
  %76 = load i64, ptr @_ZN3pov17MaxLightPoolDepthE, align 8, !tbaa !14
  %77 = shl i64 %76, 3
  %78 = tail call noundef ptr @_ZN3pov10pov_mallocEmPKciS1_(i64 noundef %77, ptr noundef nonnull @.str, i32 noundef 6031, ptr noundef nonnull @.str.7)
  store ptr %78, ptr @_ZN3pov14WeightListPoolE, align 8, !tbaa !5
  %79 = load i64, ptr @_ZN3pov17MaxLightPoolDepthE, align 8, !tbaa !14
  %80 = shl i64 %79, 3
  %81 = tail call noundef ptr @_ZN3pov10pov_mallocEmPKciS1_(i64 noundef %80, ptr noundef nonnull @.str, i32 noundef 6032, ptr noundef nonnull @.str.7)
  store ptr %81, ptr @_ZN3pov15TextureListPoolE, align 8, !tbaa !5
  %82 = load i64, ptr @_ZN3pov17MaxLightPoolDepthE, align 8, !tbaa !14
  %83 = shl i64 %82, 3
  %84 = tail call noundef ptr @_ZN3pov10pov_mallocEmPKciS1_(i64 noundef %83, ptr noundef nonnull @.str, i32 noundef 6033, ptr noundef nonnull @.str.7)
  store ptr %84, ptr @_ZN3pov13LightListPoolE, align 8, !tbaa !5
  %85 = load i64, ptr @_ZN3pov17MaxLightPoolDepthE, align 8, !tbaa !14
  %86 = icmp sgt i64 %85, 0
  br i1 %86, label %87, label %114

87:                                               ; preds = %72, %87
  %88 = phi i64 [ %109, %87 ], [ 0, %72 ]
  %89 = tail call noundef ptr @_ZN3pov10pov_mallocEmPKciS1_(i64 noundef 128, ptr noundef nonnull @.str, i32 noundef 6037, ptr noundef nonnull @.str.7)
  %90 = load ptr, ptr @_ZN3pov14WeightListPoolE, align 8, !tbaa !5
  %91 = getelementptr inbounds ptr, ptr %90, i64 %88
  store ptr %89, ptr %91, align 8, !tbaa !5
  %92 = tail call noundef ptr @_ZN3pov10pov_mallocEmPKciS1_(i64 noundef 128, ptr noundef nonnull @.str, i32 noundef 6038, ptr noundef nonnull @.str.7)
  %93 = load ptr, ptr @_ZN3pov15TextureListPoolE, align 8, !tbaa !5
  %94 = getelementptr inbounds ptr, ptr %93, i64 %88
  store ptr %92, ptr %94, align 8, !tbaa !5
  %95 = load i32, ptr getelementptr inbounds (%"struct.pov::Frame_Struct", ptr @_ZN3pov5FrameE, i64 0, i32 3), align 8, !tbaa !9
  %96 = tail call i32 @llvm.smax.i32(i32 %95, i32 1)
  %97 = zext i32 %96 to i64
  %98 = mul nuw nsw i64 %97, 24
  %99 = tail call noundef ptr @_ZN3pov10pov_mallocEmPKciS1_(i64 noundef %98, ptr noundef nonnull @.str, i32 noundef 6039, ptr noundef nonnull @.str.7)
  %100 = load ptr, ptr @_ZN3pov13LightListPoolE, align 8, !tbaa !5
  %101 = getelementptr inbounds ptr, ptr %100, i64 %88
  store ptr %99, ptr %101, align 8, !tbaa !5
  %102 = load i32, ptr getelementptr inbounds (%"struct.pov::Frame_Struct", ptr @_ZN3pov5FrameE, i64 0, i32 3), align 8, !tbaa !9
  %103 = tail call i32 @llvm.smax.i32(i32 %102, i32 1)
  %104 = zext i32 %103 to i64
  %105 = mul nuw nsw i64 %104, 24
  %106 = load i64, ptr @_ZN3pov19TotalMallocPoolSizeE, align 8, !tbaa !14
  %107 = add i64 %106, 512
  %108 = add i64 %107, %105
  store i64 %108, ptr @_ZN3pov19TotalMallocPoolSizeE, align 8, !tbaa !14
  %109 = add nuw nsw i64 %88, 1
  %110 = load i64, ptr @_ZN3pov17MaxLightPoolDepthE, align 8, !tbaa !14
  %111 = icmp sgt i64 %110, %109
  br i1 %111, label %87, label %112

112:                                              ; preds = %87
  %113 = load ptr, ptr @_ZN3pov13LightListPoolE, align 8, !tbaa !5
  br label %114

114:                                              ; preds = %112, %72
  %115 = phi ptr [ %113, %112 ], [ %84, %72 ]
  store ptr null, ptr @_ZN3pov22ComputeTextureUsedPoolE, align 8, !tbaa !5
  store ptr null, ptr @_ZN3pov22ComputeTextureFreePoolE, align 8, !tbaa !5
  store i32 0, ptr @_ZN3pov22ComputeTexturePoolSizeE, align 4, !tbaa !9
  %116 = load i64, ptr @_ZN3pov17LightingPoolIndexE, align 8, !tbaa !14
  %117 = add nsw i64 %116, 1
  store i64 %117, ptr @_ZN3pov17LightingPoolIndexE, align 8, !tbaa !14
  %118 = getelementptr inbounds ptr, ptr %115, i64 %117
  %119 = load ptr, ptr %118, align 8, !tbaa !5
  store ptr %119, ptr @_ZN3pov10Light_ListE, align 8, !tbaa !5
  %120 = load ptr, ptr @_ZN3pov15TextureListPoolE, align 8, !tbaa !5
  %121 = getelementptr inbounds ptr, ptr %120, i64 %117
  %122 = load ptr, ptr %121, align 8, !tbaa !5
  store ptr %122, ptr @_ZN3pov12Texture_ListE, align 8, !tbaa !5
  %123 = load ptr, ptr @_ZN3pov14WeightListPoolE, align 8, !tbaa !5
  %124 = getelementptr inbounds ptr, ptr %123, i64 %117
  %125 = load ptr, ptr %124, align 8, !tbaa !5
  store ptr %125, ptr @_ZN3pov11Weight_ListE, align 8, !tbaa !5
  store i32 100, ptr @_ZN3pov28warpNormalTextureListMaxSizeE, align 4, !tbaa !9
  %126 = tail call noundef ptr @_ZN3pov10pov_mallocEmPKciS1_(i64 noundef 800, ptr noundef nonnull @.str, i32 noundef 327, ptr noundef nonnull @.str.1)
  store ptr %126, ptr @_ZN3pov21warpNormalTextureListE, align 8, !tbaa !5
  store i32 0, ptr @_ZN3pov9disp_elemE, align 4, !tbaa !9
  ret void
}

; Function Attrs: mustprogress nofree norecurse nosync nounwind sspstrong willreturn memory(write, argmem: none, inaccessiblemem: none) uwtable
define dso_local void @_ZN3pov18InitComTexDataPoolEv() local_unnamed_addr #1 {
  store ptr null, ptr @_ZN3pov22ComputeTextureUsedPoolE, align 8, !tbaa !5
  store ptr null, ptr @_ZN3pov22ComputeTextureFreePoolE, align 8, !tbaa !5
  store i32 0, ptr @_ZN3pov22ComputeTexturePoolSizeE, align 4, !tbaa !9
  ret void
}

declare noundef ptr @_ZN3pov10pov_mallocEmPKciS1_(i64 noundef, ptr noundef, i32 noundef, ptr noundef) local_unnamed_addr #2

; Function Attrs: sspstrong uwtable
define dso_local void @_ZN3pov26Reinitialize_Lighting_CodeEiPPPNS_14Texture_StructEPPd(i32 noundef %0, ptr nocapture noundef writeonly %1, ptr nocapture noundef writeonly %2) local_unnamed_addr #0 {
  %4 = load i32, ptr @_ZN3pov30Number_Of_Textures_And_WeightsE, align 4, !tbaa !9
  %5 = icmp slt i32 %4, %0
  br i1 %5, label %6, label %60

6:                                                ; preds = %3
  %7 = icmp sgt i32 %0, 1073741822
  br i1 %7, label %8, label %10

8:                                                ; preds = %6
  %9 = tail call noundef i32 (ptr, ...) @_ZN3pov5ErrorEPKcz(ptr noundef nonnull @.str.2)
  br label %10

10:                                               ; preds = %8, %6
  store i32 %0, ptr @_ZN3pov30Number_Of_Textures_And_WeightsE, align 4, !tbaa !9
  %11 = sext i32 %0 to i64
  %12 = shl nsw i64 %11, 3
  %13 = load i64, ptr @_ZN3pov19MediaMallocPoolSizeE, align 8, !tbaa !14
  store i64 %13, ptr @_ZN3pov19TotalMallocPoolSizeE, align 8, !tbaa !14
  %14 = load i64, ptr @_ZN3pov17MaxLightPoolDepthE, align 8, !tbaa !14
  %15 = icmp sgt i64 %14, 0
  br i1 %15, label %16, label %52

16:                                               ; preds = %10
  %17 = shl nsw i64 %11, 5
  br label %18

18:                                               ; preds = %18, %16
  %19 = phi i64 [ 0, %16 ], [ %49, %18 ]
  %20 = load ptr, ptr @_ZN3pov14WeightListPoolE, align 8, !tbaa !5
  %21 = getelementptr inbounds ptr, ptr %20, i64 %19
  %22 = load ptr, ptr %21, align 8, !tbaa !5
  %23 = tail call noundef ptr @_ZN3pov11pov_reallocEPvmPKciS2_(ptr noundef %22, i64 noundef %12, ptr noundef nonnull @.str, i32 noundef 6131, ptr noundef nonnull @.str.7)
  %24 = load ptr, ptr @_ZN3pov14WeightListPoolE, align 8, !tbaa !5
  %25 = getelementptr inbounds ptr, ptr %24, i64 %19
  store ptr %23, ptr %25, align 8, !tbaa !5
  %26 = load ptr, ptr @_ZN3pov15TextureListPoolE, align 8, !tbaa !5
  %27 = getelementptr inbounds ptr, ptr %26, i64 %19
  %28 = load ptr, ptr %27, align 8, !tbaa !5
  %29 = tail call noundef ptr @_ZN3pov11pov_reallocEPvmPKciS2_(ptr noundef %28, i64 noundef %12, ptr noundef nonnull @.str, i32 noundef 6132, ptr noundef nonnull @.str.7)
  %30 = load ptr, ptr @_ZN3pov15TextureListPoolE, align 8, !tbaa !5
  %31 = getelementptr inbounds ptr, ptr %30, i64 %19
  store ptr %29, ptr %31, align 8, !tbaa !5
  %32 = load ptr, ptr @_ZN3pov13LightListPoolE, align 8, !tbaa !5
  %33 = getelementptr inbounds ptr, ptr %32, i64 %19
  %34 = load ptr, ptr %33, align 8, !tbaa !5
  %35 = load i32, ptr getelementptr inbounds (%"struct.pov::Frame_Struct", ptr @_ZN3pov5FrameE, i64 0, i32 3), align 8, !tbaa !9
  %36 = tail call i32 @llvm.smax.i32(i32 %35, i32 1)
  %37 = zext i32 %36 to i64
  %38 = mul nuw nsw i64 %37, 24
  %39 = tail call noundef ptr @_ZN3pov11pov_reallocEPvmPKciS2_(ptr noundef %34, i64 noundef %38, ptr noundef nonnull @.str, i32 noundef 6133, ptr noundef nonnull @.str.7)
  %40 = load ptr, ptr @_ZN3pov13LightListPoolE, align 8, !tbaa !5
  %41 = getelementptr inbounds ptr, ptr %40, i64 %19
  store ptr %39, ptr %41, align 8, !tbaa !5
  %42 = load i32, ptr getelementptr inbounds (%"struct.pov::Frame_Struct", ptr @_ZN3pov5FrameE, i64 0, i32 3), align 8, !tbaa !9
  %43 = tail call i32 @llvm.smax.i32(i32 %42, i32 1)
  %44 = zext i32 %43 to i64
  %45 = mul nuw nsw i64 %44, 24
  %46 = load i64, ptr @_ZN3pov19TotalMallocPoolSizeE, align 8, !tbaa !14
  %47 = add i64 %46, %17
  %48 = add i64 %47, %45
  store i64 %48, ptr @_ZN3pov19TotalMallocPoolSizeE, align 8, !tbaa !14
  %49 = add nuw nsw i64 %19, 1
  %50 = load i64, ptr @_ZN3pov17MaxLightPoolDepthE, align 8, !tbaa !14
  %51 = icmp sgt i64 %50, %49
  br i1 %51, label %18, label %52

52:                                               ; preds = %18, %10
  %53 = load ptr, ptr @_ZN3pov15TextureListPoolE, align 8, !tbaa !5
  %54 = load i64, ptr @_ZN3pov17LightingPoolIndexE, align 8, !tbaa !14
  %55 = getelementptr inbounds ptr, ptr %53, i64 %54
  %56 = load ptr, ptr %55, align 8, !tbaa !5
  store ptr %56, ptr @_ZN3pov12Texture_ListE, align 8, !tbaa !5
  store ptr %56, ptr %1, align 8, !tbaa !5
  %57 = load ptr, ptr @_ZN3pov14WeightListPoolE, align 8, !tbaa !5
  %58 = getelementptr inbounds ptr, ptr %57, i64 %54
  %59 = load ptr, ptr %58, align 8, !tbaa !5
  store ptr %59, ptr @_ZN3pov11Weight_ListE, align 8, !tbaa !5
  store ptr %59, ptr %2, align 8, !tbaa !5
  br label %60

60:                                               ; preds = %52, %3
  ret void
}

declare noundef i32 @_ZN3pov5ErrorEPKcz(ptr noundef, ...) local_unnamed_addr #2

; Function Attrs: sspstrong uwtable
define dso_local void @_ZN3pov26Deinitialize_Lighting_CodeEv() local_unnamed_addr #0 {
  %1 = load ptr, ptr @_ZN3pov2s0E, align 8, !tbaa !5
  %2 = icmp eq ptr %1, null
  br i1 %2, label %4, label %3

3:                                                ; preds = %0
  tail call void @_ZN3pov8pov_freeEPvPKci(ptr noundef nonnull %1, ptr noundef nonnull @.str, i32 noundef 6050)
  br label %4

4:                                                ; preds = %3, %0
  store ptr null, ptr @_ZN3pov2s0E, align 8, !tbaa !5
  %5 = load ptr, ptr @_ZN3pov2s1E, align 8, !tbaa !5
  %6 = icmp eq ptr %5, null
  br i1 %6, label %8, label %7

7:                                                ; preds = %4
  tail call void @_ZN3pov8pov_freeEPvPKci(ptr noundef nonnull %5, ptr noundef nonnull @.str, i32 noundef 6051)
  br label %8

8:                                                ; preds = %7, %4
  store ptr null, ptr @_ZN3pov2s1E, align 8, !tbaa !5
  %9 = load ptr, ptr @_ZN3pov19ShadowMediaListPoolE, align 8, !tbaa !5
  %10 = icmp eq ptr %9, null
  br i1 %10, label %79, label %11

11:                                               ; preds = %8
  %12 = load i64, ptr @_ZN3pov17MaxMediaPoolDepthE, align 8, !tbaa !14
  %13 = icmp sgt i64 %12, 0
  br i1 %13, label %14, label %77

14:                                               ; preds = %11, %68
  %15 = phi i64 [ %71, %68 ], [ 0, %11 ]
  %16 = load ptr, ptr @_ZN3pov19ShadowMediaListPoolE, align 8, !tbaa !5
  %17 = getelementptr inbounds ptr, ptr %16, i64 %15
  %18 = load ptr, ptr %17, align 8, !tbaa !5
  %19 = icmp eq ptr %18, null
  br i1 %19, label %24, label %20

20:                                               ; preds = %14
  tail call void @_ZN3pov8pov_freeEPvPKci(ptr noundef nonnull %18, ptr noundef nonnull @.str, i32 noundef 6057)
  %21 = load ptr, ptr @_ZN3pov19ShadowMediaListPoolE, align 8, !tbaa !5
  %22 = getelementptr inbounds ptr, ptr %21, i64 %15
  store ptr null, ptr %22, align 8, !tbaa !5
  %23 = load ptr, ptr @_ZN3pov19ShadowMediaListPoolE, align 8, !tbaa !5
  br label %24

24:                                               ; preds = %20, %14
  %25 = phi ptr [ %23, %20 ], [ %16, %14 ]
  %26 = getelementptr inbounds ptr, ptr %25, i64 %15
  store ptr null, ptr %26, align 8, !tbaa !5
  %27 = load ptr, ptr @_ZN3pov21LightingMediaListPoolE, align 8, !tbaa !5
  %28 = getelementptr inbounds ptr, ptr %27, i64 %15
  %29 = load ptr, ptr %28, align 8, !tbaa !5
  %30 = icmp eq ptr %29, null
  br i1 %30, label %35, label %31

31:                                               ; preds = %24
  tail call void @_ZN3pov8pov_freeEPvPKci(ptr noundef nonnull %29, ptr noundef nonnull @.str, i32 noundef 6060)
  %32 = load ptr, ptr @_ZN3pov21LightingMediaListPoolE, align 8, !tbaa !5
  %33 = getelementptr inbounds ptr, ptr %32, i64 %15
  store ptr null, ptr %33, align 8, !tbaa !5
  %34 = load ptr, ptr @_ZN3pov21LightingMediaListPoolE, align 8, !tbaa !5
  br label %35

35:                                               ; preds = %31, %24
  %36 = phi ptr [ %34, %31 ], [ %27, %24 ]
  %37 = getelementptr inbounds ptr, ptr %36, i64 %15
  store ptr null, ptr %37, align 8, !tbaa !5
  %38 = load ptr, ptr @_ZN3pov18MediaLightListPoolE, align 8, !tbaa !5
  %39 = getelementptr inbounds ptr, ptr %38, i64 %15
  %40 = load ptr, ptr %39, align 8, !tbaa !5
  %41 = icmp eq ptr %40, null
  br i1 %41, label %46, label %42

42:                                               ; preds = %35
  tail call void @_ZN3pov8pov_freeEPvPKci(ptr noundef nonnull %40, ptr noundef nonnull @.str, i32 noundef 6063)
  %43 = load ptr, ptr @_ZN3pov18MediaLightListPoolE, align 8, !tbaa !5
  %44 = getelementptr inbounds ptr, ptr %43, i64 %15
  store ptr null, ptr %44, align 8, !tbaa !5
  %45 = load ptr, ptr @_ZN3pov18MediaLightListPoolE, align 8, !tbaa !5
  br label %46

46:                                               ; preds = %42, %35
  %47 = phi ptr [ %45, %42 ], [ %38, %35 ]
  %48 = getelementptr inbounds ptr, ptr %47, i64 %15
  store ptr null, ptr %48, align 8, !tbaa !5
  %49 = load ptr, ptr @_ZN3pov20MediaLitIntervalPoolE, align 8, !tbaa !5
  %50 = getelementptr inbounds ptr, ptr %49, i64 %15
  %51 = load ptr, ptr %50, align 8, !tbaa !5
  %52 = icmp eq ptr %51, null
  br i1 %52, label %57, label %53

53:                                               ; preds = %46
  tail call void @_ZN3pov8pov_freeEPvPKci(ptr noundef nonnull %51, ptr noundef nonnull @.str, i32 noundef 6066)
  %54 = load ptr, ptr @_ZN3pov20MediaLitIntervalPoolE, align 8, !tbaa !5
  %55 = getelementptr inbounds ptr, ptr %54, i64 %15
  store ptr null, ptr %55, align 8, !tbaa !5
  %56 = load ptr, ptr @_ZN3pov20MediaLitIntervalPoolE, align 8, !tbaa !5
  br label %57

57:                                               ; preds = %53, %46
  %58 = phi ptr [ %56, %53 ], [ %49, %46 ]
  %59 = getelementptr inbounds ptr, ptr %58, i64 %15
  store ptr null, ptr %59, align 8, !tbaa !5
  %60 = load ptr, ptr @_ZN3pov17MediaIntervalPoolE, align 8, !tbaa !5
  %61 = getelementptr inbounds ptr, ptr %60, i64 %15
  %62 = load ptr, ptr %61, align 8, !tbaa !5
  %63 = icmp eq ptr %62, null
  br i1 %63, label %68, label %64

64:                                               ; preds = %57
  tail call void @_ZN3pov8pov_freeEPvPKci(ptr noundef nonnull %62, ptr noundef nonnull @.str, i32 noundef 6069)
  %65 = load ptr, ptr @_ZN3pov17MediaIntervalPoolE, align 8, !tbaa !5
  %66 = getelementptr inbounds ptr, ptr %65, i64 %15
  store ptr null, ptr %66, align 8, !tbaa !5
  %67 = load ptr, ptr @_ZN3pov17MediaIntervalPoolE, align 8, !tbaa !5
  br label %68

68:                                               ; preds = %64, %57
  %69 = phi ptr [ %67, %64 ], [ %60, %57 ]
  %70 = getelementptr inbounds ptr, ptr %69, i64 %15
  store ptr null, ptr %70, align 8, !tbaa !5
  %71 = add nuw nsw i64 %15, 1
  %72 = load i64, ptr @_ZN3pov17MaxMediaPoolDepthE, align 8, !tbaa !14
  %73 = icmp sgt i64 %72, %71
  br i1 %73, label %14, label %74

74:                                               ; preds = %68
  %75 = load ptr, ptr @_ZN3pov19ShadowMediaListPoolE, align 8, !tbaa !5
  %76 = icmp eq ptr %75, null
  br i1 %76, label %79, label %77

77:                                               ; preds = %74, %11
  %78 = phi ptr [ %75, %74 ], [ %9, %11 ]
  tail call void @_ZN3pov8pov_freeEPvPKci(ptr noundef nonnull %78, ptr noundef nonnull @.str, i32 noundef 6074)
  br label %79

79:                                               ; preds = %77, %74, %8
  store ptr null, ptr @_ZN3pov19ShadowMediaListPoolE, align 8, !tbaa !5
  %80 = load ptr, ptr @_ZN3pov23ShadowMediaListPoolSizeE, align 8, !tbaa !5
  %81 = icmp eq ptr %80, null
  br i1 %81, label %83, label %82

82:                                               ; preds = %79
  tail call void @_ZN3pov8pov_freeEPvPKci(ptr noundef nonnull %80, ptr noundef nonnull @.str, i32 noundef 6076)
  br label %83

83:                                               ; preds = %82, %79
  store ptr null, ptr @_ZN3pov23ShadowMediaListPoolSizeE, align 8, !tbaa !5
  %84 = load ptr, ptr @_ZN3pov21LightingMediaListPoolE, align 8, !tbaa !5
  %85 = icmp eq ptr %84, null
  br i1 %85, label %87, label %86

86:                                               ; preds = %83
  tail call void @_ZN3pov8pov_freeEPvPKci(ptr noundef nonnull %84, ptr noundef nonnull @.str, i32 noundef 6079)
  br label %87

87:                                               ; preds = %86, %83
  store ptr null, ptr @_ZN3pov21LightingMediaListPoolE, align 8, !tbaa !5
  %88 = load ptr, ptr @_ZN3pov25LightingMediaListPoolSizeE, align 8, !tbaa !5
  %89 = icmp eq ptr %88, null
  br i1 %89, label %91, label %90

90:                                               ; preds = %87
  tail call void @_ZN3pov8pov_freeEPvPKci(ptr noundef nonnull %88, ptr noundef nonnull @.str, i32 noundef 6081)
  br label %91

91:                                               ; preds = %90, %87
  store ptr null, ptr @_ZN3pov25LightingMediaListPoolSizeE, align 8, !tbaa !5
  %92 = load ptr, ptr @_ZN3pov18MediaLightListPoolE, align 8, !tbaa !5
  %93 = icmp eq ptr %92, null
  br i1 %93, label %95, label %94

94:                                               ; preds = %91
  tail call void @_ZN3pov8pov_freeEPvPKci(ptr noundef nonnull %92, ptr noundef nonnull @.str, i32 noundef 6084)
  br label %95

95:                                               ; preds = %94, %91
  store ptr null, ptr @_ZN3pov18MediaLightListPoolE, align 8, !tbaa !5
  %96 = load ptr, ptr @_ZN3pov20MediaLitIntervalPoolE, align 8, !tbaa !5
  %97 = icmp eq ptr %96, null
  br i1 %97, label %99, label %98

98:                                               ; preds = %95
  tail call void @_ZN3pov8pov_freeEPvPKci(ptr noundef nonnull %96, ptr noundef nonnull @.str, i32 noundef 6087)
  br label %99

99:                                               ; preds = %98, %95
  store ptr null, ptr @_ZN3pov20MediaLitIntervalPoolE, align 8, !tbaa !5
  %100 = load ptr, ptr @_ZN3pov17MediaIntervalPoolE, align 8, !tbaa !5
  %101 = icmp eq ptr %100, null
  br i1 %101, label %103, label %102

102:                                              ; preds = %99
  tail call void @_ZN3pov8pov_freeEPvPKci(ptr noundef nonnull %100, ptr noundef nonnull @.str, i32 noundef 6090)
  br label %103

103:                                              ; preds = %102, %99
  store ptr null, ptr @_ZN3pov17MediaIntervalPoolE, align 8, !tbaa !5
  %104 = load ptr, ptr @_ZN3pov21MediaIntervalPoolSizeE, align 8, !tbaa !5
  %105 = icmp eq ptr %104, null
  br i1 %105, label %107, label %106

106:                                              ; preds = %103
  tail call void @_ZN3pov8pov_freeEPvPKci(ptr noundef nonnull %104, ptr noundef nonnull @.str, i32 noundef 6092)
  br label %107

107:                                              ; preds = %106, %103
  store ptr null, ptr @_ZN3pov21MediaIntervalPoolSizeE, align 8, !tbaa !5
  %108 = load ptr, ptr @_ZN3pov13LightListPoolE, align 8, !tbaa !5
  %109 = icmp eq ptr %108, null
  br i1 %109, label %156, label %110

110:                                              ; preds = %107
  %111 = load i64, ptr @_ZN3pov17MaxLightPoolDepthE, align 8, !tbaa !14
  %112 = icmp sgt i64 %111, 0
  br i1 %112, label %113, label %154

113:                                              ; preds = %110, %145
  %114 = phi i64 [ %148, %145 ], [ 0, %110 ]
  %115 = load ptr, ptr @_ZN3pov13LightListPoolE, align 8, !tbaa !5
  %116 = getelementptr inbounds ptr, ptr %115, i64 %114
  %117 = load ptr, ptr %116, align 8, !tbaa !5
  %118 = icmp eq ptr %117, null
  br i1 %118, label %123, label %119

119:                                              ; preds = %113
  tail call void @_ZN3pov8pov_freeEPvPKci(ptr noundef nonnull %117, ptr noundef nonnull @.str, i32 noundef 6100)
  %120 = load ptr, ptr @_ZN3pov13LightListPoolE, align 8, !tbaa !5
  %121 = getelementptr inbounds ptr, ptr %120, i64 %114
  store ptr null, ptr %121, align 8, !tbaa !5
  %122 = load ptr, ptr @_ZN3pov13LightListPoolE, align 8, !tbaa !5
  br label %123

123:                                              ; preds = %119, %113
  %124 = phi ptr [ %122, %119 ], [ %115, %113 ]
  %125 = getelementptr inbounds ptr, ptr %124, i64 %114
  store ptr null, ptr %125, align 8, !tbaa !5
  %126 = load ptr, ptr @_ZN3pov14WeightListPoolE, align 8, !tbaa !5
  %127 = getelementptr inbounds ptr, ptr %126, i64 %114
  %128 = load ptr, ptr %127, align 8, !tbaa !5
  %129 = icmp eq ptr %128, null
  br i1 %129, label %134, label %130

130:                                              ; preds = %123
  tail call void @_ZN3pov8pov_freeEPvPKci(ptr noundef nonnull %128, ptr noundef nonnull @.str, i32 noundef 6103)
  %131 = load ptr, ptr @_ZN3pov14WeightListPoolE, align 8, !tbaa !5
  %132 = getelementptr inbounds ptr, ptr %131, i64 %114
  store ptr null, ptr %132, align 8, !tbaa !5
  %133 = load ptr, ptr @_ZN3pov14WeightListPoolE, align 8, !tbaa !5
  br label %134

134:                                              ; preds = %130, %123
  %135 = phi ptr [ %133, %130 ], [ %126, %123 ]
  %136 = getelementptr inbounds ptr, ptr %135, i64 %114
  store ptr null, ptr %136, align 8, !tbaa !5
  %137 = load ptr, ptr @_ZN3pov15TextureListPoolE, align 8, !tbaa !5
  %138 = getelementptr inbounds ptr, ptr %137, i64 %114
  %139 = load ptr, ptr %138, align 8, !tbaa !5
  %140 = icmp eq ptr %139, null
  br i1 %140, label %145, label %141

141:                                              ; preds = %134
  tail call void @_ZN3pov8pov_freeEPvPKci(ptr noundef nonnull %139, ptr noundef nonnull @.str, i32 noundef 6106)
  %142 = load ptr, ptr @_ZN3pov15TextureListPoolE, align 8, !tbaa !5
  %143 = getelementptr inbounds ptr, ptr %142, i64 %114
  store ptr null, ptr %143, align 8, !tbaa !5
  %144 = load ptr, ptr @_ZN3pov15TextureListPoolE, align 8, !tbaa !5
  br label %145

145:                                              ; preds = %141, %134
  %146 = phi ptr [ %144, %141 ], [ %137, %134 ]
  %147 = getelementptr inbounds ptr, ptr %146, i64 %114
  store ptr null, ptr %147, align 8, !tbaa !5
  %148 = add nuw nsw i64 %114, 1
  %149 = load i64, ptr @_ZN3pov17MaxLightPoolDepthE, align 8, !tbaa !14
  %150 = icmp sgt i64 %149, %148
  br i1 %150, label %113, label %151

151:                                              ; preds = %145
  %152 = load ptr, ptr @_ZN3pov13LightListPoolE, align 8, !tbaa !5
  %153 = icmp eq ptr %152, null
  br i1 %153, label %156, label %154

154:                                              ; preds = %151, %110
  %155 = phi ptr [ %152, %151 ], [ %108, %110 ]
  tail call void @_ZN3pov8pov_freeEPvPKci(ptr noundef nonnull %155, ptr noundef nonnull @.str, i32 noundef 6111)
  br label %156

156:                                              ; preds = %154, %151, %107
  store ptr null, ptr @_ZN3pov13LightListPoolE, align 8, !tbaa !5
  %157 = load ptr, ptr @_ZN3pov14WeightListPoolE, align 8, !tbaa !5
  %158 = icmp eq ptr %157, null
  br i1 %158, label %160, label %159

159:                                              ; preds = %156
  tail call void @_ZN3pov8pov_freeEPvPKci(ptr noundef nonnull %157, ptr noundef nonnull @.str, i32 noundef 6114)
  br label %160

160:                                              ; preds = %159, %156
  store ptr null, ptr @_ZN3pov14WeightListPoolE, align 8, !tbaa !5
  %161 = load ptr, ptr @_ZN3pov15TextureListPoolE, align 8, !tbaa !5
  %162 = icmp eq ptr %161, null
  br i1 %162, label %164, label %163

163:                                              ; preds = %160
  tail call void @_ZN3pov8pov_freeEPvPKci(ptr noundef nonnull %161, ptr noundef nonnull @.str, i32 noundef 6117)
  br label %164

164:                                              ; preds = %160, %163
  store ptr null, ptr @_ZN3pov15TextureListPoolE, align 8, !tbaa !5
  %165 = load ptr, ptr @_ZN3pov22ComputeTextureUsedPoolE, align 8, !tbaa !5
  %166 = icmp eq ptr %165, null
  br i1 %166, label %167, label %170

167:                                              ; preds = %170, %164
  %168 = load ptr, ptr @_ZN3pov22ComputeTextureFreePoolE, align 8, !tbaa !5
  %169 = icmp eq ptr %168, null
  br i1 %169, label %182, label %176

170:                                              ; preds = %164, %170
  %171 = phi ptr [ %174, %170 ], [ %165, %164 ]
  %172 = getelementptr inbounds %"struct.pov::ComTexData_Struct", ptr %171, i64 0, i32 1
  %173 = load ptr, ptr %172, align 8, !tbaa !16
  store ptr %173, ptr @_ZN3pov22ComputeTextureUsedPoolE, align 8, !tbaa !5
  tail call void @_ZN3pov8pov_freeEPvPKci(ptr noundef nonnull %171, ptr noundef nonnull @.str, i32 noundef 6221)
  %174 = load ptr, ptr @_ZN3pov22ComputeTextureUsedPoolE, align 8, !tbaa !5
  %175 = icmp eq ptr %174, null
  br i1 %175, label %167, label %170

176:                                              ; preds = %167, %176
  %177 = phi ptr [ %180, %176 ], [ %168, %167 ]
  %178 = getelementptr inbounds %"struct.pov::ComTexData_Struct", ptr %177, i64 0, i32 1
  %179 = load ptr, ptr %178, align 8, !tbaa !16
  store ptr %179, ptr @_ZN3pov22ComputeTextureFreePoolE, align 8, !tbaa !5
  tail call void @_ZN3pov8pov_freeEPvPKci(ptr noundef nonnull %177, ptr noundef nonnull @.str, i32 noundef 6228)
  %180 = load ptr, ptr @_ZN3pov22ComputeTextureFreePoolE, align 8, !tbaa !5
  %181 = icmp eq ptr %180, null
  br i1 %181, label %182, label %176

182:                                              ; preds = %176, %167
  %183 = load ptr, ptr @_ZN3pov21warpNormalTextureListE, align 8, !tbaa !5
  %184 = icmp eq ptr %183, null
  br i1 %184, label %186, label %185

185:                                              ; preds = %182
  tail call void @_ZN3pov8pov_freeEPvPKci(ptr noundef nonnull %183, ptr noundef nonnull @.str, i32 noundef 423)
  br label %186

186:                                              ; preds = %185, %182
  store ptr null, ptr @_ZN3pov21warpNormalTextureListE, align 8, !tbaa !5
  store i32 0, ptr @_ZN3pov28warpNormalTextureListMaxSizeE, align 4, !tbaa !9
  %187 = load i32, ptr @_ZN3pov9disp_elemE, align 4, !tbaa !9
  %188 = icmp eq i32 %187, 0
  br i1 %188, label %190, label %189

189:                                              ; preds = %186
  store i32 0, ptr @_ZN3pov9disp_elemE, align 4, !tbaa !9
  br label %190

190:                                              ; preds = %189, %186
  store ptr null, ptr @_ZN3pov10Light_ListE, align 8, !tbaa !5
  store ptr null, ptr @_ZN3pov12Texture_ListE, align 8, !tbaa !5
  store ptr null, ptr @_ZN3pov11Weight_ListE, align 8, !tbaa !5
  ret void
}

; Function Attrs: sspstrong uwtable
define dso_local void @_ZN3pov18FreeComTexDataPoolEv() local_unnamed_addr #0 {
  %1 = load ptr, ptr @_ZN3pov22ComputeTextureUsedPoolE, align 8, !tbaa !5
  %2 = icmp eq ptr %1, null
  br i1 %2, label %3, label %6

3:                                                ; preds = %6, %0
  %4 = load ptr, ptr @_ZN3pov22ComputeTextureFreePoolE, align 8, !tbaa !5
  %5 = icmp eq ptr %4, null
  br i1 %5, label %18, label %12

6:                                                ; preds = %0, %6
  %7 = phi ptr [ %10, %6 ], [ %1, %0 ]
  %8 = getelementptr inbounds %"struct.pov::ComTexData_Struct", ptr %7, i64 0, i32 1
  %9 = load ptr, ptr %8, align 8, !tbaa !16
  store ptr %9, ptr @_ZN3pov22ComputeTextureUsedPoolE, align 8, !tbaa !5
  tail call void @_ZN3pov8pov_freeEPvPKci(ptr noundef nonnull %7, ptr noundef nonnull @.str, i32 noundef 6221)
  %10 = load ptr, ptr @_ZN3pov22ComputeTextureUsedPoolE, align 8, !tbaa !5
  %11 = icmp eq ptr %10, null
  br i1 %11, label %3, label %6

12:                                               ; preds = %3, %12
  %13 = phi ptr [ %16, %12 ], [ %4, %3 ]
  %14 = getelementptr inbounds %"struct.pov::ComTexData_Struct", ptr %13, i64 0, i32 1
  %15 = load ptr, ptr %14, align 8, !tbaa !16
  store ptr %15, ptr @_ZN3pov22ComputeTextureFreePoolE, align 8, !tbaa !5
  tail call void @_ZN3pov8pov_freeEPvPKci(ptr noundef nonnull %13, ptr noundef nonnull @.str, i32 noundef 6228)
  %16 = load ptr, ptr @_ZN3pov22ComputeTextureFreePoolE, align 8, !tbaa !5
  %17 = icmp eq ptr %16, null
  br i1 %17, label %18, label %12

18:                                               ; preds = %12, %3
  ret void
}

declare void @_ZN3pov8pov_freeEPvPKci(ptr noundef, ptr noundef, i32 noundef) local_unnamed_addr #2

; Function Attrs: sspstrong uwtable
define dso_local void @_ZN3pov25Determine_Apparent_ColourEPNS_10istk_entryEPfPNS_10Ray_StructEd(ptr noundef %0, ptr nocapture noundef %1, ptr noundef %2, double noundef %3) local_unnamed_addr #0 {
  %5 = alloca [5 x float], align 16
  %6 = alloca [3 x double], align 16
  %7 = alloca [3 x double], align 16
  %8 = alloca [2 x double], align 16
  call void @llvm.lifetime.start.p0(i64 20, ptr nonnull %5) #12
  call void @llvm.lifetime.start.p0(i64 24, ptr nonnull %6) #12
  call void @llvm.lifetime.start.p0(i64 24, ptr nonnull %7) #12
  call void @llvm.lifetime.start.p0(i64 16, ptr nonnull %8) #12
  %9 = load double, ptr %0, align 8, !tbaa !18
  %10 = load double, ptr @_ZN3pov11Total_DepthE, align 8, !tbaa !20
  %11 = fadd double %9, %10
  store double %11, ptr @_ZN3pov11Total_DepthE, align 8, !tbaa !20
  %12 = getelementptr inbounds %"struct.pov::istk_entry", ptr %0, i64 0, i32 1
  %13 = load <2 x double>, ptr %12, align 8, !tbaa !20
  store <2 x double> %13, ptr %7, align 16, !tbaa !20
  %14 = getelementptr inbounds %"struct.pov::istk_entry", ptr %0, i64 0, i32 1, i64 2
  %15 = load double, ptr %14, align 8, !tbaa !20
  %16 = getelementptr inbounds double, ptr %7, i64 2
  store double %15, ptr %16, align 16, !tbaa !20
  %17 = load i64, ptr @_ZN3pov17LightingPoolIndexE, align 8, !tbaa !14
  %18 = add nsw i64 %17, 1
  store i64 %18, ptr @_ZN3pov17LightingPoolIndexE, align 8, !tbaa !14
  %19 = load i64, ptr @_ZN3pov17MaxLightPoolDepthE, align 8, !tbaa !14
  %20 = icmp slt i64 %18, %19
  br i1 %20, label %24, label %21

21:                                               ; preds = %4
  %22 = shl nsw i64 %19, 1
  tail call void @_ZN3pov22ResizeLightMallocPoolsEl(i64 noundef %22)
  %23 = load i64, ptr @_ZN3pov17LightingPoolIndexE, align 8, !tbaa !14
  br label %24

24:                                               ; preds = %21, %4
  %25 = phi i64 [ %23, %21 ], [ %18, %4 ]
  %26 = load ptr, ptr @_ZN3pov13LightListPoolE, align 8, !tbaa !5
  %27 = getelementptr inbounds ptr, ptr %26, i64 %25
  %28 = load ptr, ptr %27, align 8, !tbaa !5
  store ptr %28, ptr @_ZN3pov10Light_ListE, align 8, !tbaa !5
  %29 = load i32, ptr getelementptr inbounds (%"struct.pov::Frame_Struct", ptr @_ZN3pov5FrameE, i64 0, i32 3), align 8, !tbaa !11
  %30 = icmp sgt i32 %29, 0
  br i1 %30, label %31, label %60

31:                                               ; preds = %24
  %32 = zext i32 %29 to i64
  %33 = and i64 %32, 3
  %34 = icmp ult i32 %29, 4
  br i1 %34, label %50, label %35

35:                                               ; preds = %31
  %36 = and i64 %32, 4294967292
  br label %37

37:                                               ; preds = %37, %35
  %38 = phi i64 [ 0, %35 ], [ %47, %37 ]
  %39 = phi i64 [ 0, %35 ], [ %48, %37 ]
  %40 = getelementptr inbounds %"struct.pov::Light_Tested_Struct", ptr %28, i64 %38
  store i32 0, ptr %40, align 4, !tbaa !21
  %41 = or i64 %38, 1
  %42 = getelementptr inbounds %"struct.pov::Light_Tested_Struct", ptr %28, i64 %41
  store i32 0, ptr %42, align 4, !tbaa !21
  %43 = or i64 %38, 2
  %44 = getelementptr inbounds %"struct.pov::Light_Tested_Struct", ptr %28, i64 %43
  store i32 0, ptr %44, align 4, !tbaa !21
  %45 = or i64 %38, 3
  %46 = getelementptr inbounds %"struct.pov::Light_Tested_Struct", ptr %28, i64 %45
  store i32 0, ptr %46, align 4, !tbaa !21
  %47 = add nuw nsw i64 %38, 4
  %48 = add i64 %39, 4
  %49 = icmp eq i64 %48, %36
  br i1 %49, label %50, label %37

50:                                               ; preds = %37, %31
  %51 = phi i64 [ 0, %31 ], [ %47, %37 ]
  %52 = icmp eq i64 %33, 0
  br i1 %52, label %60, label %53

53:                                               ; preds = %50, %53
  %54 = phi i64 [ %57, %53 ], [ %51, %50 ]
  %55 = phi i64 [ %58, %53 ], [ 0, %50 ]
  %56 = getelementptr inbounds %"struct.pov::Light_Tested_Struct", ptr %28, i64 %54
  store i32 0, ptr %56, align 4, !tbaa !21
  %57 = add nuw nsw i64 %54, 1
  %58 = add i64 %55, 1
  %59 = icmp eq i64 %58, %33
  br i1 %59, label %60, label %53, !llvm.loop !23

60:                                               ; preds = %50, %53, %24
  %61 = getelementptr inbounds %"struct.pov::istk_entry", ptr %0, i64 0, i32 5
  %62 = load ptr, ptr %61, align 8, !tbaa !25
  %63 = load ptr, ptr %62, align 8, !tbaa !26
  %64 = getelementptr inbounds %"struct.pov::Method_Struct", ptr %63, i64 0, i32 2
  %65 = load ptr, ptr %64, align 8, !tbaa !30
  call void %65(ptr noundef nonnull %6, ptr noundef nonnull %62, ptr noundef nonnull %0)
  %66 = load ptr, ptr %61, align 8, !tbaa !25
  %67 = getelementptr inbounds %"struct.pov::Object_Struct", ptr %66, i64 0, i32 13
  %68 = load i32, ptr %67, align 4, !tbaa !32
  %69 = and i32 %68, 4
  %70 = icmp eq i32 %69, 0
  %71 = load double, ptr %6, align 16, !tbaa !20
  br i1 %70, label %72, label %75

72:                                               ; preds = %60
  %73 = getelementptr inbounds double, ptr %6, i64 1
  %74 = load <2 x double>, ptr %73, align 8, !tbaa !20
  br label %80

75:                                               ; preds = %60
  %76 = fneg double %71
  store double %76, ptr %6, align 16, !tbaa !20
  %77 = getelementptr inbounds [3 x double], ptr %6, i64 0, i64 1
  %78 = load <2 x double>, ptr %77, align 8, !tbaa !20
  %79 = fneg <2 x double> %78
  store <2 x double> %79, ptr %77, align 8, !tbaa !20
  br label %80

80:                                               ; preds = %72, %75
  %81 = phi double [ %76, %75 ], [ %71, %72 ]
  %82 = phi <2 x double> [ %79, %75 ], [ %74, %72 ]
  %83 = getelementptr inbounds %"struct.pov::Ray_Struct", ptr %2, i64 0, i32 1
  %84 = load double, ptr %83, align 8, !tbaa !20
  %85 = getelementptr inbounds %"struct.pov::Ray_Struct", ptr %2, i64 0, i32 1, i64 1
  %86 = load double, ptr %85, align 8, !tbaa !20
  %87 = extractelement <2 x double> %82, i64 0
  %88 = fmul double %87, %86
  %89 = call double @llvm.fmuladd.f64(double %81, double %84, double %88)
  %90 = getelementptr inbounds %"struct.pov::Ray_Struct", ptr %2, i64 0, i32 1, i64 2
  %91 = load double, ptr %90, align 8, !tbaa !20
  %92 = extractelement <2 x double> %82, i64 1
  %93 = call double @llvm.fmuladd.f64(double %92, double %91, double %89)
  %94 = fcmp ogt double %93, 0.000000e+00
  br i1 %94, label %95, label %99

95:                                               ; preds = %80
  %96 = getelementptr inbounds double, ptr %6, i64 1
  %97 = fneg double %81
  store double %97, ptr %6, align 16, !tbaa !20
  %98 = fneg <2 x double> %82
  store <2 x double> %98, ptr %96, align 8, !tbaa !20
  br label %99

99:                                               ; preds = %80, %95
  %100 = phi double [ %97, %95 ], [ %81, %80 ]
  %101 = phi <2 x double> [ %98, %95 ], [ %82, %80 ]
  %102 = getelementptr inbounds %"struct.pov::istk_entry", ptr %0, i64 0, i32 2
  store double %100, ptr %102, align 8, !tbaa !20
  %103 = getelementptr inbounds %"struct.pov::istk_entry", ptr %0, i64 0, i32 2, i64 1
  store <2 x double> %101, ptr %103, align 8, !tbaa !20
  %104 = getelementptr inbounds %"struct.pov::istk_entry", ptr %0, i64 0, i32 3
  store double %100, ptr %104, align 8, !tbaa !20
  %105 = getelementptr inbounds %"struct.pov::istk_entry", ptr %0, i64 0, i32 3, i64 1
  store <2 x double> %101, ptr %105, align 8, !tbaa !20
  %106 = and i32 %68, 8192
  %107 = icmp eq i32 %106, 0
  br i1 %107, label %120, label %108

108:                                              ; preds = %99
  %109 = load ptr, ptr %66, align 8, !tbaa !26
  %110 = getelementptr inbounds %"struct.pov::Method_Struct", ptr %109, i64 0, i32 3
  %111 = load ptr, ptr %110, align 8, !tbaa !33
  call void %111(ptr noundef nonnull %8, ptr noundef nonnull %66, ptr noundef nonnull %0)
  %112 = getelementptr inbounds %"struct.pov::istk_entry", ptr %0, i64 0, i32 4
  %113 = load <2 x double>, ptr %8, align 16, !tbaa !20
  store <2 x double> %113, ptr %112, align 8, !tbaa !20
  %114 = load ptr, ptr %61, align 8, !tbaa !25
  %115 = getelementptr inbounds %"struct.pov::Object_Struct", ptr %114, i64 0, i32 13
  %116 = load i32, ptr %115, align 4, !tbaa !32
  %117 = and i32 %116, 8192
  %118 = icmp eq i32 %117, 0
  br i1 %118, label %120, label %119

119:                                              ; preds = %108
  store <2 x double> %113, ptr %7, align 16, !tbaa !20
  store double 0.000000e+00, ptr %16, align 16, !tbaa !20
  br label %120

120:                                              ; preds = %99, %119, %108
  %121 = load ptr, ptr @_ZN3pov14WeightListPoolE, align 8, !tbaa !5
  %122 = load i64, ptr @_ZN3pov17LightingPoolIndexE, align 8, !tbaa !14
  %123 = getelementptr inbounds ptr, ptr %121, i64 %122
  %124 = load ptr, ptr %123, align 8, !tbaa !5
  store ptr %124, ptr @_ZN3pov11Weight_ListE, align 8, !tbaa !5
  %125 = load ptr, ptr @_ZN3pov15TextureListPoolE, align 8, !tbaa !5
  %126 = getelementptr inbounds ptr, ptr %125, i64 %122
  %127 = load ptr, ptr %126, align 8, !tbaa !5
  store ptr %127, ptr @_ZN3pov12Texture_ListE, align 8, !tbaa !5
  %128 = call fastcc noundef i32 @_ZN3povL19create_texture_listEPNS_10istk_entryEd(ptr noundef nonnull %0, double noundef %93)
  store i32 -1, ptr @_ZN3pov22photonsAlreadyGatheredE, align 4, !tbaa !9
  %129 = icmp sgt i32 %128, 0
  br i1 %129, label %130, label %190

130:                                              ; preds = %120
  %131 = getelementptr inbounds float, ptr %1, i64 2
  %132 = getelementptr inbounds [5 x float], ptr %5, i64 0, i64 2
  %133 = getelementptr inbounds [5 x float], ptr %5, i64 0, i64 4
  %134 = getelementptr inbounds float, ptr %1, i64 4
  %135 = zext i32 %128 to i64
  %136 = load ptr, ptr @_ZN3pov11Weight_ListE, align 8, !tbaa !5
  br label %137

137:                                              ; preds = %130, %186
  %138 = phi ptr [ %136, %130 ], [ %187, %186 ]
  %139 = phi i64 [ 0, %130 ], [ %188, %186 ]
  %140 = getelementptr inbounds double, ptr %138, i64 %139
  %141 = load double, ptr %140, align 8, !tbaa !20
  %142 = load double, ptr @_ZN3pov11ADC_BailoutE, align 8, !tbaa !20
  %143 = fcmp olt double %141, %142
  br i1 %143, label %186, label %144

144:                                              ; preds = %137
  %145 = load ptr, ptr @_ZN3pov12Texture_ListE, align 8, !tbaa !5
  %146 = getelementptr inbounds ptr, ptr %145, i64 %139
  %147 = load ptr, ptr %146, align 8, !tbaa !5
  %148 = load i32, ptr @_ZN3pov13backtraceFlagE, align 4, !tbaa !9
  %149 = icmp eq i32 %148, 0
  br i1 %149, label %162, label %150

150:                                              ; preds = %144
  %151 = load <2 x float>, ptr %1, align 4, !tbaa !34
  %152 = fpext <2 x float> %151 to <2 x double>
  %153 = insertelement <2 x double> poison, double %141, i64 0
  %154 = shufflevector <2 x double> %153, <2 x double> poison, <2 x i32> zeroinitializer
  %155 = fmul <2 x double> %154, %152
  %156 = fptrunc <2 x double> %155 to <2 x float>
  store <2 x float> %156, ptr %5, align 16, !tbaa !34
  %157 = load float, ptr %131, align 4, !tbaa !34
  %158 = fpext float %157 to double
  %159 = fmul double %141, %158
  %160 = fptrunc double %159 to float
  store float %160, ptr %132, align 8, !tbaa !34
  call fastcc void @_ZN3povL14do_texture_mapEPfPNS_14Texture_StructEPdS3_PNS_10Ray_StructEdPNS_10istk_entryEi(ptr noundef nonnull %5, ptr noundef %147, ptr noundef nonnull %7, ptr noundef nonnull %6, ptr noundef %2, double noundef %3, ptr noundef nonnull %0, i32 noundef 0)
  %161 = load ptr, ptr @_ZN3pov11Weight_ListE, align 8, !tbaa !5
  br label %186

162:                                              ; preds = %144
  call fastcc void @_ZN3povL14do_texture_mapEPfPNS_14Texture_StructEPdS3_PNS_10Ray_StructEdPNS_10istk_entryEi(ptr noundef nonnull %5, ptr noundef %147, ptr noundef nonnull %7, ptr noundef nonnull %6, ptr noundef %2, double noundef %3, ptr noundef nonnull %0, i32 noundef 0)
  %163 = load ptr, ptr @_ZN3pov11Weight_ListE, align 8, !tbaa !5
  %164 = getelementptr inbounds double, ptr %163, i64 %139
  %165 = load double, ptr %164, align 8, !tbaa !20
  %166 = load <2 x float>, ptr %5, align 16, !tbaa !34
  %167 = fpext <2 x float> %166 to <2 x double>
  %168 = load <2 x float>, ptr %1, align 4, !tbaa !34
  %169 = fpext <2 x float> %168 to <2 x double>
  %170 = insertelement <2 x double> poison, double %165, i64 0
  %171 = shufflevector <2 x double> %170, <2 x double> poison, <2 x i32> zeroinitializer
  %172 = call <2 x double> @llvm.fmuladd.v2f64(<2 x double> %171, <2 x double> %167, <2 x double> %169)
  %173 = fptrunc <2 x double> %172 to <2 x float>
  store <2 x float> %173, ptr %1, align 4, !tbaa !34
  %174 = load float, ptr %132, align 8, !tbaa !34
  %175 = fpext float %174 to double
  %176 = load float, ptr %131, align 4, !tbaa !34
  %177 = fpext float %176 to double
  %178 = call double @llvm.fmuladd.f64(double %165, double %175, double %177)
  %179 = fptrunc double %178 to float
  store float %179, ptr %131, align 4, !tbaa !34
  %180 = load float, ptr %133, align 16, !tbaa !34
  %181 = fpext float %180 to double
  %182 = load float, ptr %134, align 4, !tbaa !34
  %183 = fpext float %182 to double
  %184 = call double @llvm.fmuladd.f64(double %165, double %181, double %183)
  %185 = fptrunc double %184 to float
  store float %185, ptr %134, align 4, !tbaa !34
  br label %186

186:                                              ; preds = %150, %162, %137
  %187 = phi ptr [ %161, %150 ], [ %163, %162 ], [ %138, %137 ]
  %188 = add nuw nsw i64 %139, 1
  %189 = icmp eq i64 %188, %135
  br i1 %189, label %190, label %137

190:                                              ; preds = %186, %120
  %191 = load i64, ptr @_ZN3pov17LightingPoolIndexE, align 8, !tbaa !14
  %192 = add nsw i64 %191, -1
  store i64 %192, ptr @_ZN3pov17LightingPoolIndexE, align 8, !tbaa !14
  %193 = load ptr, ptr @_ZN3pov13LightListPoolE, align 8, !tbaa !5
  %194 = getelementptr inbounds ptr, ptr %193, i64 %192
  %195 = load ptr, ptr %194, align 8, !tbaa !5
  store ptr %195, ptr @_ZN3pov10Light_ListE, align 8, !tbaa !5
  %196 = load ptr, ptr @_ZN3pov14WeightListPoolE, align 8, !tbaa !5
  %197 = getelementptr inbounds ptr, ptr %196, i64 %192
  %198 = load ptr, ptr %197, align 8, !tbaa !5
  store ptr %198, ptr @_ZN3pov11Weight_ListE, align 8, !tbaa !5
  %199 = load ptr, ptr @_ZN3pov15TextureListPoolE, align 8, !tbaa !5
  %200 = getelementptr inbounds ptr, ptr %199, i64 %192
  %201 = load ptr, ptr %200, align 8, !tbaa !5
  store ptr %201, ptr @_ZN3pov12Texture_ListE, align 8, !tbaa !5
  %202 = load double, ptr %0, align 8, !tbaa !18
  %203 = load double, ptr @_ZN3pov11Total_DepthE, align 8, !tbaa !20
  %204 = fsub double %203, %202
  store double %204, ptr @_ZN3pov11Total_DepthE, align 8, !tbaa !20
  call void @llvm.lifetime.end.p0(i64 16, ptr nonnull %8) #12
  call void @llvm.lifetime.end.p0(i64 24, ptr nonnull %7) #12
  call void @llvm.lifetime.end.p0(i64 24, ptr nonnull %6) #12
  call void @llvm.lifetime.end.p0(i64 20, ptr nonnull %5) #12
  ret void
}

; Function Attrs: mustprogress nocallback nofree nosync nounwind willreturn memory(argmem: readwrite)
declare void @llvm.lifetime.start.p0(i64 immarg, ptr nocapture) #3

; Function Attrs: sspstrong uwtable
define dso_local void @_ZN3pov22ResizeLightMallocPoolsEl(i64 noundef %0) local_unnamed_addr #0 {
  %2 = load i32, ptr @_ZN3pov30Number_Of_Textures_And_WeightsE, align 4, !tbaa !9
  %3 = sext i32 %2 to i64
  %4 = shl nsw i64 %3, 3
  %5 = load ptr, ptr @_ZN3pov14WeightListPoolE, align 8, !tbaa !5
  %6 = shl i64 %0, 3
  %7 = tail call noundef ptr @_ZN3pov11pov_reallocEPvmPKciS2_(ptr noundef %5, i64 noundef %6, ptr noundef nonnull @.str, i32 noundef 6188, ptr noundef nonnull @.str.7)
  store ptr %7, ptr @_ZN3pov14WeightListPoolE, align 8, !tbaa !5
  %8 = load ptr, ptr @_ZN3pov15TextureListPoolE, align 8, !tbaa !5
  %9 = tail call noundef ptr @_ZN3pov11pov_reallocEPvmPKciS2_(ptr noundef %8, i64 noundef %6, ptr noundef nonnull @.str, i32 noundef 6189, ptr noundef nonnull @.str.7)
  store ptr %9, ptr @_ZN3pov15TextureListPoolE, align 8, !tbaa !5
  %10 = load ptr, ptr @_ZN3pov13LightListPoolE, align 8, !tbaa !5
  %11 = tail call noundef ptr @_ZN3pov11pov_reallocEPvmPKciS2_(ptr noundef %10, i64 noundef %6, ptr noundef nonnull @.str, i32 noundef 6190, ptr noundef nonnull @.str.7)
  store ptr %11, ptr @_ZN3pov13LightListPoolE, align 8, !tbaa !5
  %12 = load i64, ptr @_ZN3pov17MaxLightPoolDepthE, align 8, !tbaa !14
  %13 = shl i64 %12, 32
  %14 = ashr exact i64 %13, 32
  %15 = icmp slt i64 %14, %0
  br i1 %15, label %16, label %42

16:                                               ; preds = %1
  %17 = shl nsw i64 %3, 5
  br label %18

18:                                               ; preds = %16, %18
  %19 = phi i64 [ %14, %16 ], [ %40, %18 ]
  %20 = tail call noundef ptr @_ZN3pov10pov_mallocEmPKciS1_(i64 noundef %4, ptr noundef nonnull @.str, i32 noundef 6194, ptr noundef nonnull @.str.7)
  %21 = load ptr, ptr @_ZN3pov14WeightListPoolE, align 8, !tbaa !5
  %22 = getelementptr inbounds ptr, ptr %21, i64 %19
  store ptr %20, ptr %22, align 8, !tbaa !5
  %23 = tail call noundef ptr @_ZN3pov10pov_mallocEmPKciS1_(i64 noundef %4, ptr noundef nonnull @.str, i32 noundef 6195, ptr noundef nonnull @.str.7)
  %24 = load ptr, ptr @_ZN3pov15TextureListPoolE, align 8, !tbaa !5
  %25 = getelementptr inbounds ptr, ptr %24, i64 %19
  store ptr %23, ptr %25, align 8, !tbaa !5
  %26 = load i32, ptr getelementptr inbounds (%"struct.pov::Frame_Struct", ptr @_ZN3pov5FrameE, i64 0, i32 3), align 8, !tbaa !9
  %27 = tail call i32 @llvm.smax.i32(i32 %26, i32 1)
  %28 = zext i32 %27 to i64
  %29 = mul nuw nsw i64 %28, 24
  %30 = tail call noundef ptr @_ZN3pov10pov_mallocEmPKciS1_(i64 noundef %29, ptr noundef nonnull @.str, i32 noundef 6196, ptr noundef nonnull @.str.7)
  %31 = load ptr, ptr @_ZN3pov13LightListPoolE, align 8, !tbaa !5
  %32 = getelementptr inbounds ptr, ptr %31, i64 %19
  store ptr %30, ptr %32, align 8, !tbaa !5
  %33 = load i32, ptr getelementptr inbounds (%"struct.pov::Frame_Struct", ptr @_ZN3pov5FrameE, i64 0, i32 3), align 8, !tbaa !9
  %34 = tail call i32 @llvm.smax.i32(i32 %33, i32 1)
  %35 = zext i32 %34 to i64
  %36 = mul nuw nsw i64 %35, 24
  %37 = load i64, ptr @_ZN3pov19TotalMallocPoolSizeE, align 8, !tbaa !14
  %38 = add i64 %37, %17
  %39 = add i64 %38, %36
  store i64 %39, ptr @_ZN3pov19TotalMallocPoolSizeE, align 8, !tbaa !14
  %40 = add nsw i64 %19, 1
  %41 = icmp slt i64 %40, %0
  br i1 %41, label %18, label %42

42:                                               ; preds = %18, %1
  store i64 %0, ptr @_ZN3pov17MaxLightPoolDepthE, align 8, !tbaa !14
  ret void
}

; Function Attrs: sspstrong uwtable
define internal fastcc noundef i32 @_ZN3povL19create_texture_listEPNS_10istk_entryEd(ptr noundef %0, double noundef %1) unnamed_addr #0 {
  %3 = alloca i32, align 4
  %4 = alloca [3 x double], align 16
  call void @llvm.lifetime.start.p0(i64 4, ptr nonnull %3) #12
  %5 = fcmp ogt double %1, 0.000000e+00
  br i1 %5, label %6, label %12

6:                                                ; preds = %2
  %7 = getelementptr inbounds %"struct.pov::istk_entry", ptr %0, i64 0, i32 5
  %8 = load ptr, ptr %7, align 8, !tbaa !25
  %9 = getelementptr inbounds %"struct.pov::Object_Struct", ptr %8, i64 0, i32 4
  %10 = load ptr, ptr %9, align 8, !tbaa !35
  %11 = icmp ne ptr %10, null
  br label %12

12:                                               ; preds = %6, %2
  %13 = phi i1 [ false, %2 ], [ %11, %6 ]
  %14 = getelementptr inbounds %"struct.pov::istk_entry", ptr %0, i64 0, i32 18
  %15 = load ptr, ptr %14, align 8, !tbaa !36
  %16 = icmp eq ptr %15, null
  %17 = getelementptr inbounds %"struct.pov::istk_entry", ptr %0, i64 0, i32 5
  %18 = load ptr, ptr %17, align 8, !tbaa !25
  %19 = getelementptr inbounds %"struct.pov::Object_Struct", ptr %18, i64 0, i32 13
  %20 = load i32, ptr %19, align 4, !tbaa !32
  %21 = and i32 %20, 256
  %22 = icmp eq i32 %21, 0
  %23 = select i1 %16, i1 true, i1 %22
  br i1 %23, label %39, label %24

24:                                               ; preds = %12
  %25 = load ptr, ptr %15, align 8, !tbaa !37
  %26 = icmp eq ptr %25, @_ZN3pov24CSG_Intersection_MethodsE
  %27 = icmp eq ptr %25, @_ZN3pov17CSG_Merge_MethodsE
  %28 = or i1 %26, %27
  %29 = icmp eq ptr %25, @_ZN3pov17CSG_Union_MethodsE
  %30 = or i1 %29, %28
  br i1 %30, label %31, label %39

31:                                               ; preds = %24
  %32 = getelementptr inbounds %"struct.pov::Object_Struct", ptr %18, i64 0, i32 3
  %33 = load ptr, ptr %32, align 8, !tbaa !39
  %34 = icmp eq ptr %33, null
  br i1 %34, label %35, label %136

35:                                               ; preds = %31
  %36 = getelementptr inbounds %"struct.pov::istk_entry", ptr %0, i64 0, i32 1
  %37 = load ptr, ptr @_ZN3pov12Texture_ListE, align 8, !tbaa !5
  %38 = load ptr, ptr @_ZN3pov11Weight_ListE, align 8, !tbaa !5
  call void @_ZN3pov22Determine_CSG_TexturesEPNS_10CSG_StructEPdPiPPNS_14Texture_StructES2_(ptr noundef nonnull %15, ptr noundef nonnull %36, ptr noundef nonnull %3, ptr noundef %37, ptr noundef %38)
  br label %145

39:                                               ; preds = %12, %24
  %40 = getelementptr inbounds %"struct.pov::istk_entry", ptr %0, i64 0, i32 5
  %41 = and i32 %20, 256
  %42 = icmp eq i32 %41, 0
  br i1 %42, label %131, label %43

43:                                               ; preds = %39
  %44 = load ptr, ptr %18, align 8, !tbaa !26
  %45 = icmp eq ptr %44, @_ZN3pov12Blob_MethodsE
  br i1 %45, label %46, label %52

46:                                               ; preds = %43
  %47 = getelementptr inbounds %"struct.pov::istk_entry", ptr %0, i64 0, i32 1
  %48 = load ptr, ptr @_ZN3pov12Texture_ListE, align 8, !tbaa !5
  %49 = load ptr, ptr @_ZN3pov11Weight_ListE, align 8, !tbaa !5
  call void @_ZN3pov23Determine_Blob_TexturesEPNS_11Blob_StructEPdPiPPNS_14Texture_StructES2_(ptr noundef nonnull %18, ptr noundef nonnull %47, ptr noundef nonnull %3, ptr noundef %48, ptr noundef %49)
  %50 = load ptr, ptr %40, align 8, !tbaa !25
  %51 = load ptr, ptr %50, align 8, !tbaa !26
  br label %52

52:                                               ; preds = %46, %43
  %53 = phi ptr [ %51, %46 ], [ %44, %43 ]
  %54 = phi ptr [ %50, %46 ], [ %18, %43 ]
  %55 = icmp eq ptr %53, @_ZN3pov12Mesh_MethodsE
  br i1 %55, label %56, label %145

56:                                               ; preds = %52
  %57 = getelementptr inbounds %"struct.pov::istk_entry", ptr %0, i64 0, i32 17
  %58 = load ptr, ptr %57, align 8, !tbaa !40
  %59 = load i8, ptr %58, align 8
  %60 = and i8 %59, 32
  %61 = icmp eq i8 %60, 0
  br i1 %61, label %116, label %62

62:                                               ; preds = %56
  call void @llvm.lifetime.start.p0(i64 24, ptr nonnull %4) #12
  %63 = getelementptr inbounds %"struct.pov::istk_entry", ptr %0, i64 0, i32 1
  %64 = call noundef i32 @_ZN3pov16Mesh_InterpolateEPdS0_PNS_11Mesh_StructEPNS_20Mesh_Triangle_StructE(ptr noundef nonnull %4, ptr noundef nonnull %63, ptr noundef nonnull %54, ptr noundef nonnull %58)
  %65 = getelementptr inbounds %"struct.pov::Mesh_Triangle_Struct", ptr %58, i64 0, i32 5
  %66 = load i64, ptr %65, align 8, !tbaa !41
  %67 = icmp sgt i64 %66, -1
  %68 = load ptr, ptr %40, align 8, !tbaa !25
  br i1 %67, label %69, label %73

69:                                               ; preds = %62
  %70 = getelementptr inbounds %"struct.pov::Mesh_Struct", ptr %68, i64 0, i32 16
  %71 = load ptr, ptr %70, align 8, !tbaa !43
  %72 = getelementptr inbounds ptr, ptr %71, i64 %66
  br label %75

73:                                               ; preds = %62
  %74 = getelementptr inbounds %"struct.pov::Object_Struct", ptr %68, i64 0, i32 3
  br label %75

75:                                               ; preds = %73, %69
  %76 = phi ptr [ %74, %73 ], [ %72, %69 ]
  %77 = load ptr, ptr %76, align 8, !tbaa !5
  %78 = load ptr, ptr @_ZN3pov12Texture_ListE, align 8, !tbaa !5
  store ptr %77, ptr %78, align 8, !tbaa !5
  %79 = getelementptr inbounds %"struct.pov::Mesh_Triangle_Struct", ptr %58, i64 0, i32 6
  %80 = load i64, ptr %79, align 8, !tbaa !46
  %81 = icmp sgt i64 %80, -1
  %82 = load ptr, ptr %40, align 8, !tbaa !25
  br i1 %81, label %83, label %87

83:                                               ; preds = %75
  %84 = getelementptr inbounds %"struct.pov::Mesh_Struct", ptr %82, i64 0, i32 16
  %85 = load ptr, ptr %84, align 8, !tbaa !43
  %86 = getelementptr inbounds ptr, ptr %85, i64 %80
  br label %89

87:                                               ; preds = %75
  %88 = getelementptr inbounds %"struct.pov::Object_Struct", ptr %82, i64 0, i32 3
  br label %89

89:                                               ; preds = %87, %83
  %90 = phi ptr [ %88, %87 ], [ %86, %83 ]
  %91 = load ptr, ptr %90, align 8, !tbaa !5
  %92 = load ptr, ptr @_ZN3pov12Texture_ListE, align 8, !tbaa !5
  %93 = getelementptr inbounds ptr, ptr %92, i64 1
  store ptr %91, ptr %93, align 8, !tbaa !5
  %94 = getelementptr inbounds %"struct.pov::Mesh_Triangle_Struct", ptr %58, i64 0, i32 7
  %95 = load i64, ptr %94, align 8, !tbaa !47
  %96 = icmp sgt i64 %95, -1
  %97 = load ptr, ptr %40, align 8, !tbaa !25
  br i1 %96, label %98, label %102

98:                                               ; preds = %89
  %99 = getelementptr inbounds %"struct.pov::Mesh_Struct", ptr %97, i64 0, i32 16
  %100 = load ptr, ptr %99, align 8, !tbaa !43
  %101 = getelementptr inbounds ptr, ptr %100, i64 %95
  br label %104

102:                                              ; preds = %89
  %103 = getelementptr inbounds %"struct.pov::Object_Struct", ptr %97, i64 0, i32 3
  br label %104

104:                                              ; preds = %102, %98
  %105 = phi ptr [ %103, %102 ], [ %101, %98 ]
  %106 = load ptr, ptr %105, align 8, !tbaa !5
  %107 = getelementptr inbounds ptr, ptr %92, i64 2
  store ptr %106, ptr %107, align 8, !tbaa !5
  %108 = load double, ptr %4, align 16, !tbaa !20
  %109 = load ptr, ptr @_ZN3pov11Weight_ListE, align 8, !tbaa !5
  store double %108, ptr %109, align 8, !tbaa !20
  %110 = getelementptr inbounds [3 x double], ptr %4, i64 0, i64 1
  %111 = load double, ptr %110, align 8, !tbaa !20
  %112 = getelementptr inbounds double, ptr %109, i64 1
  store double %111, ptr %112, align 8, !tbaa !20
  %113 = getelementptr inbounds [3 x double], ptr %4, i64 0, i64 2
  %114 = load double, ptr %113, align 16, !tbaa !20
  %115 = getelementptr inbounds double, ptr %109, i64 2
  store double %114, ptr %115, align 8, !tbaa !20
  store i32 3, ptr %3, align 4, !tbaa !9
  call void @llvm.lifetime.end.p0(i64 24, ptr nonnull %4) #12
  br label %145

116:                                              ; preds = %56
  %117 = getelementptr inbounds %"struct.pov::Mesh_Triangle_Struct", ptr %58, i64 0, i32 5
  %118 = load i64, ptr %117, align 8, !tbaa !41
  %119 = icmp sgt i64 %118, -1
  br i1 %119, label %120, label %124

120:                                              ; preds = %116
  %121 = getelementptr inbounds %"struct.pov::Mesh_Struct", ptr %54, i64 0, i32 16
  %122 = load ptr, ptr %121, align 8, !tbaa !43
  %123 = getelementptr inbounds ptr, ptr %122, i64 %118
  br label %126

124:                                              ; preds = %116
  %125 = getelementptr inbounds %"struct.pov::Object_Struct", ptr %54, i64 0, i32 3
  br label %126

126:                                              ; preds = %124, %120
  %127 = phi ptr [ %125, %124 ], [ %123, %120 ]
  %128 = load ptr, ptr %127, align 8, !tbaa !5
  %129 = load ptr, ptr @_ZN3pov12Texture_ListE, align 8, !tbaa !5
  store ptr %128, ptr %129, align 8, !tbaa !5
  %130 = load ptr, ptr @_ZN3pov11Weight_ListE, align 8, !tbaa !5
  store double 1.000000e+00, ptr %130, align 8, !tbaa !20
  store i32 1, ptr %3, align 4, !tbaa !9
  br label %145

131:                                              ; preds = %39
  %132 = getelementptr inbounds %"struct.pov::Object_Struct", ptr %18, i64 0, i32 3
  %133 = load ptr, ptr %132, align 8, !tbaa !39
  %134 = icmp eq ptr %133, null
  br i1 %134, label %135, label %136

135:                                              ; preds = %131
  store i32 0, ptr %3, align 4, !tbaa !9
  br label %145

136:                                              ; preds = %31, %131
  %137 = phi ptr [ %133, %131 ], [ %33, %31 ]
  br i1 %13, label %138, label %141

138:                                              ; preds = %136
  %139 = getelementptr inbounds %"struct.pov::Object_Struct", ptr %18, i64 0, i32 4
  %140 = load ptr, ptr %139, align 8, !tbaa !35
  br label %141

141:                                              ; preds = %136, %138
  %142 = phi ptr [ %140, %138 ], [ %137, %136 ]
  %143 = load ptr, ptr @_ZN3pov12Texture_ListE, align 8, !tbaa !5
  store ptr %142, ptr %143, align 8, !tbaa !5
  %144 = load ptr, ptr @_ZN3pov11Weight_ListE, align 8, !tbaa !5
  store double 1.000000e+00, ptr %144, align 8, !tbaa !20
  store i32 1, ptr %3, align 4, !tbaa !9
  br label %145

145:                                              ; preds = %104, %126, %52, %141, %135, %35
  %146 = load i32, ptr %3, align 4, !tbaa !9
  call void @llvm.lifetime.end.p0(i64 4, ptr nonnull %3) #12
  ret i32 %146
}

; Function Attrs: sspstrong uwtable
define internal fastcc void @_ZN3povL14do_texture_mapEPfPNS_14Texture_StructEPdS3_PNS_10Ray_StructEdPNS_10istk_entryEi(ptr noundef %0, ptr noundef %1, ptr noundef %2, ptr noundef %3, ptr noundef %4, double noundef %5, ptr noundef %6, i32 noundef %7) unnamed_addr #0 {
  %9 = alloca [3 x double], align 16
  %10 = alloca [5 x float], align 16
  %11 = alloca [5 x float], align 16
  %12 = alloca [5 x float], align 16
  %13 = alloca ptr, align 8
  %14 = alloca ptr, align 8
  %15 = alloca [5 x float], align 16
  %16 = alloca [3 x double], align 16
  %17 = alloca [2 x double], align 16
  %18 = getelementptr inbounds %"struct.pov::Texture_Struct", ptr %1, i64 0, i32 9
  %19 = load ptr, ptr %18, align 8, !tbaa !48
  call void @llvm.lifetime.start.p0(i64 8, ptr nonnull %13) #12
  call void @llvm.lifetime.start.p0(i64 8, ptr nonnull %14) #12
  call void @llvm.lifetime.start.p0(i64 20, ptr nonnull %15) #12
  call void @llvm.lifetime.start.p0(i64 24, ptr nonnull %16) #12
  call void @llvm.lifetime.start.p0(i64 16, ptr nonnull %17) #12
  %20 = load i32, ptr getelementptr inbounds (%"struct.pov::OPTIONS_STRUCT", ptr @_ZN3pov4optsE, i64 0, i32 29), align 8, !tbaa !50
  %21 = icmp sgt i32 %20, 310
  %22 = load i16, ptr %1, align 8, !tbaa !57
  br i1 %21, label %23, label %44

23:                                               ; preds = %8
  %24 = icmp ult i16 %22, 2
  br i1 %24, label %47, label %25

25:                                               ; preds = %23
  %26 = load i32, ptr @_ZN3pov18warpNormalTexturesE, align 4, !tbaa !9
  %27 = load i32, ptr @_ZN3pov28warpNormalTextureListMaxSizeE, align 4, !tbaa !9
  %28 = icmp slt i32 %26, %27
  %29 = load ptr, ptr @_ZN3pov21warpNormalTextureListE, align 8, !tbaa !5
  br i1 %28, label %37, label %30

30:                                               ; preds = %25
  %31 = shl nsw i32 %27, 1
  store i32 %31, ptr @_ZN3pov28warpNormalTextureListMaxSizeE, align 4, !tbaa !9
  %32 = sext i32 %31 to i64
  %33 = shl nsw i64 %32, 3
  %34 = tail call noundef ptr @_ZN3pov11pov_reallocEPvmPKciS2_(ptr noundef %29, i64 noundef %33, ptr noundef nonnull @.str, i32 noundef 3566, ptr noundef nonnull @.str.1)
  store ptr %34, ptr @_ZN3pov21warpNormalTextureListE, align 8, !tbaa !5
  %35 = load i32, ptr @_ZN3pov18warpNormalTexturesE, align 4, !tbaa !9
  %36 = load i16, ptr %1, align 8, !tbaa !57
  br label %37

37:                                               ; preds = %30, %25
  %38 = phi i16 [ %36, %30 ], [ %22, %25 ]
  %39 = phi i32 [ %35, %30 ], [ %26, %25 ]
  %40 = phi ptr [ %34, %30 ], [ %29, %25 ]
  %41 = add nsw i32 %39, 1
  store i32 %41, ptr @_ZN3pov18warpNormalTexturesE, align 4, !tbaa !9
  %42 = sext i32 %39 to i64
  %43 = getelementptr inbounds ptr, ptr %40, i64 %42
  store ptr %1, ptr %43, align 8, !tbaa !5
  br label %44

44:                                               ; preds = %37, %8
  %45 = phi i16 [ %38, %37 ], [ %22, %8 ]
  %46 = icmp ult i16 %45, 5
  br i1 %46, label %47, label %596

47:                                               ; preds = %23, %44
  %48 = phi i1 [ %21, %44 ], [ false, %23 ]
  %49 = phi i16 [ %45, %44 ], [ %22, %23 ]
  switch i16 %49, label %594 [
    i16 0, label %50
    i16 2, label %52
    i16 3, label %168
    i16 4, label %181
    i16 1, label %183
  ]

50:                                               ; preds = %47
  store <4 x float> <float 1.000000e+00, float 1.000000e+00, float 1.000000e+00, float 1.000000e+00>, ptr %0, align 4, !tbaa !34
  %51 = getelementptr inbounds float, ptr %0, i64 4
  store float 1.000000e+00, ptr %51, align 4, !tbaa !34
  br i1 %48, label %674, label %677

52:                                               ; preds = %47
  call void @_ZN3pov11Warp_EPointEPdS0_PNS_14Pattern_StructE(ptr noundef nonnull %16, ptr noundef %2, ptr noundef nonnull %1)
  %53 = load i32, ptr @_ZN3pov13backtraceFlagE, align 4, !tbaa !9
  %54 = icmp eq i32 %53, 0
  br i1 %54, label %130, label %55

55:                                               ; preds = %52
  call void @llvm.lifetime.start.p0(i64 20, ptr nonnull %12) #12
  %56 = load ptr, ptr %18, align 8, !tbaa !48
  %57 = getelementptr inbounds %"struct.pov::Blend_Map_Struct", ptr %56, i64 0, i32 1
  %58 = load i16, ptr %57, align 4, !tbaa !58
  %59 = icmp sgt i16 %58, 0
  br i1 %59, label %60, label %129

60:                                               ; preds = %55
  %61 = zext i16 %58 to i64
  %62 = getelementptr inbounds %"struct.pov::Blend_Map_Struct", ptr %56, i64 0, i32 4
  %63 = load ptr, ptr %62, align 8, !tbaa !60
  %64 = and i64 %61, 3
  %65 = icmp ult i16 %58, 4
  br i1 %65, label %68, label %66

66:                                               ; preds = %60
  %67 = and i64 %61, 65532
  br label %89

68:                                               ; preds = %89, %60
  %69 = phi float [ undef, %60 ], [ %107, %89 ]
  %70 = phi i64 [ 0, %60 ], [ %108, %89 ]
  %71 = phi float [ 0.000000e+00, %60 ], [ %107, %89 ]
  %72 = icmp eq i64 %64, 0
  br i1 %72, label %83, label %73

73:                                               ; preds = %68, %73
  %74 = phi i64 [ %80, %73 ], [ %70, %68 ]
  %75 = phi float [ %79, %73 ], [ %71, %68 ]
  %76 = phi i64 [ %81, %73 ], [ 0, %68 ]
  %77 = getelementptr inbounds %"struct.pov::Blend_Map_Entry", ptr %63, i64 %74
  %78 = load float, ptr %77, align 8, !tbaa !61
  %79 = fadd float %75, %78
  %80 = add nuw nsw i64 %74, 1
  %81 = add i64 %76, 1
  %82 = icmp eq i64 %81, %64
  br i1 %82, label %83, label %73, !llvm.loop !63

83:                                               ; preds = %73, %68
  %84 = phi float [ %69, %68 ], [ %79, %73 ]
  br i1 %59, label %85, label %129

85:                                               ; preds = %83
  %86 = getelementptr inbounds %"struct.pov::Blend_Map_Struct", ptr %56, i64 0, i32 4
  %87 = getelementptr inbounds float, ptr %0, i64 2
  %88 = getelementptr inbounds float, ptr %12, i64 2
  br label %111

89:                                               ; preds = %89, %66
  %90 = phi i64 [ 0, %66 ], [ %108, %89 ]
  %91 = phi float [ 0.000000e+00, %66 ], [ %107, %89 ]
  %92 = phi i64 [ 0, %66 ], [ %109, %89 ]
  %93 = getelementptr inbounds %"struct.pov::Blend_Map_Entry", ptr %63, i64 %90
  %94 = load float, ptr %93, align 8, !tbaa !61
  %95 = fadd float %91, %94
  %96 = or i64 %90, 1
  %97 = getelementptr inbounds %"struct.pov::Blend_Map_Entry", ptr %63, i64 %96
  %98 = load float, ptr %97, align 8, !tbaa !61
  %99 = fadd float %95, %98
  %100 = or i64 %90, 2
  %101 = getelementptr inbounds %"struct.pov::Blend_Map_Entry", ptr %63, i64 %100
  %102 = load float, ptr %101, align 8, !tbaa !61
  %103 = fadd float %99, %102
  %104 = or i64 %90, 3
  %105 = getelementptr inbounds %"struct.pov::Blend_Map_Entry", ptr %63, i64 %104
  %106 = load float, ptr %105, align 8, !tbaa !61
  %107 = fadd float %103, %106
  %108 = add nuw nsw i64 %90, 4
  %109 = add i64 %92, 4
  %110 = icmp eq i64 %109, %67
  br i1 %110, label %68, label %89

111:                                              ; preds = %85, %111
  %112 = phi i64 [ 0, %85 ], [ %125, %111 ]
  %113 = load ptr, ptr %86, align 8, !tbaa !60
  %114 = getelementptr inbounds %"struct.pov::Blend_Map_Entry", ptr %113, i64 %112
  %115 = load float, ptr %114, align 8, !tbaa !61
  %116 = fdiv float %115, %84
  %117 = load <2 x float>, ptr %0, align 4, !tbaa !34
  %118 = insertelement <2 x float> poison, float %116, i64 0
  %119 = shufflevector <2 x float> %118, <2 x float> poison, <2 x i32> zeroinitializer
  %120 = fmul <2 x float> %117, %119
  store <2 x float> %120, ptr %12, align 16, !tbaa !34
  %121 = load float, ptr %87, align 4, !tbaa !34
  %122 = fmul float %116, %121
  store float %122, ptr %88, align 8, !tbaa !34
  %123 = getelementptr inbounds %"struct.pov::Blend_Map_Entry", ptr %113, i64 %112, i32 2
  %124 = load ptr, ptr %123, align 8, !tbaa !64
  call fastcc void @_ZN3povL14do_texture_mapEPfPNS_14Texture_StructEPdS3_PNS_10Ray_StructEdPNS_10istk_entryEi(ptr noundef nonnull %12, ptr noundef %124, ptr noundef nonnull %16, ptr noundef %3, ptr noundef %4, double noundef %5, ptr noundef %6, i32 noundef %7)
  %125 = add nuw nsw i64 %112, 1
  %126 = load i16, ptr %57, align 4, !tbaa !58
  %127 = sext i16 %126 to i64
  %128 = icmp slt i64 %125, %127
  br i1 %128, label %111, label %129

129:                                              ; preds = %111, %55, %83
  call void @llvm.lifetime.end.p0(i64 20, ptr nonnull %12) #12
  br i1 %48, label %674, label %677

130:                                              ; preds = %52
  call void @llvm.lifetime.start.p0(i64 20, ptr nonnull %11) #12
  %131 = load ptr, ptr %18, align 8, !tbaa !48
  %132 = getelementptr inbounds float, ptr %0, i64 4
  %133 = getelementptr inbounds %"struct.pov::Blend_Map_Struct", ptr %131, i64 0, i32 1
  call void @llvm.memset.p0.i64(ptr noundef nonnull align 4 dereferenceable(20) %0, i8 0, i64 20, i1 false)
  %134 = load i16, ptr %133, align 4, !tbaa !58
  %135 = icmp sgt i16 %134, 0
  br i1 %135, label %136, label %160

136:                                              ; preds = %130
  %137 = getelementptr inbounds %"struct.pov::Blend_Map_Struct", ptr %131, i64 0, i32 4
  %138 = getelementptr inbounds [5 x float], ptr %11, i64 0, i64 4
  br label %139

139:                                              ; preds = %136, %139
  %140 = phi i64 [ 0, %136 ], [ %156, %139 ]
  %141 = phi float [ 0.000000e+00, %136 ], [ %155, %139 ]
  %142 = load ptr, ptr %137, align 8, !tbaa !60
  %143 = getelementptr inbounds %"struct.pov::Blend_Map_Entry", ptr %142, i64 %140
  %144 = load float, ptr %143, align 8, !tbaa !61
  %145 = getelementptr inbounds %"struct.pov::Blend_Map_Entry", ptr %142, i64 %140, i32 2
  %146 = load ptr, ptr %145, align 8, !tbaa !64
  call fastcc void @_ZN3povL14do_texture_mapEPfPNS_14Texture_StructEPdS3_PNS_10Ray_StructEdPNS_10istk_entryEi(ptr noundef nonnull %11, ptr noundef %146, ptr noundef nonnull %16, ptr noundef %3, ptr noundef %4, double noundef %5, ptr noundef %6, i32 noundef %7)
  %147 = load <4 x float>, ptr %11, align 16, !tbaa !34
  %148 = load <4 x float>, ptr %0, align 4, !tbaa !34
  %149 = insertelement <4 x float> poison, float %144, i64 0
  %150 = shufflevector <4 x float> %149, <4 x float> poison, <4 x i32> zeroinitializer
  %151 = call <4 x float> @llvm.fmuladd.v4f32(<4 x float> %147, <4 x float> %150, <4 x float> %148)
  store <4 x float> %151, ptr %0, align 4, !tbaa !34
  %152 = load float, ptr %138, align 16, !tbaa !34
  %153 = load float, ptr %132, align 4, !tbaa !34
  %154 = call float @llvm.fmuladd.f32(float %152, float %144, float %153)
  store float %154, ptr %132, align 4, !tbaa !34
  %155 = fadd float %141, %144
  %156 = add nuw nsw i64 %140, 1
  %157 = load i16, ptr %133, align 4, !tbaa !58
  %158 = sext i16 %157 to i64
  %159 = icmp slt i64 %156, %158
  br i1 %159, label %139, label %160

160:                                              ; preds = %139, %130
  %161 = phi float [ 0.000000e+00, %130 ], [ %154, %139 ]
  %162 = phi float [ 0.000000e+00, %130 ], [ %155, %139 ]
  %163 = phi <4 x float> [ zeroinitializer, %130 ], [ %151, %139 ]
  %164 = insertelement <4 x float> poison, float %162, i64 0
  %165 = shufflevector <4 x float> %164, <4 x float> poison, <4 x i32> zeroinitializer
  %166 = fdiv <4 x float> %163, %165
  store <4 x float> %166, ptr %0, align 4, !tbaa !34
  %167 = fdiv float %161, %162
  store float %167, ptr %132, align 4, !tbaa !34
  call void @llvm.lifetime.end.p0(i64 20, ptr nonnull %11) #12
  br i1 %48, label %674, label %677

168:                                              ; preds = %47
  %169 = getelementptr inbounds %"struct.pov::istk_entry", ptr %6, i64 0, i32 5
  %170 = load ptr, ptr %169, align 8, !tbaa !25
  %171 = load ptr, ptr %170, align 8, !tbaa !26
  %172 = getelementptr inbounds %"struct.pov::Method_Struct", ptr %171, i64 0, i32 3
  %173 = load ptr, ptr %172, align 8, !tbaa !33
  call void %173(ptr noundef nonnull %17, ptr noundef nonnull %170, ptr noundef %6)
  %174 = load <2 x double>, ptr %17, align 16, !tbaa !20
  store <2 x double> %174, ptr %16, align 16, !tbaa !20
  %175 = getelementptr inbounds [3 x double], ptr %16, i64 0, i64 2
  store double 0.000000e+00, ptr %175, align 16, !tbaa !20
  %176 = load ptr, ptr %18, align 8, !tbaa !48
  %177 = getelementptr inbounds %"struct.pov::Blend_Map_Struct", ptr %176, i64 0, i32 4
  %178 = load ptr, ptr %177, align 8, !tbaa !60
  %179 = getelementptr inbounds %"struct.pov::Blend_Map_Entry", ptr %178, i64 0, i32 2
  %180 = load ptr, ptr %179, align 8, !tbaa !64
  call fastcc void @_ZN3povL14do_texture_mapEPfPNS_14Texture_StructEPdS3_PNS_10Ray_StructEdPNS_10istk_entryEi(ptr noundef %0, ptr noundef %180, ptr noundef nonnull %16, ptr noundef %3, ptr noundef %4, double noundef %5, ptr noundef %6, i32 noundef %7)
  br i1 %48, label %674, label %677

181:                                              ; preds = %47
  call void @_ZN3pov11Warp_EPointEPdS0_PNS_14Pattern_StructE(ptr noundef nonnull %16, ptr noundef %2, ptr noundef nonnull %1)
  %182 = call noundef ptr @_ZN3pov12material_mapEPdPNS_14Texture_StructE(ptr noundef nonnull %16, ptr noundef nonnull %1)
  call fastcc void @_ZN3povL14do_texture_mapEPfPNS_14Texture_StructEPdS3_PNS_10Ray_StructEdPNS_10istk_entryEi(ptr noundef %0, ptr noundef %182, ptr noundef nonnull %16, ptr noundef %3, ptr noundef %4, double noundef %5, ptr noundef %6, i32 noundef %7)
  br i1 %48, label %674, label %677

183:                                              ; preds = %47
  %184 = load i32, ptr @_ZN3pov13backtraceFlagE, align 4, !tbaa !9
  %185 = icmp eq i32 %184, 0
  br i1 %185, label %187, label %186

186:                                              ; preds = %183
  tail call fastcc void @_ZN3povL25compute_backtrace_textureEPfPNS_14Texture_StructEPdS3_PNS_10Ray_StructEdPNS_10istk_entryE(ptr noundef %0, ptr noundef nonnull %1, ptr noundef %2, ptr noundef %3, ptr noundef %4, double noundef %5, ptr noundef %6)
  br i1 %48, label %674, label %677

187:                                              ; preds = %183
  %188 = icmp eq i32 %7, 0
  br i1 %188, label %593, label %189

189:                                              ; preds = %187
  call void @llvm.lifetime.start.p0(i64 24, ptr nonnull %9) #12
  call void @llvm.lifetime.start.p0(i64 20, ptr nonnull %10) #12
  %190 = getelementptr inbounds %"struct.pov::istk_entry", ptr %6, i64 0, i32 5
  %191 = load ptr, ptr %190, align 8, !tbaa !25
  %192 = getelementptr inbounds %"struct.pov::Object_Struct", ptr %191, i64 0, i32 5
  %193 = load ptr, ptr %192, align 8, !tbaa !65
  %194 = freeze ptr %193
  %195 = getelementptr inbounds float, ptr %0, i64 2
  %196 = getelementptr inbounds float, ptr %0, i64 3
  store <4 x float> <float 1.000000e+00, float 1.000000e+00, float 1.000000e+00, float 1.000000e+00>, ptr %0, align 4, !tbaa !34
  %197 = getelementptr inbounds float, ptr %0, i64 4
  store float 0.000000e+00, ptr %197, align 4, !tbaa !34
  %198 = getelementptr inbounds [5 x float], ptr %10, i64 0, i64 3
  %199 = getelementptr inbounds [5 x float], ptr %10, i64 0, i64 4
  %200 = getelementptr inbounds [5 x float], ptr %10, i64 0, i64 2
  %201 = icmp eq ptr %194, null
  %202 = getelementptr inbounds %"struct.pov::Interior_Struct", ptr %194, i64 0, i32 5
  %203 = getelementptr inbounds double, ptr %9, i64 1
  %204 = getelementptr inbounds double, ptr %3, i64 2
  %205 = getelementptr inbounds double, ptr %9, i64 2
  %206 = getelementptr inbounds %"struct.pov::Ray_Struct", ptr %4, i64 0, i32 1
  %207 = getelementptr inbounds %"struct.pov::Ray_Struct", ptr %4, i64 0, i32 1, i64 1
  %208 = getelementptr inbounds %"struct.pov::Ray_Struct", ptr %4, i64 0, i32 1, i64 2
  br i1 %201, label %209, label %243

209:                                              ; preds = %189, %239
  %210 = phi ptr [ %241, %239 ], [ %1, %189 ]
  %211 = load <2 x float>, ptr %196, align 4, !tbaa !34
  %212 = call <2 x float> @llvm.fabs.v2f32(<2 x float> %211)
  %213 = shufflevector <2 x float> %212, <2 x float> poison, <2 x i32> <i32 1, i32 poison>
  %214 = fadd <2 x float> %212, %213
  %215 = extractelement <2 x float> %214, i64 0
  %216 = fpext float %215 to double
  %217 = load double, ptr @_ZN3pov11ADC_BailoutE, align 8, !tbaa !20
  %218 = fcmp olt double %217, %216
  br i1 %218, label %219, label %374

219:                                              ; preds = %209
  %220 = getelementptr inbounds %"struct.pov::Texture_Struct", ptr %210, i64 0, i32 12
  %221 = load ptr, ptr %220, align 8, !tbaa !66
  %222 = call noundef i32 @_ZN3pov15Compute_PigmentEPfPNS_14Pigment_StructEPdPNS_10istk_entryE(ptr noundef nonnull %10, ptr noundef %221, ptr noundef %2, ptr noundef %6)
  %223 = icmp eq i32 %222, 0
  br i1 %223, label %239, label %224

224:                                              ; preds = %219
  %225 = load float, ptr %198, align 4, !tbaa !34
  %226 = load float, ptr %199, align 16, !tbaa !34
  %227 = load <2 x float>, ptr %10, align 16, !tbaa !34
  %228 = insertelement <2 x float> poison, float %225, i64 0
  %229 = shufflevector <2 x float> %228, <2 x float> poison, <2 x i32> zeroinitializer
  %230 = insertelement <2 x float> poison, float %226, i64 0
  %231 = shufflevector <2 x float> %230, <2 x float> poison, <2 x i32> zeroinitializer
  %232 = call <2 x float> @llvm.fmuladd.v2f32(<2 x float> %227, <2 x float> %229, <2 x float> %231)
  %233 = load <2 x float>, ptr %0, align 4, !tbaa !34
  %234 = fmul <2 x float> %233, %232
  store <2 x float> %234, ptr %0, align 4, !tbaa !34
  %235 = load float, ptr %200, align 8, !tbaa !34
  %236 = call float @llvm.fmuladd.f32(float %235, float %225, float %226)
  %237 = load float, ptr %195, align 4, !tbaa !34
  %238 = fmul float %237, %236
  store float %238, ptr %195, align 4, !tbaa !34
  br label %239

239:                                              ; preds = %224, %219
  %240 = getelementptr inbounds %"struct.pov::Texture_Struct", ptr %210, i64 0, i32 8
  %241 = load ptr, ptr %240, align 8, !tbaa !67
  %242 = icmp eq ptr %241, null
  br i1 %242, label %374, label %209

243:                                              ; preds = %189, %370
  %244 = phi ptr [ %372, %370 ], [ %1, %189 ]
  %245 = load <2 x float>, ptr %196, align 4, !tbaa !34
  %246 = call <2 x float> @llvm.fabs.v2f32(<2 x float> %245)
  %247 = shufflevector <2 x float> %246, <2 x float> poison, <2 x i32> <i32 1, i32 poison>
  %248 = fadd <2 x float> %246, %247
  %249 = extractelement <2 x float> %248, i64 0
  %250 = fpext float %249 to double
  %251 = load double, ptr @_ZN3pov11ADC_BailoutE, align 8, !tbaa !20
  %252 = fcmp olt double %251, %250
  br i1 %252, label %253, label %374

253:                                              ; preds = %243
  %254 = getelementptr inbounds %"struct.pov::Texture_Struct", ptr %244, i64 0, i32 12
  %255 = load ptr, ptr %254, align 8, !tbaa !66
  %256 = call noundef i32 @_ZN3pov15Compute_PigmentEPfPNS_14Pigment_StructEPdPNS_10istk_entryE(ptr noundef nonnull %10, ptr noundef %255, ptr noundef %2, ptr noundef %6)
  %257 = icmp eq i32 %256, 0
  br i1 %257, label %273, label %258

258:                                              ; preds = %253
  %259 = load float, ptr %198, align 4, !tbaa !34
  %260 = load float, ptr %199, align 16, !tbaa !34
  %261 = load <2 x float>, ptr %10, align 16, !tbaa !34
  %262 = insertelement <2 x float> poison, float %259, i64 0
  %263 = shufflevector <2 x float> %262, <2 x float> poison, <2 x i32> zeroinitializer
  %264 = insertelement <2 x float> poison, float %260, i64 0
  %265 = shufflevector <2 x float> %264, <2 x float> poison, <2 x i32> zeroinitializer
  %266 = call <2 x float> @llvm.fmuladd.v2f32(<2 x float> %261, <2 x float> %263, <2 x float> %265)
  %267 = load <2 x float>, ptr %0, align 4, !tbaa !34
  %268 = fmul <2 x float> %267, %266
  store <2 x float> %268, ptr %0, align 4, !tbaa !34
  %269 = load float, ptr %200, align 8, !tbaa !34
  %270 = call float @llvm.fmuladd.f32(float %269, float %259, float %260)
  %271 = load float, ptr %195, align 4, !tbaa !34
  %272 = fmul float %271, %270
  store float %272, ptr %195, align 4, !tbaa !34
  br label %273

273:                                              ; preds = %258, %253
  %274 = load float, ptr %202, align 4, !tbaa !68
  %275 = fpext float %274 to double
  %276 = fcmp une float %274, 0.000000e+00
  br i1 %276, label %277, label %370

277:                                              ; preds = %273
  %278 = load <2 x double>, ptr %3, align 8, !tbaa !20
  store <2 x double> %278, ptr %9, align 16, !tbaa !20
  %279 = load double, ptr %204, align 8, !tbaa !20
  store double %279, ptr %205, align 16, !tbaa !20
  %280 = load i32, ptr getelementptr inbounds (%"struct.pov::OPTIONS_STRUCT", ptr @_ZN3pov4optsE, i64 0, i32 13), align 8, !tbaa !70
  %281 = and i32 %280, 64
  %282 = icmp eq i32 %281, 0
  br i1 %282, label %347, label %283

283:                                              ; preds = %277
  %284 = getelementptr inbounds %"struct.pov::Texture_Struct", ptr %244, i64 0, i32 13
  %285 = load ptr, ptr %284, align 8, !tbaa !71
  %286 = icmp eq ptr %285, null
  br i1 %286, label %347, label %287

287:                                              ; preds = %283
  %288 = load i32, ptr getelementptr inbounds (%"struct.pov::OPTIONS_STRUCT", ptr @_ZN3pov4optsE, i64 0, i32 29), align 8, !tbaa !50
  %289 = icmp sgt i32 %288, 310
  br i1 %289, label %290, label %346

290:                                              ; preds = %287
  %291 = load i32, ptr @_ZN3pov18warpNormalTexturesE, align 4, !tbaa !9
  %292 = icmp sgt i32 %291, 0
  br i1 %292, label %293, label %308

293:                                              ; preds = %290, %293
  %294 = phi i64 [ %302, %293 ], [ 0, %290 ]
  %295 = load ptr, ptr @_ZN3pov21warpNormalTextureListE, align 8, !tbaa !5
  %296 = getelementptr inbounds ptr, ptr %295, i64 %294
  %297 = load ptr, ptr %296, align 8, !tbaa !5
  %298 = getelementptr inbounds %"struct.pov::Texture_Struct", ptr %297, i64 0, i32 2
  %299 = load i16, ptr %298, align 4, !tbaa !72
  %300 = and i16 %299, 8
  %301 = zext i16 %300 to i32
  call void @_ZN3pov11Warp_NormalEPdS0_PNS_14Pattern_StructEi(ptr noundef nonnull %9, ptr noundef nonnull %9, ptr noundef %297, i32 noundef %301)
  %302 = add nuw nsw i64 %294, 1
  %303 = load i32, ptr @_ZN3pov18warpNormalTexturesE, align 4, !tbaa !9
  %304 = sext i32 %303 to i64
  %305 = icmp slt i64 %302, %304
  br i1 %305, label %293, label %306

306:                                              ; preds = %293
  %307 = load ptr, ptr %284, align 8, !tbaa !71
  br label %308

308:                                              ; preds = %306, %290
  %309 = phi ptr [ %307, %306 ], [ %285, %290 ]
  call void @_ZN3pov14Perturb_NormalEPdPNS_14Tnormal_StructES0_PNS_10istk_entryE(ptr noundef nonnull %9, ptr noundef %309, ptr noundef %2, ptr noundef %6)
  %310 = load ptr, ptr %284, align 8, !tbaa !71
  %311 = getelementptr inbounds %"struct.pov::Tnormal_Struct", ptr %310, i64 0, i32 2
  %312 = load i16, ptr %311, align 4, !tbaa !73
  %313 = and i16 %312, 8
  %314 = icmp eq i16 %313, 0
  br i1 %314, label %329, label %315

315:                                              ; preds = %308
  %316 = load double, ptr %205, align 16, !tbaa !20
  %317 = load <2 x double>, ptr %9, align 16, !tbaa !20
  %318 = fmul <2 x double> %317, %317
  %319 = extractelement <2 x double> %318, i64 1
  %320 = extractelement <2 x double> %317, i64 0
  %321 = call double @llvm.fmuladd.f64(double %320, double %320, double %319)
  %322 = call double @llvm.fmuladd.f64(double %316, double %316, double %321)
  %323 = call double @llvm.sqrt.f64(double %322)
  %324 = fdiv double 1.000000e+00, %323
  %325 = insertelement <2 x double> poison, double %324, i64 0
  %326 = shufflevector <2 x double> %325, <2 x double> poison, <2 x i32> zeroinitializer
  %327 = fmul <2 x double> %317, %326
  store <2 x double> %327, ptr %9, align 16, !tbaa !20
  %328 = fmul double %316, %324
  store double %328, ptr %205, align 16, !tbaa !20
  br label %329

329:                                              ; preds = %315, %308
  %330 = load i32, ptr @_ZN3pov18warpNormalTexturesE, align 4, !tbaa !9
  %331 = icmp sgt i32 %330, 0
  br i1 %331, label %332, label %347

332:                                              ; preds = %329
  %333 = zext i32 %330 to i64
  br label %334

334:                                              ; preds = %334, %332
  %335 = phi i64 [ %333, %332 ], [ %336, %334 ]
  %336 = add nsw i64 %335, -1
  %337 = load ptr, ptr @_ZN3pov21warpNormalTextureListE, align 8, !tbaa !5
  %338 = and i64 %336, 4294967295
  %339 = getelementptr inbounds ptr, ptr %337, i64 %338
  %340 = load ptr, ptr %339, align 8, !tbaa !5
  %341 = getelementptr inbounds %"struct.pov::Texture_Struct", ptr %340, i64 0, i32 2
  %342 = load i16, ptr %341, align 4, !tbaa !72
  %343 = and i16 %342, 8
  %344 = zext i16 %343 to i32
  call void @_ZN3pov13UnWarp_NormalEPdS0_PNS_14Pattern_StructEi(ptr noundef nonnull %9, ptr noundef nonnull %9, ptr noundef %340, i32 noundef %344)
  %345 = icmp ugt i64 %335, 1
  br i1 %345, label %334, label %347

346:                                              ; preds = %287
  call void @_ZN3pov14Perturb_NormalEPdPNS_14Tnormal_StructES0_PNS_10istk_entryE(ptr noundef nonnull %9, ptr noundef nonnull %285, ptr noundef %2, ptr noundef %6)
  br label %347

347:                                              ; preds = %334, %346, %329, %283, %277
  %348 = load double, ptr %9, align 16, !tbaa !20
  %349 = load double, ptr %206, align 8, !tbaa !20
  %350 = load double, ptr %203, align 8, !tbaa !20
  %351 = load double, ptr %207, align 8, !tbaa !20
  %352 = fmul double %350, %351
  %353 = call double @llvm.fmuladd.f64(double %348, double %349, double %352)
  %354 = load double, ptr %205, align 16, !tbaa !20
  %355 = load double, ptr %208, align 8, !tbaa !20
  %356 = call double @llvm.fmuladd.f64(double %354, double %355, double %353)
  %357 = call double @llvm.fabs.f64(double %356)
  %358 = call double @pow(double noundef %357, double noundef %275) #12
  %359 = fadd double %358, 1.000000e+00
  %360 = load <2 x float>, ptr %0, align 4, !tbaa !34
  %361 = fpext <2 x float> %360 to <2 x double>
  %362 = insertelement <2 x double> poison, double %359, i64 0
  %363 = shufflevector <2 x double> %362, <2 x double> poison, <2 x i32> zeroinitializer
  %364 = fmul <2 x double> %363, %361
  %365 = fptrunc <2 x double> %364 to <2 x float>
  store <2 x float> %365, ptr %0, align 4, !tbaa !34
  %366 = load float, ptr %195, align 4, !tbaa !34
  %367 = fpext float %366 to double
  %368 = fmul double %359, %367
  %369 = fptrunc double %368 to float
  store float %369, ptr %195, align 4, !tbaa !34
  br label %370

370:                                              ; preds = %347, %273
  %371 = getelementptr inbounds %"struct.pov::Texture_Struct", ptr %244, i64 0, i32 8
  %372 = load ptr, ptr %371, align 8, !tbaa !67
  %373 = icmp eq ptr %372, null
  br i1 %373, label %374, label %243

374:                                              ; preds = %370, %243, %239, %209
  br i1 %201, label %452, label %375

375:                                              ; preds = %374
  %376 = call noundef i32 @_ZN3pov25Interior_In_Ray_ContainerEPNS_10Ray_StructEPNS_15Interior_StructE(ptr noundef %4, ptr noundef nonnull %194)
  %377 = icmp sgt i32 %376, -1
  br i1 %377, label %378, label %452

378:                                              ; preds = %375
  %379 = getelementptr inbounds %"struct.pov::Interior_Struct", ptr %194, i64 0, i32 8
  %380 = load float, ptr %379, align 8, !tbaa !75
  %381 = fcmp ogt float %380, 0.000000e+00
  br i1 %381, label %382, label %452

382:                                              ; preds = %378
  %383 = getelementptr inbounds %"struct.pov::Interior_Struct", ptr %194, i64 0, i32 7
  %384 = load float, ptr %383, align 4, !tbaa !76
  %385 = call float @llvm.fabs.f32(float %384)
  %386 = fpext float %385 to double
  %387 = fcmp ogt double %386, 0x3E7AD7F29ABCAF48
  br i1 %387, label %388, label %452

388:                                              ; preds = %382
  %389 = fcmp ult float %380, 1.000000e+03
  br i1 %389, label %427, label %390

390:                                              ; preds = %388
  %391 = getelementptr inbounds %"struct.pov::Interior_Struct", ptr %194, i64 0, i32 9
  %392 = load float, ptr %391, align 4, !tbaa !34
  %393 = fpext float %392 to double
  %394 = fsub double 1.000000e+00, %393
  %395 = fneg double %394
  %396 = load double, ptr %6, align 8, !tbaa !18
  %397 = fmul double %396, %395
  %398 = fpext float %384 to double
  %399 = fdiv double %397, %398
  %400 = call double @exp(double noundef %399) #12
  %401 = getelementptr inbounds %"struct.pov::Interior_Struct", ptr %194, i64 0, i32 9, i64 1
  %402 = load float, ptr %401, align 4, !tbaa !34
  %403 = fpext float %402 to double
  %404 = fsub double 1.000000e+00, %403
  %405 = fneg double %404
  %406 = load double, ptr %6, align 8, !tbaa !18
  %407 = fmul double %406, %405
  %408 = load float, ptr %383, align 4, !tbaa !76
  %409 = fpext float %408 to double
  %410 = fdiv double %407, %409
  %411 = call double @exp(double noundef %410) #12
  %412 = insertelement <2 x double> poison, double %400, i64 0
  %413 = insertelement <2 x double> %412, double %411, i64 1
  %414 = fptrunc <2 x double> %413 to <2 x float>
  %415 = getelementptr inbounds %"struct.pov::Interior_Struct", ptr %194, i64 0, i32 9, i64 2
  %416 = load float, ptr %415, align 4, !tbaa !34
  %417 = fpext float %416 to double
  %418 = fsub double 1.000000e+00, %417
  %419 = fneg double %418
  %420 = load double, ptr %6, align 8, !tbaa !18
  %421 = fmul double %420, %419
  %422 = load float, ptr %383, align 4, !tbaa !76
  %423 = fpext float %422 to double
  %424 = fdiv double %421, %423
  %425 = call double @exp(double noundef %424) #12
  %426 = fptrunc double %425 to float
  br label %452

427:                                              ; preds = %388
  %428 = load double, ptr %6, align 8, !tbaa !18
  %429 = fpext float %384 to double
  %430 = fdiv double %428, %429
  %431 = fpext float %380 to double
  %432 = call double @pow(double noundef %430, double noundef %431) #12
  %433 = fadd double %432, 1.000000e+00
  %434 = getelementptr inbounds %"struct.pov::Interior_Struct", ptr %194, i64 0, i32 9
  %435 = load <2 x float>, ptr %434, align 4, !tbaa !34
  %436 = fpext <2 x float> %435 to <2 x double>
  %437 = fsub <2 x float> <float 1.000000e+00, float 1.000000e+00>, %435
  %438 = fpext <2 x float> %437 to <2 x double>
  %439 = insertelement <2 x double> poison, double %433, i64 0
  %440 = shufflevector <2 x double> %439, <2 x double> poison, <2 x i32> zeroinitializer
  %441 = fdiv <2 x double> %438, %440
  %442 = fadd <2 x double> %441, %436
  %443 = fptrunc <2 x double> %442 to <2 x float>
  %444 = getelementptr inbounds %"struct.pov::Interior_Struct", ptr %194, i64 0, i32 9, i64 2
  %445 = load float, ptr %444, align 4, !tbaa !34
  %446 = fpext float %445 to double
  %447 = fsub float 1.000000e+00, %445
  %448 = fpext float %447 to double
  %449 = fdiv double %448, %433
  %450 = fadd double %449, %446
  %451 = fptrunc double %450 to float
  br label %452

452:                                              ; preds = %427, %390, %382, %378, %375, %374
  %453 = phi float [ %451, %427 ], [ %426, %390 ], [ 1.000000e+00, %382 ], [ 1.000000e+00, %378 ], [ 1.000000e+00, %375 ], [ 1.000000e+00, %374 ]
  %454 = phi <2 x float> [ %443, %427 ], [ %414, %390 ], [ <float 1.000000e+00, float 1.000000e+00>, %382 ], [ <float 1.000000e+00, float 1.000000e+00>, %378 ], [ <float 1.000000e+00, float 1.000000e+00>, %375 ], [ <float 1.000000e+00, float 1.000000e+00>, %374 ]
  %455 = load <2 x float>, ptr %0, align 4, !tbaa !34
  %456 = fmul <2 x float> %454, %455
  store <2 x float> %456, ptr %0, align 4, !tbaa !34
  %457 = load float, ptr %195, align 4, !tbaa !34
  %458 = fmul float %453, %457
  store float %458, ptr %195, align 4, !tbaa !34
  %459 = load i32, ptr getelementptr inbounds (%"struct.pov::OPTIONS_STRUCT", ptr @_ZN3pov4optsE, i64 0, i32 13), align 8, !tbaa !70
  %460 = and i32 %459, 128
  %461 = icmp eq i32 %460, 0
  br i1 %461, label %592, label %462

462:                                              ; preds = %452
  %463 = getelementptr inbounds %"struct.pov::Ray_Struct", ptr %4, i64 0, i32 2
  %464 = load i32, ptr %463, align 8, !tbaa !77
  %465 = icmp sgt i32 %464, -1
  br i1 %465, label %466, label %592

466:                                              ; preds = %462
  %467 = add nuw i32 %464, 1
  %468 = zext i32 %467 to i64
  br label %472

469:                                              ; preds = %472
  %470 = add nuw nsw i64 %473, 1
  %471 = icmp eq i64 %470, %468
  br i1 %471, label %479, label %472

472:                                              ; preds = %469, %466
  %473 = phi i64 [ 0, %466 ], [ %470, %469 ]
  %474 = getelementptr inbounds %"struct.pov::Ray_Struct", ptr %4, i64 0, i32 4, i64 %473
  %475 = load ptr, ptr %474, align 8, !tbaa !5
  %476 = getelementptr inbounds %"struct.pov::Interior_Struct", ptr %475, i64 0, i32 1
  %477 = load i32, ptr %476, align 4, !tbaa !79
  %478 = icmp eq i32 %477, 0
  br i1 %478, label %592, label %469

479:                                              ; preds = %469
  %480 = load i64, ptr @_ZN3pov20ShadowMediaListIndexE, align 8, !tbaa !14
  %481 = add nsw i64 %480, 1
  store i64 %481, ptr @_ZN3pov20ShadowMediaListIndexE, align 8, !tbaa !14
  %482 = load i64, ptr @_ZN3pov17MaxMediaPoolDepthE, align 8, !tbaa !14
  %483 = icmp slt i64 %481, %482
  br i1 %483, label %488, label %484

484:                                              ; preds = %479
  %485 = shl nsw i64 %482, 1
  call void @_ZN3pov22ResizeMediaMallocPoolsEl(i64 noundef %485)
  %486 = load i32, ptr %463, align 8, !tbaa !77
  %487 = load i64, ptr @_ZN3pov20ShadowMediaListIndexE, align 8, !tbaa !14
  br label %488

488:                                              ; preds = %484, %479
  %489 = phi i64 [ %487, %484 ], [ %481, %479 ]
  %490 = phi i32 [ %486, %484 ], [ %464, %479 ]
  %491 = add nsw i32 %490, 2
  %492 = sext i32 %491 to i64
  %493 = load ptr, ptr @_ZN3pov23ShadowMediaListPoolSizeE, align 8, !tbaa !5
  %494 = getelementptr inbounds i64, ptr %493, i64 %489
  %495 = load i64, ptr %494, align 8, !tbaa !14
  %496 = icmp sgt i64 %495, %492
  br i1 %496, label %518, label %497

497:                                              ; preds = %488
  %498 = load ptr, ptr @_ZN3pov19ShadowMediaListPoolE, align 8, !tbaa !5
  %499 = getelementptr inbounds ptr, ptr %498, i64 %489
  %500 = load ptr, ptr %499, align 8, !tbaa !5
  call void @_ZN3pov8pov_freeEPvPKci(ptr noundef %500, ptr noundef nonnull @.str, i32 noundef 4408)
  %501 = load ptr, ptr @_ZN3pov19ShadowMediaListPoolE, align 8, !tbaa !5
  %502 = load i64, ptr @_ZN3pov20ShadowMediaListIndexE, align 8, !tbaa !14
  %503 = getelementptr inbounds ptr, ptr %501, i64 %502
  store ptr null, ptr %503, align 8, !tbaa !5
  %504 = load i32, ptr %463, align 8, !tbaa !77
  %505 = add nsw i32 %504, 2
  %506 = sext i32 %505 to i64
  %507 = shl nsw i64 %506, 3
  %508 = call noundef ptr @_ZN3pov10pov_mallocEmPKciS1_(i64 noundef %507, ptr noundef nonnull @.str, i32 noundef 4409, ptr noundef nonnull @.str.3)
  %509 = load ptr, ptr @_ZN3pov19ShadowMediaListPoolE, align 8, !tbaa !5
  %510 = load i64, ptr @_ZN3pov20ShadowMediaListIndexE, align 8, !tbaa !14
  %511 = getelementptr inbounds ptr, ptr %509, i64 %510
  store ptr %508, ptr %511, align 8, !tbaa !5
  %512 = load i32, ptr %463, align 8, !tbaa !77
  %513 = add nsw i32 %512, 2
  %514 = sext i32 %513 to i64
  %515 = load ptr, ptr @_ZN3pov23ShadowMediaListPoolSizeE, align 8, !tbaa !5
  %516 = getelementptr inbounds i64, ptr %515, i64 %510
  store i64 %514, ptr %516, align 8, !tbaa !14
  %517 = load i64, ptr @_ZN3pov20ShadowMediaListIndexE, align 8, !tbaa !14
  br label %518

518:                                              ; preds = %497, %488
  %519 = phi i32 [ %512, %497 ], [ %490, %488 ]
  %520 = phi i64 [ %517, %497 ], [ %489, %488 ]
  %521 = load ptr, ptr @_ZN3pov19ShadowMediaListPoolE, align 8, !tbaa !5
  %522 = getelementptr inbounds ptr, ptr %521, i64 %520
  %523 = load ptr, ptr %522, align 8, !tbaa !5
  %524 = icmp slt i32 %519, 0
  br i1 %524, label %583, label %525

525:                                              ; preds = %518
  %526 = add nuw i32 %519, 1
  %527 = zext i32 %526 to i64
  %528 = and i64 %527, 1
  %529 = icmp eq i32 %519, 0
  br i1 %529, label %566, label %530

530:                                              ; preds = %525
  %531 = and i64 %527, 4294967294
  br label %532

532:                                              ; preds = %561, %530
  %533 = phi i64 [ 0, %530 ], [ %563, %561 ]
  %534 = phi ptr [ %523, %530 ], [ %562, %561 ]
  %535 = phi i64 [ 0, %530 ], [ %564, %561 ]
  %536 = getelementptr inbounds %"struct.pov::Ray_Struct", ptr %4, i64 0, i32 4, i64 %533
  %537 = load ptr, ptr %536, align 8, !tbaa !5
  %538 = getelementptr inbounds %"struct.pov::Interior_Struct", ptr %537, i64 0, i32 1
  %539 = load i32, ptr %538, align 4, !tbaa !79
  %540 = icmp eq i32 %539, 0
  br i1 %540, label %547, label %541

541:                                              ; preds = %532
  %542 = getelementptr inbounds %"struct.pov::Interior_Struct", ptr %537, i64 0, i32 10
  %543 = load ptr, ptr %542, align 8, !tbaa !80
  %544 = icmp eq ptr %543, null
  br i1 %544, label %547, label %545

545:                                              ; preds = %541
  store ptr %543, ptr %534, align 8, !tbaa !5
  %546 = getelementptr inbounds ptr, ptr %534, i64 1
  br label %547

547:                                              ; preds = %545, %541, %532
  %548 = phi ptr [ %546, %545 ], [ %534, %541 ], [ %534, %532 ]
  %549 = or i64 %533, 1
  %550 = getelementptr inbounds %"struct.pov::Ray_Struct", ptr %4, i64 0, i32 4, i64 %549
  %551 = load ptr, ptr %550, align 8, !tbaa !5
  %552 = getelementptr inbounds %"struct.pov::Interior_Struct", ptr %551, i64 0, i32 1
  %553 = load i32, ptr %552, align 4, !tbaa !79
  %554 = icmp eq i32 %553, 0
  br i1 %554, label %561, label %555

555:                                              ; preds = %547
  %556 = getelementptr inbounds %"struct.pov::Interior_Struct", ptr %551, i64 0, i32 10
  %557 = load ptr, ptr %556, align 8, !tbaa !80
  %558 = icmp eq ptr %557, null
  br i1 %558, label %561, label %559

559:                                              ; preds = %555
  store ptr %557, ptr %548, align 8, !tbaa !5
  %560 = getelementptr inbounds ptr, ptr %548, i64 1
  br label %561

561:                                              ; preds = %559, %555, %547
  %562 = phi ptr [ %560, %559 ], [ %548, %555 ], [ %548, %547 ]
  %563 = add nuw nsw i64 %533, 2
  %564 = add i64 %535, 2
  %565 = icmp eq i64 %564, %531
  br i1 %565, label %566, label %532

566:                                              ; preds = %561, %525
  %567 = phi ptr [ undef, %525 ], [ %562, %561 ]
  %568 = phi i64 [ 0, %525 ], [ %563, %561 ]
  %569 = phi ptr [ %523, %525 ], [ %562, %561 ]
  %570 = icmp eq i64 %528, 0
  br i1 %570, label %583, label %571

571:                                              ; preds = %566
  %572 = getelementptr inbounds %"struct.pov::Ray_Struct", ptr %4, i64 0, i32 4, i64 %568
  %573 = load ptr, ptr %572, align 8, !tbaa !5
  %574 = getelementptr inbounds %"struct.pov::Interior_Struct", ptr %573, i64 0, i32 1
  %575 = load i32, ptr %574, align 4, !tbaa !79
  %576 = icmp eq i32 %575, 0
  br i1 %576, label %583, label %577

577:                                              ; preds = %571
  %578 = getelementptr inbounds %"struct.pov::Interior_Struct", ptr %573, i64 0, i32 10
  %579 = load ptr, ptr %578, align 8, !tbaa !80
  %580 = icmp eq ptr %579, null
  br i1 %580, label %583, label %581

581:                                              ; preds = %577
  store ptr %579, ptr %569, align 8, !tbaa !5
  %582 = getelementptr inbounds ptr, ptr %569, i64 1
  br label %583

583:                                              ; preds = %566, %581, %577, %571, %518
  %584 = phi ptr [ %523, %518 ], [ %567, %566 ], [ %582, %581 ], [ %569, %577 ], [ %569, %571 ]
  store ptr null, ptr %584, align 8, !tbaa !5
  %585 = load ptr, ptr %523, align 8, !tbaa !5
  %586 = icmp eq ptr %585, null
  br i1 %586, label %589, label %587

587:                                              ; preds = %583
  call void @_ZN3pov14Simulate_MediaEPPNS_12Media_StructEPNS_10Ray_StructEPNS_10istk_entryEPfi(ptr noundef nonnull %523, ptr noundef nonnull %4, ptr noundef %6, ptr noundef nonnull %0, i32 noundef 1)
  %588 = load i64, ptr @_ZN3pov20ShadowMediaListIndexE, align 8, !tbaa !14
  br label %589

589:                                              ; preds = %587, %583
  %590 = phi i64 [ %588, %587 ], [ %520, %583 ]
  %591 = add nsw i64 %590, -1
  store i64 %591, ptr @_ZN3pov20ShadowMediaListIndexE, align 8, !tbaa !14
  br label %592

592:                                              ; preds = %472, %452, %462, %589
  call void @llvm.lifetime.end.p0(i64 20, ptr nonnull %10) #12
  call void @llvm.lifetime.end.p0(i64 24, ptr nonnull %9) #12
  br i1 %48, label %674, label %677

593:                                              ; preds = %187
  tail call fastcc void @_ZN3povL23compute_lighted_textureEPfPNS_14Texture_StructEPdS3_PNS_10Ray_StructEdPNS_10istk_entryE(ptr noundef %0, ptr noundef nonnull %1, ptr noundef %2, ptr noundef %3, ptr noundef %4, double noundef %5, ptr noundef %6)
  br i1 %48, label %674, label %677

594:                                              ; preds = %47
  %595 = tail call noundef i32 (ptr, ...) @_ZN3pov5ErrorEPKcz(ptr noundef nonnull @.str.9)
  br i1 %48, label %674, label %677

596:                                              ; preds = %44
  call void @_ZN3pov11Warp_EPointEPdS0_PNS_14Pattern_StructE(ptr noundef nonnull %16, ptr noundef %2, ptr noundef nonnull %1)
  %597 = call noundef double @_ZN3pov13Evaluate_TPatEPNS_14Pattern_StructEPdPNS_10istk_entryE(ptr noundef nonnull %1, ptr noundef nonnull %16, ptr noundef %6)
  call void @_ZN3pov16Search_Blend_MapEdPNS_16Blend_Map_StructEPPNS_15Blend_Map_EntryES4_(double noundef %597, ptr noundef %19, ptr noundef nonnull %13, ptr noundef nonnull %14)
  call void @_ZN3pov11Warp_EPointEPdS0_PNS_14Pattern_StructE(ptr noundef nonnull %16, ptr noundef %2, ptr noundef nonnull %1)
  %598 = load i32, ptr @_ZN3pov13backtraceFlagE, align 4, !tbaa !9
  %599 = icmp eq i32 %598, 0
  br i1 %599, label %637, label %600

600:                                              ; preds = %596
  %601 = load ptr, ptr %13, align 8, !tbaa !5
  %602 = load ptr, ptr %14, align 8, !tbaa !5
  %603 = icmp eq ptr %601, %602
  br i1 %603, label %604, label %607

604:                                              ; preds = %600
  %605 = getelementptr inbounds %"struct.pov::Blend_Map_Entry", ptr %601, i64 0, i32 2
  %606 = load ptr, ptr %605, align 8, !tbaa !64
  call fastcc void @_ZN3povL14do_texture_mapEPfPNS_14Texture_StructEPdS3_PNS_10Ray_StructEdPNS_10istk_entryEi(ptr noundef %0, ptr noundef %606, ptr noundef nonnull %16, ptr noundef %3, ptr noundef %4, double noundef %5, ptr noundef %6, i32 noundef %7)
  br i1 %21, label %674, label %677

607:                                              ; preds = %600
  %608 = load float, ptr %601, align 8, !tbaa !61
  %609 = fpext float %608 to double
  %610 = fsub double %597, %609
  %611 = load float, ptr %602, align 8, !tbaa !61
  %612 = fsub float %611, %608
  %613 = fpext float %612 to double
  %614 = fdiv double %610, %613
  %615 = fsub double 1.000000e+00, %614
  %616 = fptrunc double %614 to float
  %617 = load <2 x float>, ptr %0, align 4, !tbaa !34
  %618 = insertelement <2 x float> poison, float %616, i64 0
  %619 = shufflevector <2 x float> %618, <2 x float> poison, <2 x i32> zeroinitializer
  %620 = fmul <2 x float> %617, %619
  store <2 x float> %620, ptr %15, align 16, !tbaa !34
  %621 = getelementptr inbounds float, ptr %0, i64 2
  %622 = load float, ptr %621, align 4, !tbaa !34
  %623 = fmul float %622, %616
  %624 = getelementptr inbounds float, ptr %15, i64 2
  store float %623, ptr %624, align 8, !tbaa !34
  %625 = getelementptr inbounds %"struct.pov::Blend_Map_Entry", ptr %602, i64 0, i32 2
  %626 = load ptr, ptr %625, align 8, !tbaa !64
  call fastcc void @_ZN3povL14do_texture_mapEPfPNS_14Texture_StructEPdS3_PNS_10Ray_StructEdPNS_10istk_entryEi(ptr noundef nonnull %15, ptr noundef %626, ptr noundef nonnull %16, ptr noundef %3, ptr noundef %4, double noundef %5, ptr noundef %6, i32 noundef %7)
  %627 = fptrunc double %615 to float
  %628 = load <2 x float>, ptr %0, align 4, !tbaa !34
  %629 = insertelement <2 x float> poison, float %627, i64 0
  %630 = shufflevector <2 x float> %629, <2 x float> poison, <2 x i32> zeroinitializer
  %631 = fmul <2 x float> %628, %630
  store <2 x float> %631, ptr %15, align 16, !tbaa !34
  %632 = load float, ptr %621, align 4, !tbaa !34
  %633 = fmul float %632, %627
  store float %633, ptr %624, align 8, !tbaa !34
  %634 = load ptr, ptr %13, align 8, !tbaa !5
  %635 = getelementptr inbounds %"struct.pov::Blend_Map_Entry", ptr %634, i64 0, i32 2
  %636 = load ptr, ptr %635, align 8, !tbaa !64
  call fastcc void @_ZN3povL14do_texture_mapEPfPNS_14Texture_StructEPdS3_PNS_10Ray_StructEdPNS_10istk_entryEi(ptr noundef nonnull %15, ptr noundef %636, ptr noundef nonnull %16, ptr noundef %3, ptr noundef %4, double noundef %5, ptr noundef %6, i32 noundef %7)
  br i1 %21, label %674, label %677

637:                                              ; preds = %596
  %638 = load ptr, ptr %14, align 8, !tbaa !5
  %639 = getelementptr inbounds %"struct.pov::Blend_Map_Entry", ptr %638, i64 0, i32 2
  %640 = load ptr, ptr %639, align 8, !tbaa !64
  call fastcc void @_ZN3povL14do_texture_mapEPfPNS_14Texture_StructEPdS3_PNS_10Ray_StructEdPNS_10istk_entryEi(ptr noundef %0, ptr noundef %640, ptr noundef nonnull %16, ptr noundef %3, ptr noundef %4, double noundef %5, ptr noundef %6, i32 noundef %7)
  %641 = load ptr, ptr %13, align 8, !tbaa !5
  %642 = load ptr, ptr %14, align 8, !tbaa !5
  %643 = icmp eq ptr %641, %642
  br i1 %643, label %673, label %644

644:                                              ; preds = %637
  %645 = getelementptr inbounds %"struct.pov::Blend_Map_Entry", ptr %641, i64 0, i32 2
  %646 = load ptr, ptr %645, align 8, !tbaa !64
  call fastcc void @_ZN3povL14do_texture_mapEPfPNS_14Texture_StructEPdS3_PNS_10Ray_StructEdPNS_10istk_entryEi(ptr noundef nonnull %15, ptr noundef %646, ptr noundef nonnull %16, ptr noundef %3, ptr noundef %4, double noundef %5, ptr noundef %6, i32 noundef %7)
  %647 = load ptr, ptr %13, align 8, !tbaa !5
  %648 = load float, ptr %647, align 8, !tbaa !61
  %649 = fpext float %648 to double
  %650 = fsub double %597, %649
  %651 = load ptr, ptr %14, align 8, !tbaa !5
  %652 = load float, ptr %651, align 8, !tbaa !61
  %653 = fsub float %652, %648
  %654 = fpext float %653 to double
  %655 = fdiv double %650, %654
  %656 = fsub double 1.000000e+00, %655
  %657 = fptrunc double %655 to float
  %658 = fptrunc double %656 to float
  %659 = load <4 x float>, ptr %0, align 4, !tbaa !34
  %660 = load <4 x float>, ptr %15, align 16, !tbaa !34
  %661 = insertelement <4 x float> poison, float %658, i64 0
  %662 = shufflevector <4 x float> %661, <4 x float> poison, <4 x i32> zeroinitializer
  %663 = fmul <4 x float> %660, %662
  %664 = insertelement <4 x float> poison, float %657, i64 0
  %665 = shufflevector <4 x float> %664, <4 x float> poison, <4 x i32> zeroinitializer
  %666 = call <4 x float> @llvm.fmuladd.v4f32(<4 x float> %665, <4 x float> %659, <4 x float> %663)
  store <4 x float> %666, ptr %0, align 4, !tbaa !34
  %667 = getelementptr inbounds float, ptr %0, i64 4
  %668 = load float, ptr %667, align 4, !tbaa !34
  %669 = getelementptr inbounds float, ptr %15, i64 4
  %670 = load float, ptr %669, align 16, !tbaa !34
  %671 = fmul float %670, %658
  %672 = call float @llvm.fmuladd.f32(float %657, float %668, float %671)
  store float %672, ptr %667, align 4, !tbaa !34
  br i1 %21, label %674, label %677

673:                                              ; preds = %637
  br i1 %21, label %674, label %677

674:                                              ; preds = %186, %593, %592, %129, %160, %594, %181, %168, %50, %644, %604, %607, %673
  %675 = load i32, ptr @_ZN3pov18warpNormalTexturesE, align 4, !tbaa !9
  %676 = add nsw i32 %675, -1
  store i32 %676, ptr @_ZN3pov18warpNormalTexturesE, align 4, !tbaa !9
  br label %677

677:                                              ; preds = %186, %593, %592, %129, %160, %594, %181, %168, %50, %644, %604, %607, %674, %673
  call void @llvm.lifetime.end.p0(i64 16, ptr nonnull %17) #12
  call void @llvm.lifetime.end.p0(i64 24, ptr nonnull %16) #12
  call void @llvm.lifetime.end.p0(i64 20, ptr nonnull %15) #12
  call void @llvm.lifetime.end.p0(i64 8, ptr nonnull %14) #12
  call void @llvm.lifetime.end.p0(i64 8, ptr nonnull %13) #12
  ret void
}

; Function Attrs: mustprogress nocallback nofree nosync nounwind speculatable willreturn memory(none)
declare double @llvm.fmuladd.f64(double, double, double) #4

; Function Attrs: mustprogress nocallback nofree nosync nounwind willreturn memory(argmem: readwrite)
declare void @llvm.lifetime.end.p0(i64 immarg, ptr nocapture) #3

; Function Attrs: sspstrong uwtable
define dso_local noundef i32 @_ZN3pov11Test_ShadowEPNS_19Light_Source_StructEPdPNS_10Ray_StructES4_S2_Pf(ptr noundef %0, ptr nocapture noundef %1, ptr noundef %2, ptr noundef %3, ptr nocapture noundef readonly %4, ptr noundef %5) local_unnamed_addr #0 {
  tail call fastcc void @_ZN3povL8do_lightEPNS_19Light_Source_StructEPdPNS_10Ray_StructES4_S2_Pf(ptr noundef %0, ptr noundef %1, ptr noundef %2, ptr noundef %3, ptr noundef %4, ptr noundef %5)
  %7 = load float, ptr %5, align 4, !tbaa !34
  %8 = tail call float @llvm.fabs.f32(float %7)
  %9 = fpext float %8 to double
  %10 = fcmp olt double %9, 0x3E7AD7F29ABCAF48
  br i1 %10, label %11, label %23

11:                                               ; preds = %6
  %12 = getelementptr inbounds float, ptr %5, i64 1
  %13 = load float, ptr %12, align 4, !tbaa !34
  %14 = tail call float @llvm.fabs.f32(float %13)
  %15 = fpext float %14 to double
  %16 = fcmp olt double %15, 0x3E7AD7F29ABCAF48
  br i1 %16, label %17, label %23

17:                                               ; preds = %11
  %18 = getelementptr inbounds float, ptr %5, i64 2
  %19 = load float, ptr %18, align 4, !tbaa !34
  %20 = tail call float @llvm.fabs.f32(float %19)
  %21 = fpext float %20 to double
  %22 = fcmp olt double %21, 0x3E7AD7F29ABCAF48
  br i1 %22, label %54, label %23

23:                                               ; preds = %17, %11, %6
  %24 = load i32, ptr getelementptr inbounds (%"struct.pov::OPTIONS_STRUCT", ptr @_ZN3pov4optsE, i64 0, i32 13), align 8, !tbaa !70
  %25 = and i32 %24, 4
  %26 = icmp eq i32 %25, 0
  br i1 %26, label %53, label %27

27:                                               ; preds = %23
  %28 = getelementptr inbounds %"struct.pov::Light_Source_Struct", ptr %0, i64 0, i32 42
  %29 = load ptr, ptr %28, align 8, !tbaa !81
  %30 = icmp eq ptr %29, null
  br i1 %30, label %31, label %35

31:                                               ; preds = %27
  %32 = getelementptr inbounds %"struct.pov::Light_Source_Struct", ptr %0, i64 0, i32 27
  %33 = load i8, ptr %32, align 8, !tbaa !83
  %34 = icmp eq i8 %33, 3
  br i1 %34, label %53, label %35

35:                                               ; preds = %31, %27
  %36 = load double, ptr %1, align 8, !tbaa !20
  tail call fastcc void @_ZN3povL18block_light_sourceEPNS_19Light_Source_StructEdPNS_10Ray_StructES3_PdPf(ptr noundef nonnull %0, double noundef %36, ptr noundef %2, ptr noundef %3, ptr noundef %4, ptr noundef nonnull %5)
  %37 = load float, ptr %5, align 4, !tbaa !34
  %38 = tail call float @llvm.fabs.f32(float %37)
  %39 = fpext float %38 to double
  %40 = fcmp olt double %39, 0x3E7AD7F29ABCAF48
  br i1 %40, label %41, label %53

41:                                               ; preds = %35
  %42 = getelementptr inbounds float, ptr %5, i64 1
  %43 = load float, ptr %42, align 4, !tbaa !34
  %44 = tail call float @llvm.fabs.f32(float %43)
  %45 = fpext float %44 to double
  %46 = fcmp olt double %45, 0x3E7AD7F29ABCAF48
  br i1 %46, label %47, label %53

47:                                               ; preds = %41
  %48 = getelementptr inbounds float, ptr %5, i64 2
  %49 = load float, ptr %48, align 4, !tbaa !34
  %50 = tail call float @llvm.fabs.f32(float %49)
  %51 = fpext float %50 to double
  %52 = fcmp olt double %51, 0x3E7AD7F29ABCAF48
  br i1 %52, label %54, label %53

53:                                               ; preds = %23, %31, %47, %41, %35
  br label %54

54:                                               ; preds = %47, %17, %53
  %55 = phi i32 [ 0, %53 ], [ 1, %17 ], [ 1, %47 ]
  ret i32 %55
}

; Function Attrs: sspstrong uwtable
define internal fastcc void @_ZN3povL8do_lightEPNS_19Light_Source_StructEPdPNS_10Ray_StructES4_S2_Pf(ptr noundef %0, ptr nocapture noundef %1, ptr noundef %2, ptr noundef %3, ptr nocapture noundef readonly %4, ptr nocapture noundef %5) unnamed_addr #0 {
  %7 = getelementptr inbounds %"struct.pov::Light_Source_Struct", ptr %0, i64 0, i32 15
  %8 = load float, ptr %7, align 4, !tbaa !34
  store float %8, ptr %5, align 4, !tbaa !34
  %9 = getelementptr inbounds %"struct.pov::Light_Source_Struct", ptr %0, i64 0, i32 15, i64 1
  %10 = load float, ptr %9, align 4, !tbaa !34
  %11 = getelementptr inbounds float, ptr %5, i64 1
  store float %10, ptr %11, align 4, !tbaa !34
  %12 = getelementptr inbounds %"struct.pov::Light_Source_Struct", ptr %0, i64 0, i32 15, i64 2
  %13 = load float, ptr %12, align 4, !tbaa !34
  %14 = getelementptr inbounds float, ptr %5, i64 2
  store float %13, ptr %14, align 4, !tbaa !34
  %15 = getelementptr inbounds %"struct.pov::Light_Source_Struct", ptr %0, i64 0, i32 15, i64 3
  %16 = load float, ptr %15, align 4, !tbaa !34
  %17 = getelementptr inbounds float, ptr %5, i64 3
  store float %16, ptr %17, align 4, !tbaa !34
  %18 = getelementptr inbounds %"struct.pov::Light_Source_Struct", ptr %0, i64 0, i32 15, i64 4
  %19 = load float, ptr %18, align 4, !tbaa !34
  %20 = getelementptr inbounds float, ptr %5, i64 4
  store float %19, ptr %20, align 4, !tbaa !34
  %21 = load double, ptr %4, align 8, !tbaa !20
  store double %21, ptr %2, align 8, !tbaa !20
  %22 = getelementptr inbounds double, ptr %4, i64 1
  %23 = load double, ptr %22, align 8, !tbaa !20
  %24 = getelementptr inbounds double, ptr %2, i64 1
  store double %23, ptr %24, align 8, !tbaa !20
  %25 = getelementptr inbounds double, ptr %4, i64 2
  %26 = load double, ptr %25, align 8, !tbaa !20
  %27 = getelementptr inbounds double, ptr %2, i64 2
  store double %26, ptr %27, align 8, !tbaa !20
  %28 = getelementptr inbounds %"struct.pov::Light_Source_Struct", ptr %0, i64 0, i32 27
  %29 = load i8, ptr %28, align 8, !tbaa !83
  %30 = icmp eq i8 %29, 4
  %31 = getelementptr inbounds %"struct.pov::Ray_Struct", ptr %2, i64 0, i32 1
  %32 = getelementptr inbounds %"struct.pov::Light_Source_Struct", ptr %0, i64 0, i32 17
  %33 = load double, ptr %32, align 8, !tbaa !20
  %34 = load double, ptr %4, align 8, !tbaa !20
  %35 = fsub double %33, %34
  store double %35, ptr %31, align 8, !tbaa !20
  %36 = getelementptr inbounds %"struct.pov::Light_Source_Struct", ptr %0, i64 0, i32 17, i64 1
  %37 = load double, ptr %36, align 8, !tbaa !20
  %38 = load double, ptr %22, align 8, !tbaa !20
  %39 = fsub double %37, %38
  %40 = getelementptr inbounds %"struct.pov::Ray_Struct", ptr %2, i64 0, i32 1, i64 1
  store double %39, ptr %40, align 8, !tbaa !20
  %41 = getelementptr inbounds %"struct.pov::Light_Source_Struct", ptr %0, i64 0, i32 17, i64 2
  %42 = load double, ptr %41, align 8, !tbaa !20
  %43 = load double, ptr %25, align 8, !tbaa !20
  %44 = fsub double %42, %43
  %45 = getelementptr inbounds %"struct.pov::Ray_Struct", ptr %2, i64 0, i32 1, i64 2
  store double %44, ptr %45, align 8, !tbaa !20
  %46 = fmul double %39, %39
  %47 = tail call double @llvm.fmuladd.f64(double %35, double %35, double %46)
  %48 = tail call double @llvm.fmuladd.f64(double %44, double %44, double %47)
  %49 = tail call double @llvm.sqrt.f64(double %48)
  store double %49, ptr %1, align 8, !tbaa !20
  br i1 %30, label %50, label %93

50:                                               ; preds = %6
  %51 = getelementptr inbounds %"struct.pov::Light_Source_Struct", ptr %0, i64 0, i32 18
  %52 = load double, ptr %32, align 8, !tbaa !20
  %53 = load double, ptr %51, align 8, !tbaa !20
  %54 = fsub double %52, %53
  store double %54, ptr %31, align 8, !tbaa !20
  %55 = load double, ptr %36, align 8, !tbaa !20
  %56 = getelementptr inbounds %"struct.pov::Light_Source_Struct", ptr %0, i64 0, i32 18, i64 1
  %57 = load double, ptr %56, align 8, !tbaa !20
  %58 = fsub double %55, %57
  store double %58, ptr %40, align 8, !tbaa !20
  %59 = load double, ptr %41, align 8, !tbaa !20
  %60 = getelementptr inbounds %"struct.pov::Light_Source_Struct", ptr %0, i64 0, i32 18, i64 2
  %61 = load double, ptr %60, align 8, !tbaa !20
  %62 = fsub double %59, %61
  store double %62, ptr %45, align 8, !tbaa !20
  %63 = load double, ptr %32, align 8, !tbaa !20
  %64 = load double, ptr %4, align 8, !tbaa !20
  %65 = fsub double %63, %64
  %66 = load double, ptr %36, align 8, !tbaa !20
  %67 = load double, ptr %22, align 8, !tbaa !20
  %68 = fsub double %66, %67
  %69 = load double, ptr %41, align 8, !tbaa !20
  %70 = load double, ptr %25, align 8, !tbaa !20
  %71 = fsub double %69, %70
  %72 = fmul double %58, %58
  %73 = tail call double @llvm.fmuladd.f64(double %54, double %54, double %72)
  %74 = tail call double @llvm.fmuladd.f64(double %62, double %62, double %73)
  %75 = tail call double @llvm.sqrt.f64(double %74)
  %76 = fmul double %58, %68
  %77 = tail call double @llvm.fmuladd.f64(double %65, double %54, double %76)
  %78 = tail call double @llvm.fmuladd.f64(double %71, double %62, double %77)
  %79 = fdiv double %78, %75
  store double %79, ptr %1, align 8, !tbaa !20
  %80 = load double, ptr %45, align 8, !tbaa !20
  %81 = load <2 x double>, ptr %31, align 8, !tbaa !20
  %82 = fmul <2 x double> %81, %81
  %83 = extractelement <2 x double> %82, i64 1
  %84 = extractelement <2 x double> %81, i64 0
  %85 = tail call double @llvm.fmuladd.f64(double %84, double %84, double %83)
  %86 = tail call double @llvm.fmuladd.f64(double %80, double %80, double %85)
  %87 = tail call double @llvm.sqrt.f64(double %86)
  %88 = fdiv double 1.000000e+00, %87
  %89 = insertelement <2 x double> poison, double %88, i64 0
  %90 = shufflevector <2 x double> %89, <2 x double> poison, <2 x i32> zeroinitializer
  %91 = fmul <2 x double> %81, %90
  store <2 x double> %91, ptr %31, align 8, !tbaa !20
  %92 = fmul double %80, %88
  br label %101

93:                                               ; preds = %6
  %94 = fdiv double 1.000000e+00, %49
  %95 = load <2 x double>, ptr %31, align 8, !tbaa !20
  %96 = insertelement <2 x double> poison, double %94, i64 0
  %97 = shufflevector <2 x double> %96, <2 x double> poison, <2 x i32> zeroinitializer
  %98 = fmul <2 x double> %95, %97
  store <2 x double> %98, ptr %31, align 8, !tbaa !20
  %99 = load double, ptr %45, align 8, !tbaa !20
  %100 = fmul double %94, %99
  br label %101

101:                                              ; preds = %93, %50
  %102 = phi double [ %100, %93 ], [ %92, %50 ]
  store double %102, ptr %45, align 8, !tbaa !20
  %103 = load double, ptr %1, align 8, !tbaa !20
  %104 = tail call noundef double @_ZN3pov15Attenuate_LightEPNS_19Light_Source_StructEPNS_10Ray_StructEd(ptr noundef nonnull %0, ptr noundef nonnull %2, double noundef %103)
  %105 = getelementptr inbounds %"struct.pov::Light_Source_Struct", ptr %0, i64 0, i32 33
  %106 = load i8, ptr %105, align 2, !tbaa !84
  %107 = icmp eq i8 %106, 0
  br i1 %107, label %173, label %108

108:                                              ; preds = %101
  %109 = getelementptr inbounds %"struct.pov::Light_Source_Struct", ptr %0, i64 0, i32 28
  %110 = load i8, ptr %109, align 1, !tbaa !85
  %111 = icmp eq i8 %110, 0
  br i1 %111, label %147, label %112

112:                                              ; preds = %108
  %113 = getelementptr inbounds %"struct.pov::Light_Source_Struct", ptr %0, i64 0, i32 17
  %114 = getelementptr inbounds %"struct.pov::Light_Source_Struct", ptr %0, i64 0, i32 18
  %115 = getelementptr inbounds %"struct.pov::Light_Source_Struct", ptr %0, i64 0, i32 17, i64 2
  %116 = load double, ptr %115, align 8, !tbaa !20
  %117 = getelementptr inbounds %"struct.pov::Light_Source_Struct", ptr %0, i64 0, i32 18, i64 2
  %118 = load double, ptr %117, align 8, !tbaa !20
  %119 = fsub double %116, %118
  %120 = getelementptr inbounds %"struct.pov::Ray_Struct", ptr %2, i64 0, i32 1
  %121 = load double, ptr %120, align 8, !tbaa !20
  %122 = getelementptr inbounds %"struct.pov::Ray_Struct", ptr %2, i64 0, i32 1, i64 1
  %123 = load double, ptr %122, align 8, !tbaa !20
  %124 = getelementptr inbounds %"struct.pov::Ray_Struct", ptr %2, i64 0, i32 1, i64 2
  %125 = load double, ptr %124, align 8, !tbaa !20
  %126 = load double, ptr %1, align 8, !tbaa !20
  %127 = load <2 x double>, ptr %113, align 8, !tbaa !20
  %128 = load <2 x double>, ptr %114, align 8, !tbaa !20
  %129 = fsub <2 x double> %127, %128
  %130 = fmul <2 x double> %129, %129
  %131 = extractelement <2 x double> %130, i64 1
  %132 = extractelement <2 x double> %129, i64 0
  %133 = tail call double @llvm.fmuladd.f64(double %132, double %132, double %131)
  %134 = tail call double @llvm.fmuladd.f64(double %119, double %119, double %133)
  %135 = tail call double @llvm.sqrt.f64(double %134)
  %136 = fdiv double 1.000000e+00, %135
  %137 = insertelement <2 x double> poison, double %136, i64 0
  %138 = shufflevector <2 x double> %137, <2 x double> poison, <2 x i32> zeroinitializer
  %139 = fmul <2 x double> %129, %138
  %140 = fmul double %119, %136
  %141 = extractelement <2 x double> %139, i64 1
  %142 = fmul double %123, %141
  %143 = extractelement <2 x double> %139, i64 0
  %144 = tail call double @llvm.fmuladd.f64(double %143, double %121, double %142)
  %145 = tail call double @llvm.fmuladd.f64(double %140, double %125, double %144)
  %146 = fmul double %126, %145
  store double %146, ptr %1, align 8, !tbaa !20
  store <2 x double> %139, ptr %120, align 8, !tbaa !20
  store double %140, ptr %124, align 8, !tbaa !20
  br label %173

147:                                              ; preds = %108
  %148 = getelementptr inbounds %"struct.pov::Light_Source_Struct", ptr %0, i64 0, i32 16
  %149 = getelementptr inbounds %"struct.pov::Ray_Struct", ptr %2, i64 0, i32 1
  %150 = load double, ptr %148, align 8, !tbaa !20
  %151 = load double, ptr %149, align 8, !tbaa !20
  %152 = getelementptr inbounds %"struct.pov::Light_Source_Struct", ptr %0, i64 0, i32 16, i64 1
  %153 = load double, ptr %152, align 8, !tbaa !20
  %154 = getelementptr inbounds %"struct.pov::Ray_Struct", ptr %2, i64 0, i32 1, i64 1
  %155 = load double, ptr %154, align 8, !tbaa !20
  %156 = fmul double %153, %155
  %157 = tail call double @llvm.fmuladd.f64(double %150, double %151, double %156)
  %158 = getelementptr inbounds %"struct.pov::Light_Source_Struct", ptr %0, i64 0, i32 16, i64 2
  %159 = load double, ptr %158, align 8, !tbaa !20
  %160 = getelementptr inbounds %"struct.pov::Ray_Struct", ptr %2, i64 0, i32 1, i64 2
  %161 = load double, ptr %160, align 8, !tbaa !20
  %162 = tail call double @llvm.fmuladd.f64(double %159, double %161, double %157)
  %163 = fneg double %162
  %164 = load double, ptr %1, align 8, !tbaa !20
  %165 = fmul double %164, %163
  store double %165, ptr %1, align 8, !tbaa !20
  %166 = load double, ptr %148, align 8, !tbaa !20
  store double %166, ptr %149, align 8, !tbaa !20
  %167 = load double, ptr %152, align 8, !tbaa !20
  store double %167, ptr %154, align 8, !tbaa !20
  %168 = load double, ptr %158, align 8, !tbaa !20
  %169 = insertelement <2 x double> poison, double %166, i64 0
  %170 = insertelement <2 x double> %169, double %167, i64 1
  %171 = fneg <2 x double> %170
  store <2 x double> %171, ptr %149, align 8, !tbaa !20
  %172 = fneg double %168
  store double %172, ptr %160, align 8, !tbaa !20
  br label %173

173:                                              ; preds = %112, %147, %101
  %174 = fptrunc double %104 to float
  %175 = load <2 x float>, ptr %5, align 4, !tbaa !34
  %176 = insertelement <2 x float> poison, float %174, i64 0
  %177 = shufflevector <2 x float> %176, <2 x float> poison, <2 x i32> zeroinitializer
  %178 = fmul <2 x float> %175, %177
  store <2 x float> %178, ptr %5, align 4, !tbaa !34
  %179 = load float, ptr %14, align 4, !tbaa !34
  %180 = fmul float %179, %174
  store float %180, ptr %14, align 4, !tbaa !34
  tail call void @_ZN3pov25Initialize_Ray_ContainersEPNS_10Ray_StructEj(ptr noundef nonnull %2, i32 noundef 0)
  tail call void @_ZN3pov19Copy_Ray_ContainersEPNS_10Ray_StructES1_(ptr noundef nonnull %2, ptr noundef %3)
  ret void
}

; Function Attrs: sspstrong uwtable
define internal fastcc void @_ZN3povL18block_light_sourceEPNS_19Light_Source_StructEdPNS_10Ray_StructES3_PdPf(ptr noundef %0, double noundef %1, ptr nocapture noundef readonly %2, ptr nocapture noundef readonly %3, ptr nocapture noundef readonly %4, ptr noundef %5) unnamed_addr #0 {
  %7 = alloca ptr, align 8
  %8 = alloca %"struct.pov::istk_entry", align 8
  %9 = alloca %"struct.pov::istk_entry", align 8
  %10 = alloca double, align 8
  %11 = alloca %"struct.pov::istk_entry", align 8
  %12 = alloca %"struct.pov::Ray_Struct", align 16
  call void @llvm.lifetime.start.p0(i64 8, ptr nonnull %10) #12
  call void @llvm.lifetime.start.p0(i64 200, ptr nonnull %11) #12
  call void @llvm.lifetime.start.p0(i64 856, ptr nonnull %12) #12
  %13 = getelementptr inbounds %"struct.pov::Light_Source_Struct", ptr %0, i64 0, i32 13
  %14 = load i32, ptr %13, align 4, !tbaa !86
  store i32 %14, ptr getelementptr inbounds (%"struct.pov::photon_options_struct", ptr @_ZN3pov13photonOptionsE, i64 0, i32 25), align 8, !tbaa !87
  store double %1, ptr %10, align 8, !tbaa !20
  call void @llvm.memcpy.p0.p0.i64(ptr noundef nonnull align 16 dereferenceable(856) %12, ptr noundef nonnull align 8 dereferenceable(856) %2, i64 856, i1 false), !tbaa.struct !90
  %15 = getelementptr inbounds %"struct.pov::Ray_Struct", ptr %12, i64 0, i32 3
  store i32 1, ptr %15, align 4, !tbaa !91
  %16 = getelementptr inbounds %"struct.pov::Light_Source_Struct", ptr %0, i64 0, i32 28
  %17 = load i8, ptr %16, align 1, !tbaa !85
  %18 = icmp eq i8 %17, 0
  br i1 %18, label %24, label %19

19:                                               ; preds = %6
  %20 = load i32, ptr getelementptr inbounds (%"struct.pov::OPTIONS_STRUCT", ptr @_ZN3pov4optsE, i64 0, i32 13), align 8, !tbaa !70
  %21 = and i32 %20, 8
  %22 = icmp eq i32 %21, 0
  br i1 %22, label %24, label %23

23:                                               ; preds = %19
  call fastcc void @_ZN3povL16block_area_lightEPNS_19Light_Source_StructEPdPNS_10Ray_StructES4_S2_Pfiiiii(ptr noundef nonnull %0, ptr noundef nonnull %10, ptr noundef nonnull %12, ptr noundef %3, ptr noundef %4, ptr noundef %5, i32 noundef 0, i32 noundef 0, i32 noundef 0, i32 noundef 0, i32 noundef 0)
  br label %267

24:                                               ; preds = %19, %6
  %25 = load i32, ptr @_ZN3pov4optsE, align 8, !tbaa !92
  %26 = and i32 %25, 4096
  %27 = icmp eq i32 %26, 0
  br i1 %27, label %266, label %28

28:                                               ; preds = %24
  %29 = getelementptr inbounds %"struct.pov::Light_Source_Struct", ptr %0, i64 0, i32 27
  %30 = load i8, ptr %29, align 8, !tbaa !83
  %31 = icmp eq i8 %30, 4
  br i1 %31, label %266, label %32

32:                                               ; preds = %28
  %33 = getelementptr inbounds %"struct.pov::Light_Source_Struct", ptr %0, i64 0, i32 33
  %34 = load i8, ptr %33, align 2, !tbaa !84
  %35 = icmp eq i8 %34, 0
  br i1 %35, label %36, label %266

36:                                               ; preds = %32
  %37 = getelementptr inbounds %"struct.pov::Light_Source_Struct", ptr %0, i64 0, i32 1
  %38 = load i32, ptr %37, align 8, !tbaa !93
  %39 = and i32 %38, 4096
  %40 = icmp eq i32 %39, 0
  br i1 %40, label %41, label %266

41:                                               ; preds = %36
  call void @llvm.lifetime.start.p0(i64 8, ptr nonnull %7) #12
  call void @llvm.lifetime.start.p0(i64 200, ptr nonnull %8) #12
  call void @llvm.lifetime.start.p0(i64 200, ptr nonnull %9) #12
  %42 = getelementptr inbounds %"struct.pov::Light_Source_Struct", ptr %0, i64 0, i32 42
  %43 = load ptr, ptr %42, align 8, !tbaa !81
  %44 = icmp eq ptr %43, null
  br i1 %44, label %61, label %45

45:                                               ; preds = %41
  %46 = call noundef zeroext i1 @_ZN3pov12IntersectionEPNS_10istk_entryEPNS_13Object_StructEPNS_10Ray_StructE(ptr noundef nonnull %9, ptr noundef nonnull %43, ptr noundef nonnull %12)
  br i1 %46, label %47, label %59

47:                                               ; preds = %45
  %48 = load double, ptr %9, align 8, !tbaa !18
  %49 = fsub double %48, %1
  %50 = fcmp olt double %49, 0.000000e+00
  br i1 %50, label %51, label %57

51:                                               ; preds = %47
  %52 = call double @llvm.fabs.f64(double %48)
  %53 = fsub double %1, %52
  %54 = fadd double %53, 1.000000e-03
  %55 = load i8, ptr %29, align 8, !tbaa !83
  %56 = icmp eq i8 %55, 3
  br i1 %56, label %265, label %61

57:                                               ; preds = %47
  %58 = getelementptr inbounds float, ptr %5, i64 2
  store float 0.000000e+00, ptr %58, align 4, !tbaa !34
  store <2 x float> zeroinitializer, ptr %5, align 4, !tbaa !34
  br label %265

59:                                               ; preds = %45
  %60 = getelementptr inbounds float, ptr %5, i64 2
  store float 0.000000e+00, ptr %60, align 4, !tbaa !34
  store <2 x float> zeroinitializer, ptr %5, align 4, !tbaa !34
  br label %265

61:                                               ; preds = %51, %41
  %62 = phi double [ %54, %51 ], [ 0.000000e+00, %41 ]
  %63 = call noundef ptr @_ZN3pov11open_istackEv()
  %64 = getelementptr inbounds %"struct.pov::Light_Source_Struct", ptr %0, i64 0, i32 41
  %65 = load ptr, ptr %64, align 8, !tbaa !94
  %66 = icmp eq ptr %65, null
  br i1 %66, label %119, label %67

67:                                               ; preds = %61
  %68 = load i64, ptr getelementptr inbounds ([123 x i64], ptr @_ZN3pov5statsE, i64 0, i64 107), align 8, !tbaa !95
  %69 = add nsw i64 %68, 1
  store i64 %69, ptr getelementptr inbounds ([123 x i64], ptr @_ZN3pov5statsE, i64 0, i64 107), align 8, !tbaa !95
  %70 = getelementptr inbounds %"struct.pov::Object_Struct", ptr %65, i64 0, i32 6
  %71 = load ptr, ptr %70, align 8, !tbaa !97
  %72 = call noundef zeroext i1 @_ZN3pov12Ray_In_BoundEPNS_10Ray_StructEPNS_13Object_StructE(ptr noundef nonnull %12, ptr noundef %71)
  br i1 %72, label %73, label %119

73:                                               ; preds = %67
  %74 = load ptr, ptr %64, align 8, !tbaa !94
  %75 = load ptr, ptr %74, align 8, !tbaa !26
  %76 = load ptr, ptr %75, align 8, !tbaa !98
  %77 = call noundef i32 %76(ptr noundef nonnull %74, ptr noundef nonnull %12, ptr noundef %63)
  %78 = icmp eq i32 %77, 0
  br i1 %78, label %119, label %79

79:                                               ; preds = %73
  %80 = getelementptr inbounds %"struct.pov::istack_struct", ptr %63, i64 0, i32 3
  %81 = load i32, ptr %80, align 4, !tbaa !99
  %82 = icmp eq i32 %81, 0
  br i1 %82, label %119, label %83

83:                                               ; preds = %79
  %84 = getelementptr inbounds %"struct.pov::istack_struct", ptr %63, i64 0, i32 1
  %85 = fadd double %1, -1.000000e-03
  br label %86

86:                                               ; preds = %83, %116
  %87 = phi i32 [ %81, %83 ], [ %117, %116 ]
  %88 = load ptr, ptr %84, align 8, !tbaa !101
  %89 = add i32 %87, -1
  store i32 %89, ptr %80, align 4, !tbaa !99
  %90 = zext i32 %89 to i64
  %91 = getelementptr inbounds %"struct.pov::istk_entry", ptr %88, i64 %90
  %92 = icmp eq ptr %88, null
  br i1 %92, label %119, label %93

93:                                               ; preds = %86
  %94 = getelementptr inbounds %"struct.pov::istk_entry", ptr %88, i64 %90, i32 5
  %95 = load ptr, ptr %94, align 8, !tbaa !25
  %96 = getelementptr inbounds %"struct.pov::Object_Struct", ptr %95, i64 0, i32 13
  %97 = load i32, ptr %96, align 4, !tbaa !32
  %98 = and i32 %97, 1
  %99 = icmp eq i32 %98, 0
  br i1 %99, label %100, label %116

100:                                              ; preds = %93
  %101 = load double, ptr %91, align 8, !tbaa !18
  %102 = fcmp olt double %101, %85
  %103 = fsub double %1, %101
  %104 = fcmp ogt double %103, %62
  %105 = and i1 %102, %104
  %106 = fcmp ogt double %101, 1.000000e-03
  %107 = and i1 %106, %105
  br i1 %107, label %108, label %116

108:                                              ; preds = %100
  %109 = call fastcc noundef i32 @_ZN3povL11do_blockingEPNS_10istk_entryEPNS_10Ray_StructEPfPNS_13istack_structE(ptr noundef nonnull %91, ptr noundef nonnull %12, ptr noundef %5, ptr noundef %63), !range !102
  %110 = icmp eq i32 %109, 0
  br i1 %110, label %111, label %113

111:                                              ; preds = %108
  %112 = load i32, ptr %80, align 4, !tbaa !99
  br label %116

113:                                              ; preds = %108
  %114 = load i64, ptr getelementptr inbounds ([123 x i64], ptr @_ZN3pov5statsE, i64 0, i64 105), align 8, !tbaa !95
  %115 = add nsw i64 %114, 1
  store i64 %115, ptr getelementptr inbounds ([123 x i64], ptr @_ZN3pov5statsE, i64 0, i64 105), align 8, !tbaa !95
  call void @_ZN3pov12close_istackEPNS_13istack_structE(ptr noundef %63)
  br label %265

116:                                              ; preds = %111, %100, %93
  %117 = phi i32 [ %112, %111 ], [ %89, %100 ], [ %89, %93 ]
  %118 = icmp eq i32 %117, 0
  br i1 %118, label %119, label %86

119:                                              ; preds = %86, %116, %79, %73, %67, %61
  %120 = getelementptr inbounds %"struct.pov::Ray_Struct", ptr %12, i64 0, i32 1
  %121 = load double, ptr %120, align 8, !tbaa !20
  %122 = getelementptr inbounds %"struct.pov::Ray_Struct", ptr %12, i64 0, i32 1, i64 1
  %123 = load double, ptr %122, align 16, !tbaa !20
  %124 = fneg double %123
  %125 = getelementptr inbounds %"struct.pov::Ray_Struct", ptr %12, i64 0, i32 1, i64 2
  %126 = load double, ptr %125, align 8, !tbaa !20
  %127 = call double @llvm.fabs.f64(double %124)
  %128 = insertelement <2 x double> poison, double %121, i64 0
  %129 = insertelement <2 x double> %128, double %126, i64 1
  %130 = fneg <2 x double> %129
  %131 = call <2 x double> @llvm.fabs.v2f64(<2 x double> %130)
  %132 = extractelement <2 x double> %131, i64 0
  %133 = fcmp ogt double %132, %127
  %134 = extractelement <2 x double> %131, i64 1
  %135 = fcmp ogt double %132, %134
  %136 = select i1 %133, i1 %135, i1 false
  br i1 %136, label %137, label %142

137:                                              ; preds = %119
  %138 = fcmp uge double %121, 0.000000e+00
  %139 = zext i1 %138 to i64
  %140 = fmul double %123, -3.200000e+04
  %141 = fdiv double %140, %132
  br label %153

142:                                              ; preds = %119
  %143 = fcmp ogt double %127, %134
  %144 = fmul double %121, -3.200000e+04
  br i1 %143, label %145, label %149

145:                                              ; preds = %142
  %146 = fcmp olt double %123, 0.000000e+00
  %147 = select i1 %146, i64 2, i64 3
  %148 = fdiv double %144, %127
  br label %153

149:                                              ; preds = %142
  %150 = fcmp olt double %126, 0.000000e+00
  %151 = select i1 %150, i64 4, i64 5
  %152 = fdiv double %144, %134
  br label %153

153:                                              ; preds = %149, %145, %137
  %154 = phi double [ %123, %149 ], [ %126, %145 ], [ %126, %137 ]
  %155 = phi double [ %134, %149 ], [ %127, %145 ], [ %132, %137 ]
  %156 = phi i64 [ %151, %149 ], [ %147, %145 ], [ %139, %137 ]
  %157 = phi double [ %152, %149 ], [ %148, %145 ], [ %141, %137 ]
  %158 = fmul double %154, -3.200000e+04
  %159 = fdiv double %158, %155
  %160 = fptosi double %157 to i32
  %161 = fptosi double %159 to i32
  %162 = getelementptr inbounds %"struct.pov::Light_Source_Struct", ptr %0, i64 0, i32 44, i64 %156
  %163 = load ptr, ptr %162, align 8, !tbaa !5
  %164 = icmp eq ptr %163, null
  br i1 %164, label %217, label %165

165:                                              ; preds = %153
  %166 = getelementptr inbounds %"struct.pov::istk_entry", ptr %8, i64 0, i32 5
  %167 = load i64, ptr getelementptr inbounds ([123 x i64], ptr @_ZN3pov5statsE, i64 0, i64 107), align 8, !tbaa !95
  %168 = add nsw i64 %167, 1
  store i64 %168, ptr getelementptr inbounds ([123 x i64], ptr @_ZN3pov5statsE, i64 0, i64 107), align 8, !tbaa !95
  store ptr null, ptr %166, align 8, !tbaa !25
  store double %1, ptr %8, align 8, !tbaa !18
  %169 = call noundef i32 @_ZN3pov20Intersect_Light_TreeEPNS_10Ray_StructEPNS_24Project_Tree_Node_StructEiiPNS_10istk_entryEPPNS_13Object_StructEPNS_19Light_Source_StructE(ptr noundef nonnull %12, ptr noundef nonnull %163, i32 noundef %160, i32 noundef %161, ptr noundef nonnull %8, ptr noundef nonnull %7, ptr noundef nonnull %0)
  %170 = icmp eq i32 %169, 0
  br i1 %170, label %262, label %171

171:                                              ; preds = %165
  %172 = getelementptr inbounds float, ptr %5, i64 1
  %173 = getelementptr inbounds float, ptr %5, i64 2
  %174 = getelementptr inbounds %"struct.pov::istk_entry", ptr %8, i64 0, i32 1
  %175 = getelementptr inbounds %"struct.pov::istk_entry", ptr %8, i64 0, i32 1, i64 2
  %176 = getelementptr inbounds double, ptr %12, i64 2
  %177 = load double, ptr %8, align 8, !tbaa !18
  %178 = fsub double %1, %62
  %179 = fcmp ogt double %177, %178
  br i1 %179, label %262, label %180

180:                                              ; preds = %171
  %181 = load ptr, ptr %7, align 8, !tbaa !5
  %182 = load ptr, ptr %64, align 8, !tbaa !94
  %183 = icmp eq ptr %181, %182
  br i1 %183, label %207, label %184

184:                                              ; preds = %180
  %185 = load i64, ptr getelementptr inbounds ([123 x i64], ptr @_ZN3pov5statsE, i64 0, i64 106), align 16, !tbaa !95
  %186 = add nsw i64 %185, 1
  store i64 %186, ptr getelementptr inbounds ([123 x i64], ptr @_ZN3pov5statsE, i64 0, i64 106), align 16, !tbaa !95
  call fastcc void @_ZN3povL17filter_shadow_rayEPNS_10istk_entryEPNS_10Ray_StructEPf(ptr noundef nonnull %8, ptr noundef nonnull %12, ptr noundef %5)
  %187 = load float, ptr %5, align 4, !tbaa !34
  %188 = call float @llvm.fabs.f32(float %187)
  %189 = fpext float %188 to double
  %190 = fcmp olt double %189, 0x3E7AD7F29ABCAF48
  br i1 %190, label %191, label %207

191:                                              ; preds = %184
  %192 = load float, ptr %172, align 4, !tbaa !34
  %193 = call float @llvm.fabs.f32(float %192)
  %194 = fpext float %193 to double
  %195 = fcmp olt double %194, 0x3E7AD7F29ABCAF48
  br i1 %195, label %196, label %207

196:                                              ; preds = %191
  %197 = load float, ptr %173, align 4, !tbaa !34
  %198 = call float @llvm.fabs.f32(float %197)
  %199 = fpext float %198 to double
  %200 = fcmp olt double %199, 0x3E7AD7F29ABCAF48
  br i1 %200, label %201, label %207

201:                                              ; preds = %196
  %202 = load ptr, ptr %7, align 8, !tbaa !5
  %203 = getelementptr inbounds %"struct.pov::Object_Struct", ptr %202, i64 0, i32 13
  %204 = load i32, ptr %203, align 4, !tbaa !32
  %205 = and i32 %204, 128
  %206 = icmp eq i32 %205, 0
  br i1 %206, label %207, label %261

207:                                              ; preds = %201, %196, %191, %184, %180
  %208 = load double, ptr %8, align 8, !tbaa !18
  %209 = fsub double %1, %208
  %210 = load <2 x double>, ptr %174, align 8, !tbaa !20
  store <2 x double> %210, ptr %12, align 16, !tbaa !20
  %211 = load double, ptr %175, align 8, !tbaa !20
  store double %211, ptr %176, align 16, !tbaa !20
  %212 = load i64, ptr getelementptr inbounds ([123 x i64], ptr @_ZN3pov5statsE, i64 0, i64 107), align 8, !tbaa !95
  %213 = add nsw i64 %212, 1
  store i64 %213, ptr getelementptr inbounds ([123 x i64], ptr @_ZN3pov5statsE, i64 0, i64 107), align 8, !tbaa !95
  store ptr null, ptr %166, align 8, !tbaa !25
  store double %209, ptr %8, align 8, !tbaa !18
  %214 = load ptr, ptr %162, align 8, !tbaa !5
  %215 = call noundef i32 @_ZN3pov20Intersect_Light_TreeEPNS_10Ray_StructEPNS_24Project_Tree_Node_StructEiiPNS_10istk_entryEPPNS_13Object_StructEPNS_19Light_Source_StructE(ptr noundef nonnull %12, ptr noundef %214, i32 noundef %160, i32 noundef %161, ptr noundef nonnull %8, ptr noundef nonnull %7, ptr noundef nonnull %0)
  %216 = icmp eq i32 %215, 0
  br i1 %216, label %262, label %218

217:                                              ; preds = %153
  call void @_ZN3pov12close_istackEPNS_13istack_structE(ptr noundef %63)
  br label %265

218:                                              ; preds = %207, %251
  %219 = phi double [ %253, %251 ], [ %209, %207 ]
  %220 = load double, ptr %8, align 8, !tbaa !18
  %221 = fsub double %219, %62
  %222 = fcmp ogt double %220, %221
  br i1 %222, label %262, label %223

223:                                              ; preds = %218
  %224 = load ptr, ptr %7, align 8, !tbaa !5
  %225 = load ptr, ptr %64, align 8, !tbaa !94
  %226 = icmp eq ptr %224, %225
  br i1 %226, label %251, label %227

227:                                              ; preds = %223
  %228 = load i64, ptr getelementptr inbounds ([123 x i64], ptr @_ZN3pov5statsE, i64 0, i64 106), align 16, !tbaa !95
  %229 = add nsw i64 %228, 1
  store i64 %229, ptr getelementptr inbounds ([123 x i64], ptr @_ZN3pov5statsE, i64 0, i64 106), align 16, !tbaa !95
  call fastcc void @_ZN3povL17filter_shadow_rayEPNS_10istk_entryEPNS_10Ray_StructEPf(ptr noundef nonnull %8, ptr noundef nonnull %12, ptr noundef %5)
  %230 = load float, ptr %5, align 4, !tbaa !34
  %231 = call float @llvm.fabs.f32(float %230)
  %232 = fpext float %231 to double
  %233 = fcmp olt double %232, 0x3E7AD7F29ABCAF48
  br i1 %233, label %234, label %251

234:                                              ; preds = %227
  %235 = load float, ptr %172, align 4, !tbaa !34
  %236 = call float @llvm.fabs.f32(float %235)
  %237 = fpext float %236 to double
  %238 = fcmp olt double %237, 0x3E7AD7F29ABCAF48
  br i1 %238, label %239, label %251

239:                                              ; preds = %234
  %240 = load float, ptr %173, align 4, !tbaa !34
  %241 = call float @llvm.fabs.f32(float %240)
  %242 = fpext float %241 to double
  %243 = fcmp olt double %242, 0x3E7AD7F29ABCAF48
  br i1 %243, label %244, label %251

244:                                              ; preds = %239
  %245 = load ptr, ptr %7, align 8, !tbaa !5
  %246 = getelementptr inbounds %"struct.pov::Object_Struct", ptr %245, i64 0, i32 13
  %247 = load i32, ptr %246, align 4, !tbaa !32
  %248 = and i32 %247, 128
  %249 = icmp eq i32 %248, 0
  br i1 %249, label %251, label %250

250:                                              ; preds = %244
  store double %219, ptr %10, align 8, !tbaa !20
  br label %264

251:                                              ; preds = %244, %239, %234, %227, %223
  %252 = load double, ptr %8, align 8, !tbaa !18
  %253 = fsub double %219, %252
  %254 = load <2 x double>, ptr %174, align 8, !tbaa !20
  store <2 x double> %254, ptr %12, align 16, !tbaa !20
  %255 = load double, ptr %175, align 8, !tbaa !20
  store double %255, ptr %176, align 16, !tbaa !20
  %256 = load i64, ptr getelementptr inbounds ([123 x i64], ptr @_ZN3pov5statsE, i64 0, i64 107), align 8, !tbaa !95
  %257 = add nsw i64 %256, 1
  store i64 %257, ptr getelementptr inbounds ([123 x i64], ptr @_ZN3pov5statsE, i64 0, i64 107), align 8, !tbaa !95
  store ptr null, ptr %166, align 8, !tbaa !25
  store double %253, ptr %8, align 8, !tbaa !18
  %258 = load ptr, ptr %162, align 8, !tbaa !5
  %259 = call noundef i32 @_ZN3pov20Intersect_Light_TreeEPNS_10Ray_StructEPNS_24Project_Tree_Node_StructEiiPNS_10istk_entryEPPNS_13Object_StructEPNS_19Light_Source_StructE(ptr noundef nonnull %12, ptr noundef %258, i32 noundef %160, i32 noundef %161, ptr noundef nonnull %8, ptr noundef nonnull %7, ptr noundef nonnull %0)
  %260 = icmp eq i32 %259, 0
  br i1 %260, label %262, label %218, !llvm.loop !103

261:                                              ; preds = %201
  store double %1, ptr %10, align 8, !tbaa !20
  store ptr %202, ptr %64, align 8, !tbaa !94
  br label %264

262:                                              ; preds = %251, %218, %171, %207, %165
  %263 = phi double [ %1, %165 ], [ %1, %171 ], [ %209, %207 ], [ %253, %251 ], [ %219, %218 ]
  store double %263, ptr %10, align 8, !tbaa !20
  br label %264

264:                                              ; preds = %250, %262, %261
  call void @_ZN3pov12close_istackEPNS_13istack_structE(ptr noundef %63)
  br label %265

265:                                              ; preds = %51, %57, %59, %113, %217, %264
  call void @llvm.lifetime.end.p0(i64 200, ptr nonnull %9) #12
  call void @llvm.lifetime.end.p0(i64 200, ptr nonnull %8) #12
  call void @llvm.lifetime.end.p0(i64 8, ptr nonnull %7) #12
  br label %267

266:                                              ; preds = %36, %32, %28, %24
  call fastcc void @_ZN3povL17block_point_lightEPNS_19Light_Source_StructEPdPNS_10Ray_StructEPf(ptr noundef nonnull %0, ptr noundef nonnull %10, ptr noundef nonnull %12, ptr noundef %5)
  br label %267

267:                                              ; preds = %265, %266, %23
  %268 = load double, ptr %10, align 8, !tbaa !20
  %269 = fcmp ogt double %268, 1.000000e-03
  br i1 %269, label %270, label %315

270:                                              ; preds = %267
  %271 = getelementptr inbounds %"struct.pov::Light_Source_Struct", ptr %0, i64 0, i32 39
  %272 = load i32, ptr %271, align 8, !tbaa !105
  %273 = icmp eq i32 %272, 0
  br i1 %273, label %315, label %274

274:                                              ; preds = %270
  %275 = getelementptr inbounds %"struct.pov::Light_Source_Struct", ptr %0, i64 0, i32 38
  %276 = load i32, ptr %275, align 4, !tbaa !106
  %277 = icmp eq i32 %276, 0
  br i1 %277, label %315, label %278

278:                                              ; preds = %274
  store double %268, ptr %11, align 8, !tbaa !18
  %279 = getelementptr inbounds %"struct.pov::istk_entry", ptr %11, i64 0, i32 5
  store ptr null, ptr %279, align 8, !tbaa !25
  %280 = load float, ptr %5, align 4, !tbaa !34
  %281 = fpext float %280 to double
  %282 = fcmp olt double %281, 0x3E7AD7F29ABCAF48
  br i1 %282, label %283, label %293

283:                                              ; preds = %278
  %284 = getelementptr inbounds float, ptr %5, i64 1
  %285 = load float, ptr %284, align 4, !tbaa !34
  %286 = fpext float %285 to double
  %287 = fcmp olt double %286, 0x3E7AD7F29ABCAF48
  br i1 %287, label %288, label %293

288:                                              ; preds = %283
  %289 = getelementptr inbounds float, ptr %5, i64 2
  %290 = load float, ptr %289, align 4, !tbaa !34
  %291 = fpext float %290 to double
  %292 = fcmp olt double %291, 0x3E7AD7F29ABCAF48
  br i1 %292, label %315, label %293

293:                                              ; preds = %288, %283, %278
  %294 = getelementptr inbounds %"struct.pov::Ray_Struct", ptr %12, i64 0, i32 2
  %295 = load i32, ptr %294, align 16, !tbaa !77
  %296 = icmp slt i32 %295, 0
  br i1 %296, label %310, label %297

297:                                              ; preds = %293
  %298 = add nuw i32 %295, 1
  %299 = zext i32 %298 to i64
  br label %303

300:                                              ; preds = %303
  %301 = add nuw nsw i64 %304, 1
  %302 = icmp eq i64 %301, %299
  br i1 %302, label %310, label %303

303:                                              ; preds = %300, %297
  %304 = phi i64 [ 0, %297 ], [ %301, %300 ]
  %305 = getelementptr inbounds %"struct.pov::Ray_Struct", ptr %12, i64 0, i32 4, i64 %304
  %306 = load ptr, ptr %305, align 8, !tbaa !5
  %307 = getelementptr inbounds %"struct.pov::Interior_Struct", ptr %306, i64 0, i32 1
  %308 = load i32, ptr %307, align 4, !tbaa !79
  %309 = icmp eq i32 %308, 0
  br i1 %309, label %315, label %300

310:                                              ; preds = %300, %293
  %311 = load i32, ptr getelementptr inbounds (%"struct.pov::OPTIONS_STRUCT", ptr @_ZN3pov4optsE, i64 0, i32 13), align 8, !tbaa !70
  %312 = and i32 %311, 128
  %313 = icmp eq i32 %312, 0
  br i1 %313, label %315, label %314

314:                                              ; preds = %310
  call void @_ZN3pov20Do_Finite_AtmosphereEPNS_10Ray_StructEPNS_10istk_entryEPfi(ptr noundef nonnull %12, ptr noundef nonnull %11, ptr noundef nonnull %5, i32 noundef 1)
  br label %315

315:                                              ; preds = %303, %288, %314, %310, %274, %270, %267
  call void @llvm.lifetime.end.p0(i64 856, ptr nonnull %12) #12
  call void @llvm.lifetime.end.p0(i64 200, ptr nonnull %11) #12
  call void @llvm.lifetime.end.p0(i64 8, ptr nonnull %10) #12
  ret void
}

; Function Attrs: sspstrong uwtable
define dso_local void @_ZN3pov10do_diffuseEPNS_13Finish_StructEPNS_10Ray_StructEPdPfS5_S5_d(ptr nocapture noundef readonly %0, ptr nocapture noundef readonly %1, ptr nocapture noundef readonly %2, ptr nocapture noundef %3, ptr nocapture noundef readonly %4, ptr nocapture noundef readonly %5, double noundef %6) local_unnamed_addr #0 {
  %8 = getelementptr inbounds %"struct.pov::Ray_Struct", ptr %1, i64 0, i32 1
  %9 = load double, ptr %2, align 8, !tbaa !20
  %10 = load double, ptr %8, align 8, !tbaa !20
  %11 = getelementptr inbounds double, ptr %2, i64 1
  %12 = load double, ptr %11, align 8, !tbaa !20
  %13 = getelementptr inbounds %"struct.pov::Ray_Struct", ptr %1, i64 0, i32 1, i64 1
  %14 = load double, ptr %13, align 8, !tbaa !20
  %15 = fmul double %12, %14
  %16 = tail call double @llvm.fmuladd.f64(double %9, double %10, double %15)
  %17 = getelementptr inbounds double, ptr %2, i64 2
  %18 = load double, ptr %17, align 8, !tbaa !20
  %19 = getelementptr inbounds %"struct.pov::Ray_Struct", ptr %1, i64 0, i32 1, i64 2
  %20 = load double, ptr %19, align 8, !tbaa !20
  %21 = tail call double @llvm.fmuladd.f64(double %18, double %20, double %16)
  %22 = getelementptr inbounds %"struct.pov::Finish_Struct", ptr %0, i64 0, i32 1
  %23 = load float, ptr %22, align 4, !tbaa !107
  %24 = fcmp une float %23, 1.000000e+00
  br i1 %24, label %25, label %29

25:                                               ; preds = %7
  %26 = fpext float %23 to double
  %27 = tail call double @llvm.fabs.f64(double %21)
  %28 = tail call double @pow(double noundef %27, double noundef %26) #12
  br label %31

29:                                               ; preds = %7
  %30 = tail call double @llvm.fabs.f64(double %21)
  br label %31

31:                                               ; preds = %29, %25
  %32 = phi double [ %28, %25 ], [ %30, %29 ]
  %33 = load float, ptr %0, align 4, !tbaa !109
  %34 = fpext float %33 to double
  %35 = fmul double %34, %6
  %36 = fmul double %32, %35
  %37 = getelementptr inbounds %"struct.pov::Finish_Struct", ptr %0, i64 0, i32 14
  %38 = load float, ptr %37, align 4, !tbaa !110
  %39 = fcmp ogt float %38, 0.000000e+00
  br i1 %39, label %40, label %49

40:                                               ; preds = %31
  %41 = tail call noundef i32 @_ZN3pov8POV_RANDEv()
  %42 = sitofp i32 %41 to double
  %43 = load float, ptr %37, align 4, !tbaa !110
  %44 = fpext float %43 to double
  %45 = fmul double %42, 0xBF0000200040021E
  %46 = tail call double @llvm.fmuladd.f64(double %45, double %44, double %36)
  %47 = fcmp olt double %46, 0.000000e+00
  br i1 %47, label %48, label %49

48:                                               ; preds = %40
  br label %49

49:                                               ; preds = %40, %48, %31
  %50 = phi double [ 0.000000e+00, %48 ], [ %46, %40 ], [ %36, %31 ]
  %51 = load float, ptr %5, align 4, !tbaa !34
  %52 = fpext float %51 to double
  %53 = fmul double %50, %52
  %54 = load float, ptr %4, align 4, !tbaa !34
  %55 = fpext float %54 to double
  %56 = load float, ptr %3, align 4, !tbaa !34
  %57 = fpext float %56 to double
  %58 = tail call double @llvm.fmuladd.f64(double %53, double %55, double %57)
  %59 = fptrunc double %58 to float
  store float %59, ptr %3, align 4, !tbaa !34
  %60 = getelementptr inbounds float, ptr %5, i64 1
  %61 = load float, ptr %60, align 4, !tbaa !34
  %62 = fpext float %61 to double
  %63 = fmul double %50, %62
  %64 = getelementptr inbounds float, ptr %4, i64 1
  %65 = load float, ptr %64, align 4, !tbaa !34
  %66 = fpext float %65 to double
  %67 = getelementptr inbounds float, ptr %3, i64 1
  %68 = load float, ptr %67, align 4, !tbaa !34
  %69 = fpext float %68 to double
  %70 = tail call double @llvm.fmuladd.f64(double %63, double %66, double %69)
  %71 = fptrunc double %70 to float
  store float %71, ptr %67, align 4, !tbaa !34
  %72 = getelementptr inbounds float, ptr %5, i64 2
  %73 = load float, ptr %72, align 4, !tbaa !34
  %74 = fpext float %73 to double
  %75 = fmul double %50, %74
  %76 = getelementptr inbounds float, ptr %4, i64 2
  %77 = load float, ptr %76, align 4, !tbaa !34
  %78 = fpext float %77 to double
  %79 = getelementptr inbounds float, ptr %3, i64 2
  %80 = load float, ptr %79, align 4, !tbaa !34
  %81 = fpext float %80 to double
  %82 = tail call double @llvm.fmuladd.f64(double %75, double %78, double %81)
  %83 = fptrunc double %82 to float
  store float %83, ptr %79, align 4, !tbaa !34
  ret void
}

; Function Attrs: mustprogress nofree nounwind willreturn memory(write)
declare double @pow(double noundef, double noundef) local_unnamed_addr #5

; Function Attrs: mustprogress nocallback nofree nosync nounwind speculatable willreturn memory(none)
declare double @llvm.fabs.f64(double) #4

declare noundef i32 @_ZN3pov8POV_RANDEv() local_unnamed_addr #2

; Function Attrs: mustprogress nofree nounwind sspstrong willreturn memory(write, argmem: readwrite) uwtable
define dso_local void @_ZN3pov8do_phongEPNS_13Finish_StructEPNS_10Ray_StructEPdS4_PfS5_S5_(ptr nocapture noundef readonly %0, ptr nocapture noundef readonly %1, ptr nocapture noundef readonly %2, ptr nocapture noundef readonly %3, ptr nocapture noundef %4, ptr nocapture noundef readonly %5, ptr nocapture noundef readonly %6) local_unnamed_addr #6 {
  %8 = load double, ptr %2, align 8, !tbaa !20
  %9 = load double, ptr %3, align 8, !tbaa !20
  %10 = getelementptr inbounds double, ptr %2, i64 1
  %11 = load double, ptr %10, align 8, !tbaa !20
  %12 = getelementptr inbounds double, ptr %3, i64 1
  %13 = load double, ptr %12, align 8, !tbaa !20
  %14 = fmul double %11, %13
  %15 = tail call double @llvm.fmuladd.f64(double %8, double %9, double %14)
  %16 = getelementptr inbounds double, ptr %2, i64 2
  %17 = load double, ptr %16, align 8, !tbaa !20
  %18 = getelementptr inbounds double, ptr %3, i64 2
  %19 = load double, ptr %18, align 8, !tbaa !20
  %20 = tail call double @llvm.fmuladd.f64(double %17, double %19, double %15)
  %21 = fmul double %20, -2.000000e+00
  %22 = fmul double %9, %21
  %23 = fadd double %8, %22
  %24 = fmul double %13, %21
  %25 = fadd double %11, %24
  %26 = fmul double %19, %21
  %27 = fadd double %17, %26
  %28 = getelementptr inbounds %"struct.pov::Ray_Struct", ptr %1, i64 0, i32 1
  %29 = load double, ptr %28, align 8, !tbaa !20
  %30 = getelementptr inbounds %"struct.pov::Ray_Struct", ptr %1, i64 0, i32 1, i64 1
  %31 = load double, ptr %30, align 8, !tbaa !20
  %32 = fmul double %31, %25
  %33 = tail call double @llvm.fmuladd.f64(double %23, double %29, double %32)
  %34 = getelementptr inbounds %"struct.pov::Ray_Struct", ptr %1, i64 0, i32 1, i64 2
  %35 = load double, ptr %34, align 8, !tbaa !20
  %36 = tail call double @llvm.fmuladd.f64(double %27, double %35, double %33)
  %37 = fcmp ogt double %36, 0.000000e+00
  br i1 %37, label %38, label %132

38:                                               ; preds = %7
  %39 = getelementptr inbounds %"struct.pov::Finish_Struct", ptr %0, i64 0, i32 5
  %40 = load float, ptr %39, align 4, !tbaa !111
  %41 = fcmp olt float %40, 6.000000e+01
  %42 = fcmp ogt double %36, 8.000000e-04
  %43 = or i1 %42, %41
  br i1 %43, label %44, label %51

44:                                               ; preds = %38
  %45 = getelementptr inbounds %"struct.pov::Finish_Struct", ptr %0, i64 0, i32 4
  %46 = load float, ptr %45, align 4, !tbaa !112
  %47 = fpext float %46 to double
  %48 = fpext float %40 to double
  %49 = tail call double @pow(double noundef %36, double noundef %48) #12
  %50 = fmul double %49, %47
  br label %51

51:                                               ; preds = %38, %44
  %52 = phi double [ %50, %44 ], [ 0.000000e+00, %38 ]
  %53 = getelementptr inbounds %"struct.pov::Finish_Struct", ptr %0, i64 0, i32 15
  %54 = load float, ptr %53, align 4, !tbaa !113
  %55 = fcmp ogt float %54, 0.000000e+00
  br i1 %55, label %56, label %109

56:                                               ; preds = %51
  %57 = load double, ptr %3, align 8, !tbaa !20
  %58 = load double, ptr %28, align 8, !tbaa !20
  %59 = load double, ptr %12, align 8, !tbaa !20
  %60 = load double, ptr %30, align 8, !tbaa !20
  %61 = fmul double %59, %60
  %62 = tail call double @llvm.fmuladd.f64(double %57, double %58, double %61)
  %63 = load double, ptr %18, align 8, !tbaa !20
  %64 = load double, ptr %34, align 8, !tbaa !20
  %65 = tail call double @llvm.fmuladd.f64(double %63, double %64, double %62)
  %66 = tail call double @acos(double noundef %65) #12
  %67 = tail call double @llvm.fabs.f64(double %66)
  %68 = fdiv double %67, 0x3FF921FB54442D18
  %69 = fadd double %68, -1.120000e+00
  %70 = fmul double %69, %69
  %71 = fdiv double 0x3F8DD56BD7BF6F16, %70
  %72 = fadd double %71, 0xBF87C88174C5E0DC
  %73 = fcmp ogt double %72, 0.000000e+00
  %74 = select i1 %73, double %72, double 0.000000e+00
  %75 = fcmp olt double %74, 1.000000e+00
  %76 = fsub double 1.000000e+00, %74
  %77 = load float, ptr %53, align 4, !tbaa !113
  %78 = fpext float %77 to double
  %79 = select i1 %75, double %76, double 0.000000e+00
  %80 = fmul double %79, %78
  %81 = getelementptr inbounds float, ptr %5, i64 2
  %82 = load float, ptr %81, align 4, !tbaa !34
  %83 = fpext float %82 to double
  %84 = getelementptr inbounds float, ptr %6, i64 2
  %85 = load float, ptr %84, align 4, !tbaa !34
  %86 = fpext float %85 to double
  %87 = fadd double %86, -1.000000e+00
  %88 = tail call double @llvm.fmuladd.f64(double %80, double %87, double 1.000000e+00)
  %89 = fmul double %88, %83
  %90 = fptrunc double %89 to float
  %91 = fptrunc double %52 to float
  %92 = load <2 x float>, ptr %5, align 4, !tbaa !34
  %93 = fpext <2 x float> %92 to <2 x double>
  %94 = load <2 x float>, ptr %6, align 4, !tbaa !34
  %95 = fpext <2 x float> %94 to <2 x double>
  %96 = fadd <2 x double> %95, <double -1.000000e+00, double -1.000000e+00>
  %97 = insertelement <2 x double> poison, double %80, i64 0
  %98 = shufflevector <2 x double> %97, <2 x double> poison, <2 x i32> zeroinitializer
  %99 = tail call <2 x double> @llvm.fmuladd.v2f64(<2 x double> %98, <2 x double> %96, <2 x double> <double 1.000000e+00, double 1.000000e+00>)
  %100 = fmul <2 x double> %99, %93
  %101 = fptrunc <2 x double> %100 to <2 x float>
  %102 = load <2 x float>, ptr %4, align 4, !tbaa !34
  %103 = insertelement <2 x float> poison, float %91, i64 0
  %104 = shufflevector <2 x float> %103, <2 x float> poison, <2 x i32> zeroinitializer
  %105 = tail call <2 x float> @llvm.fmuladd.v2f32(<2 x float> %104, <2 x float> %101, <2 x float> %102)
  store <2 x float> %105, ptr %4, align 4, !tbaa !34
  %106 = getelementptr inbounds float, ptr %4, i64 2
  %107 = load float, ptr %106, align 4, !tbaa !34
  %108 = tail call float @llvm.fmuladd.f32(float %91, float %90, float %107)
  store float %108, ptr %106, align 4, !tbaa !34
  br label %132

109:                                              ; preds = %51
  %110 = load float, ptr %5, align 4, !tbaa !34
  %111 = fpext float %110 to double
  %112 = load float, ptr %4, align 4, !tbaa !34
  %113 = fpext float %112 to double
  %114 = tail call double @llvm.fmuladd.f64(double %52, double %111, double %113)
  %115 = fptrunc double %114 to float
  store float %115, ptr %4, align 4, !tbaa !34
  %116 = getelementptr inbounds float, ptr %5, i64 1
  %117 = load float, ptr %116, align 4, !tbaa !34
  %118 = fpext float %117 to double
  %119 = getelementptr inbounds float, ptr %4, i64 1
  %120 = load float, ptr %119, align 4, !tbaa !34
  %121 = fpext float %120 to double
  %122 = tail call double @llvm.fmuladd.f64(double %52, double %118, double %121)
  %123 = fptrunc double %122 to float
  store float %123, ptr %119, align 4, !tbaa !34
  %124 = getelementptr inbounds float, ptr %5, i64 2
  %125 = load float, ptr %124, align 4, !tbaa !34
  %126 = fpext float %125 to double
  %127 = getelementptr inbounds float, ptr %4, i64 2
  %128 = load float, ptr %127, align 4, !tbaa !34
  %129 = fpext float %128 to double
  %130 = tail call double @llvm.fmuladd.f64(double %52, double %126, double %129)
  %131 = fptrunc double %130 to float
  store float %131, ptr %127, align 4, !tbaa !34
  br label %132

132:                                              ; preds = %56, %109, %7
  ret void
}

; Function Attrs: mustprogress nofree nounwind willreturn memory(write)
declare double @acos(double noundef) local_unnamed_addr #5

; Function Attrs: mustprogress nofree nounwind sspstrong willreturn memory(write, argmem: readwrite) uwtable
define dso_local void @_ZN3pov11do_specularEPNS_13Finish_StructEPNS_10Ray_StructEPdS4_PfS5_S5_(ptr nocapture noundef readonly %0, ptr nocapture noundef readonly %1, ptr nocapture noundef readonly %2, ptr nocapture noundef readonly %3, ptr nocapture noundef %4, ptr nocapture noundef readonly %5, ptr nocapture noundef readonly %6) local_unnamed_addr #6 {
  %8 = getelementptr inbounds %"struct.pov::Ray_Struct", ptr %1, i64 0, i32 1
  %9 = load double, ptr %2, align 8, !tbaa !20
  %10 = load double, ptr %8, align 8, !tbaa !20
  %11 = fadd double %9, %10
  %12 = fmul double %11, 5.000000e-01
  %13 = getelementptr inbounds double, ptr %2, i64 1
  %14 = load double, ptr %13, align 8, !tbaa !20
  %15 = getelementptr inbounds %"struct.pov::Ray_Struct", ptr %1, i64 0, i32 1, i64 1
  %16 = load double, ptr %15, align 8, !tbaa !20
  %17 = fadd double %14, %16
  %18 = fmul double %17, 5.000000e-01
  %19 = getelementptr inbounds double, ptr %2, i64 2
  %20 = load double, ptr %19, align 8, !tbaa !20
  %21 = getelementptr inbounds %"struct.pov::Ray_Struct", ptr %1, i64 0, i32 1, i64 2
  %22 = load double, ptr %21, align 8, !tbaa !20
  %23 = fadd double %20, %22
  %24 = fmul double %23, 5.000000e-01
  %25 = fmul double %18, %18
  %26 = tail call double @llvm.fmuladd.f64(double %12, double %12, double %25)
  %27 = tail call double @llvm.fmuladd.f64(double %24, double %24, double %26)
  %28 = tail call double @llvm.sqrt.f64(double %27)
  %29 = fcmp ogt double %28, 0.000000e+00
  br i1 %29, label %30, label %129

30:                                               ; preds = %7
  %31 = load double, ptr %3, align 8, !tbaa !20
  %32 = getelementptr inbounds double, ptr %3, i64 1
  %33 = load double, ptr %32, align 8, !tbaa !20
  %34 = fmul double %18, %33
  %35 = tail call double @llvm.fmuladd.f64(double %12, double %31, double %34)
  %36 = getelementptr inbounds double, ptr %3, i64 2
  %37 = load double, ptr %36, align 8, !tbaa !20
  %38 = tail call double @llvm.fmuladd.f64(double %24, double %37, double %35)
  %39 = fdiv double %38, %28
  %40 = fcmp ogt double %39, 0.000000e+00
  br i1 %40, label %41, label %129

41:                                               ; preds = %30
  %42 = getelementptr inbounds %"struct.pov::Finish_Struct", ptr %0, i64 0, i32 2
  %43 = load float, ptr %42, align 4, !tbaa !114
  %44 = fpext float %43 to double
  %45 = getelementptr inbounds %"struct.pov::Finish_Struct", ptr %0, i64 0, i32 3
  %46 = load float, ptr %45, align 4, !tbaa !115
  %47 = fpext float %46 to double
  %48 = tail call double @pow(double noundef %39, double noundef %47) #12
  %49 = fmul double %48, %44
  %50 = getelementptr inbounds %"struct.pov::Finish_Struct", ptr %0, i64 0, i32 15
  %51 = load float, ptr %50, align 4, !tbaa !113
  %52 = fcmp ogt float %51, 0.000000e+00
  br i1 %52, label %53, label %106

53:                                               ; preds = %41
  %54 = load double, ptr %3, align 8, !tbaa !20
  %55 = load double, ptr %8, align 8, !tbaa !20
  %56 = load double, ptr %32, align 8, !tbaa !20
  %57 = load double, ptr %15, align 8, !tbaa !20
  %58 = fmul double %56, %57
  %59 = tail call double @llvm.fmuladd.f64(double %54, double %55, double %58)
  %60 = load double, ptr %36, align 8, !tbaa !20
  %61 = load double, ptr %21, align 8, !tbaa !20
  %62 = tail call double @llvm.fmuladd.f64(double %60, double %61, double %59)
  %63 = tail call double @acos(double noundef %62) #12
  %64 = tail call double @llvm.fabs.f64(double %63)
  %65 = fdiv double %64, 0x3FF921FB54442D18
  %66 = fadd double %65, -1.120000e+00
  %67 = fmul double %66, %66
  %68 = fdiv double 0x3F8DD56BD7BF6F16, %67
  %69 = fadd double %68, 0xBF87C88174C5E0DC
  %70 = fcmp ogt double %69, 0.000000e+00
  %71 = select i1 %70, double %69, double 0.000000e+00
  %72 = fcmp olt double %71, 1.000000e+00
  %73 = fsub double 1.000000e+00, %71
  %74 = load float, ptr %50, align 4, !tbaa !113
  %75 = fpext float %74 to double
  %76 = select i1 %72, double %73, double 0.000000e+00
  %77 = fmul double %76, %75
  %78 = getelementptr inbounds float, ptr %5, i64 2
  %79 = load float, ptr %78, align 4, !tbaa !34
  %80 = fpext float %79 to double
  %81 = getelementptr inbounds float, ptr %6, i64 2
  %82 = load float, ptr %81, align 4, !tbaa !34
  %83 = fpext float %82 to double
  %84 = fadd double %83, -1.000000e+00
  %85 = tail call double @llvm.fmuladd.f64(double %77, double %84, double 1.000000e+00)
  %86 = fmul double %85, %80
  %87 = fptrunc double %86 to float
  %88 = fptrunc double %49 to float
  %89 = load <2 x float>, ptr %5, align 4, !tbaa !34
  %90 = fpext <2 x float> %89 to <2 x double>
  %91 = load <2 x float>, ptr %6, align 4, !tbaa !34
  %92 = fpext <2 x float> %91 to <2 x double>
  %93 = fadd <2 x double> %92, <double -1.000000e+00, double -1.000000e+00>
  %94 = insertelement <2 x double> poison, double %77, i64 0
  %95 = shufflevector <2 x double> %94, <2 x double> poison, <2 x i32> zeroinitializer
  %96 = tail call <2 x double> @llvm.fmuladd.v2f64(<2 x double> %95, <2 x double> %93, <2 x double> <double 1.000000e+00, double 1.000000e+00>)
  %97 = fmul <2 x double> %96, %90
  %98 = fptrunc <2 x double> %97 to <2 x float>
  %99 = load <2 x float>, ptr %4, align 4, !tbaa !34
  %100 = insertelement <2 x float> poison, float %88, i64 0
  %101 = shufflevector <2 x float> %100, <2 x float> poison, <2 x i32> zeroinitializer
  %102 = tail call <2 x float> @llvm.fmuladd.v2f32(<2 x float> %101, <2 x float> %98, <2 x float> %99)
  store <2 x float> %102, ptr %4, align 4, !tbaa !34
  %103 = getelementptr inbounds float, ptr %4, i64 2
  %104 = load float, ptr %103, align 4, !tbaa !34
  %105 = tail call float @llvm.fmuladd.f32(float %88, float %87, float %104)
  store float %105, ptr %103, align 4, !tbaa !34
  br label %129

106:                                              ; preds = %41
  %107 = load float, ptr %5, align 4, !tbaa !34
  %108 = fpext float %107 to double
  %109 = load float, ptr %4, align 4, !tbaa !34
  %110 = fpext float %109 to double
  %111 = tail call double @llvm.fmuladd.f64(double %49, double %108, double %110)
  %112 = fptrunc double %111 to float
  store float %112, ptr %4, align 4, !tbaa !34
  %113 = getelementptr inbounds float, ptr %5, i64 1
  %114 = load float, ptr %113, align 4, !tbaa !34
  %115 = fpext float %114 to double
  %116 = getelementptr inbounds float, ptr %4, i64 1
  %117 = load float, ptr %116, align 4, !tbaa !34
  %118 = fpext float %117 to double
  %119 = tail call double @llvm.fmuladd.f64(double %49, double %115, double %118)
  %120 = fptrunc double %119 to float
  store float %120, ptr %116, align 4, !tbaa !34
  %121 = getelementptr inbounds float, ptr %5, i64 2
  %122 = load float, ptr %121, align 4, !tbaa !34
  %123 = fpext float %122 to double
  %124 = getelementptr inbounds float, ptr %4, i64 2
  %125 = load float, ptr %124, align 4, !tbaa !34
  %126 = fpext float %125 to double
  %127 = tail call double @llvm.fmuladd.f64(double %49, double %123, double %126)
  %128 = fptrunc double %127 to float
  store float %128, ptr %124, align 4, !tbaa !34
  br label %129

129:                                              ; preds = %30, %106, %53, %7
  ret void
}

; Function Attrs: sspstrong uwtable
define dso_local void @_ZN3pov22ResizeMediaMallocPoolsEl(i64 noundef %0) local_unnamed_addr #0 {
  %2 = load i32, ptr getelementptr inbounds (%"struct.pov::Frame_Struct", ptr @_ZN3pov5FrameE, i64 0, i32 3), align 8, !tbaa !11
  %3 = load i64, ptr @_ZN3pov19MediaMallocPoolSizeE, align 8, !tbaa !14
  %4 = load i64, ptr @_ZN3pov19TotalMallocPoolSizeE, align 8, !tbaa !14
  %5 = sub nsw i64 %4, %3
  store i64 %5, ptr @_ZN3pov19TotalMallocPoolSizeE, align 8, !tbaa !14
  %6 = load ptr, ptr @_ZN3pov23ShadowMediaListPoolSizeE, align 8, !tbaa !5
  %7 = shl i64 %0, 3
  %8 = tail call noundef ptr @_ZN3pov11pov_reallocEPvmPKciS2_(ptr noundef %6, i64 noundef %7, ptr noundef nonnull @.str, i32 noundef 6149, ptr noundef nonnull @.str.3)
  store ptr %8, ptr @_ZN3pov23ShadowMediaListPoolSizeE, align 8, !tbaa !5
  %9 = load ptr, ptr @_ZN3pov25LightingMediaListPoolSizeE, align 8, !tbaa !5
  %10 = tail call noundef ptr @_ZN3pov11pov_reallocEPvmPKciS2_(ptr noundef %9, i64 noundef %7, ptr noundef nonnull @.str, i32 noundef 6150, ptr noundef nonnull @.str.3)
  store ptr %10, ptr @_ZN3pov25LightingMediaListPoolSizeE, align 8, !tbaa !5
  %11 = load ptr, ptr @_ZN3pov21MediaIntervalPoolSizeE, align 8, !tbaa !5
  %12 = tail call noundef ptr @_ZN3pov11pov_reallocEPvmPKciS2_(ptr noundef %11, i64 noundef %7, ptr noundef nonnull @.str, i32 noundef 6151, ptr noundef nonnull @.str.3)
  store ptr %12, ptr @_ZN3pov21MediaIntervalPoolSizeE, align 8, !tbaa !5
  %13 = load ptr, ptr @_ZN3pov19ShadowMediaListPoolE, align 8, !tbaa !5
  %14 = tail call noundef ptr @_ZN3pov11pov_reallocEPvmPKciS2_(ptr noundef %13, i64 noundef %7, ptr noundef nonnull @.str, i32 noundef 6153, ptr noundef nonnull @.str.3)
  store ptr %14, ptr @_ZN3pov19ShadowMediaListPoolE, align 8, !tbaa !5
  %15 = load ptr, ptr @_ZN3pov21LightingMediaListPoolE, align 8, !tbaa !5
  %16 = tail call noundef ptr @_ZN3pov11pov_reallocEPvmPKciS2_(ptr noundef %15, i64 noundef %7, ptr noundef nonnull @.str, i32 noundef 6154, ptr noundef nonnull @.str.3)
  store ptr %16, ptr @_ZN3pov21LightingMediaListPoolE, align 8, !tbaa !5
  %17 = load ptr, ptr @_ZN3pov18MediaLightListPoolE, align 8, !tbaa !5
  %18 = tail call noundef ptr @_ZN3pov11pov_reallocEPvmPKciS2_(ptr noundef %17, i64 noundef %7, ptr noundef nonnull @.str, i32 noundef 6155, ptr noundef nonnull @.str.4)
  store ptr %18, ptr @_ZN3pov18MediaLightListPoolE, align 8, !tbaa !5
  %19 = load ptr, ptr @_ZN3pov20MediaLitIntervalPoolE, align 8, !tbaa !5
  %20 = tail call noundef ptr @_ZN3pov11pov_reallocEPvmPKciS2_(ptr noundef %19, i64 noundef %7, ptr noundef nonnull @.str, i32 noundef 6156, ptr noundef nonnull @.str.5)
  store ptr %20, ptr @_ZN3pov20MediaLitIntervalPoolE, align 8, !tbaa !5
  %21 = load ptr, ptr @_ZN3pov17MediaIntervalPoolE, align 8, !tbaa !5
  %22 = tail call noundef ptr @_ZN3pov11pov_reallocEPvmPKciS2_(ptr noundef %21, i64 noundef %7, ptr noundef nonnull @.str, i32 noundef 6157, ptr noundef nonnull @.str.6)
  store ptr %22, ptr @_ZN3pov17MediaIntervalPoolE, align 8, !tbaa !5
  %23 = load i64, ptr @_ZN3pov17MaxMediaPoolDepthE, align 8, !tbaa !14
  %24 = shl i64 %23, 32
  %25 = ashr exact i64 %24, 32
  %26 = icmp slt i64 %25, %0
  br i1 %26, label %29, label %27

27:                                               ; preds = %1
  %28 = load i64, ptr @_ZN3pov19MediaMallocPoolSizeE, align 8, !tbaa !14
  br label %67

29:                                               ; preds = %1
  %30 = icmp eq i32 %2, 0
  %31 = select i1 %30, i32 2, i32 %2
  %32 = sext i32 %31 to i64
  %33 = shl nsw i64 %32, 5
  %34 = shl nsw i32 %31, 1
  %35 = or i32 %34, 1
  %36 = sext i32 %35 to i64
  %37 = shl nsw i64 %36, 5
  %38 = add nsw i64 %33, 1120
  %39 = add nsw i64 %38, %37
  br label %40

40:                                               ; preds = %29, %40
  %41 = phi i64 [ %25, %29 ], [ %65, %40 ]
  %42 = tail call noundef ptr @_ZN3pov10pov_mallocEmPKciS1_(i64 noundef 80, ptr noundef nonnull @.str, i32 noundef 6162, ptr noundef nonnull @.str.3)
  %43 = load ptr, ptr @_ZN3pov19ShadowMediaListPoolE, align 8, !tbaa !5
  %44 = getelementptr inbounds ptr, ptr %43, i64 %41
  store ptr %42, ptr %44, align 8, !tbaa !5
  %45 = load ptr, ptr @_ZN3pov23ShadowMediaListPoolSizeE, align 8, !tbaa !5
  %46 = getelementptr inbounds i64, ptr %45, i64 %41
  store i64 10, ptr %46, align 8, !tbaa !14
  %47 = tail call noundef ptr @_ZN3pov10pov_mallocEmPKciS1_(i64 noundef 80, ptr noundef nonnull @.str, i32 noundef 6164, ptr noundef nonnull @.str.3)
  %48 = load ptr, ptr @_ZN3pov21LightingMediaListPoolE, align 8, !tbaa !5
  %49 = getelementptr inbounds ptr, ptr %48, i64 %41
  store ptr %47, ptr %49, align 8, !tbaa !5
  %50 = load ptr, ptr @_ZN3pov25LightingMediaListPoolSizeE, align 8, !tbaa !5
  %51 = getelementptr inbounds i64, ptr %50, i64 %41
  store i64 10, ptr %51, align 8, !tbaa !14
  %52 = tail call noundef ptr @_ZN3pov10pov_mallocEmPKciS1_(i64 noundef %33, ptr noundef nonnull @.str, i32 noundef 6166, ptr noundef nonnull @.str.4)
  %53 = load ptr, ptr @_ZN3pov18MediaLightListPoolE, align 8, !tbaa !5
  %54 = getelementptr inbounds ptr, ptr %53, i64 %41
  store ptr %52, ptr %54, align 8, !tbaa !5
  %55 = tail call noundef ptr @_ZN3pov10pov_mallocEmPKciS1_(i64 noundef %37, ptr noundef nonnull @.str, i32 noundef 6167, ptr noundef nonnull @.str.5)
  %56 = load ptr, ptr @_ZN3pov20MediaLitIntervalPoolE, align 8, !tbaa !5
  %57 = getelementptr inbounds ptr, ptr %56, i64 %41
  store ptr %55, ptr %57, align 8, !tbaa !5
  %58 = tail call noundef ptr @_ZN3pov10pov_mallocEmPKciS1_(i64 noundef 960, ptr noundef nonnull @.str, i32 noundef 6168, ptr noundef nonnull @.str.6)
  %59 = load ptr, ptr @_ZN3pov17MediaIntervalPoolE, align 8, !tbaa !5
  %60 = getelementptr inbounds ptr, ptr %59, i64 %41
  store ptr %58, ptr %60, align 8, !tbaa !5
  %61 = load ptr, ptr @_ZN3pov21MediaIntervalPoolSizeE, align 8, !tbaa !5
  %62 = getelementptr inbounds i64, ptr %61, i64 %41
  store i64 10, ptr %62, align 8, !tbaa !14
  %63 = load i64, ptr @_ZN3pov19MediaMallocPoolSizeE, align 8, !tbaa !14
  %64 = add i64 %39, %63
  store i64 %64, ptr @_ZN3pov19MediaMallocPoolSizeE, align 8, !tbaa !14
  %65 = add nsw i64 %41, 1
  %66 = icmp slt i64 %65, %0
  br i1 %66, label %40, label %67

67:                                               ; preds = %40, %27
  %68 = phi i64 [ %28, %27 ], [ %64, %40 ]
  store i64 %0, ptr @_ZN3pov17MaxMediaPoolDepthE, align 8, !tbaa !14
  %69 = load i64, ptr @_ZN3pov19TotalMallocPoolSizeE, align 8, !tbaa !14
  %70 = add nsw i64 %69, %68
  store i64 %70, ptr @_ZN3pov19TotalMallocPoolSizeE, align 8, !tbaa !14
  ret void
}

declare noundef ptr @_ZN3pov11pov_reallocEPvmPKciS2_(ptr noundef, i64 noundef, ptr noundef, i32 noundef, ptr noundef) local_unnamed_addr #2

; Function Attrs: sspstrong uwtable
define dso_local noundef ptr @_ZN3pov13NewComTexDataEv() local_unnamed_addr #0 {
  %1 = load ptr, ptr @_ZN3pov22ComputeTextureFreePoolE, align 8, !tbaa !5
  %2 = icmp eq ptr %1, null
  br i1 %2, label %18, label %3

3:                                                ; preds = %0
  %4 = load ptr, ptr %1, align 8, !tbaa !116
  %5 = icmp eq ptr %4, null
  br i1 %5, label %10, label %6

6:                                                ; preds = %3
  %7 = getelementptr inbounds %"struct.pov::ComTexData_Struct", ptr %1, i64 0, i32 1
  %8 = load ptr, ptr %7, align 8, !tbaa !16
  %9 = getelementptr inbounds %"struct.pov::ComTexData_Struct", ptr %4, i64 0, i32 1
  store ptr %8, ptr %9, align 8, !tbaa !16
  br label %10

10:                                               ; preds = %6, %3
  %11 = getelementptr inbounds %"struct.pov::ComTexData_Struct", ptr %1, i64 0, i32 1
  %12 = load ptr, ptr %11, align 8, !tbaa !16
  %13 = icmp eq ptr %12, null
  br i1 %13, label %17, label %14

14:                                               ; preds = %10
  store ptr %4, ptr %12, align 8, !tbaa !116
  %15 = load ptr, ptr @_ZN3pov22ComputeTextureFreePoolE, align 8, !tbaa !5
  %16 = icmp eq ptr %1, %15
  br i1 %16, label %17, label %22

17:                                               ; preds = %10, %14
  store ptr %12, ptr @_ZN3pov22ComputeTextureFreePoolE, align 8, !tbaa !5
  br label %22

18:                                               ; preds = %0
  %19 = tail call noundef ptr @_ZN3pov10pov_mallocEmPKciS1_(i64 noundef 5616, ptr noundef nonnull @.str, i32 noundef 6252, ptr noundef nonnull @.str.8)
  %20 = load i32, ptr @_ZN3pov22ComputeTexturePoolSizeE, align 4, !tbaa !9
  %21 = add nsw i32 %20, 1
  store i32 %21, ptr @_ZN3pov22ComputeTexturePoolSizeE, align 4, !tbaa !9
  br label %22

22:                                               ; preds = %14, %17, %18
  %23 = phi ptr [ %1, %17 ], [ %1, %14 ], [ %19, %18 ]
  store ptr null, ptr %23, align 8, !tbaa !116
  %24 = load ptr, ptr @_ZN3pov22ComputeTextureUsedPoolE, align 8, !tbaa !5
  %25 = getelementptr inbounds %"struct.pov::ComTexData_Struct", ptr %23, i64 0, i32 1
  store ptr %24, ptr %25, align 8, !tbaa !16
  %26 = icmp eq ptr %24, null
  br i1 %26, label %28, label %27

27:                                               ; preds = %22
  store ptr %23, ptr %24, align 8, !tbaa !116
  br label %28

28:                                               ; preds = %27, %22
  store ptr %23, ptr @_ZN3pov22ComputeTextureUsedPoolE, align 8, !tbaa !5
  ret ptr %23
}

; Function Attrs: mustprogress nofree norecurse nosync nounwind sspstrong willreturn memory(readwrite, inaccessiblemem: none) uwtable
define dso_local void @_ZN3pov14FreeComTexDataEPNS_17ComTexData_StructE(ptr noundef %0) local_unnamed_addr #7 {
  %2 = icmp eq ptr %0, null
  br i1 %2, label %24, label %3

3:                                                ; preds = %1
  %4 = load ptr, ptr %0, align 8, !tbaa !116
  %5 = icmp eq ptr %4, null
  br i1 %5, label %10, label %6

6:                                                ; preds = %3
  %7 = getelementptr inbounds %"struct.pov::ComTexData_Struct", ptr %0, i64 0, i32 1
  %8 = load ptr, ptr %7, align 8, !tbaa !16
  %9 = getelementptr inbounds %"struct.pov::ComTexData_Struct", ptr %4, i64 0, i32 1
  store ptr %8, ptr %9, align 8, !tbaa !16
  br label %10

10:                                               ; preds = %6, %3
  %11 = getelementptr inbounds %"struct.pov::ComTexData_Struct", ptr %0, i64 0, i32 1
  %12 = load ptr, ptr %11, align 8, !tbaa !16
  %13 = icmp eq ptr %12, null
  br i1 %13, label %15, label %14

14:                                               ; preds = %10
  store ptr %4, ptr %12, align 8, !tbaa !116
  br label %15

15:                                               ; preds = %14, %10
  %16 = load ptr, ptr @_ZN3pov22ComputeTextureUsedPoolE, align 8, !tbaa !5
  %17 = icmp eq ptr %16, %0
  br i1 %17, label %18, label %19

18:                                               ; preds = %15
  store ptr %12, ptr @_ZN3pov22ComputeTextureUsedPoolE, align 8, !tbaa !5
  br label %19

19:                                               ; preds = %18, %15
  store ptr null, ptr %0, align 8, !tbaa !116
  %20 = load ptr, ptr @_ZN3pov22ComputeTextureFreePoolE, align 8, !tbaa !5
  store ptr %20, ptr %11, align 8, !tbaa !16
  %21 = icmp eq ptr %20, null
  br i1 %21, label %23, label %22

22:                                               ; preds = %19
  store ptr %0, ptr %20, align 8, !tbaa !116
  br label %23

23:                                               ; preds = %22, %19
  store ptr %0, ptr @_ZN3pov22ComputeTextureFreePoolE, align 8, !tbaa !5
  br label %24

24:                                               ; preds = %1, %23
  ret void
}

; Function Attrs: mustprogress nocallback nofree nosync nounwind speculatable willreturn memory(none)
declare float @llvm.fabs.f32(float) #4

declare noundef double @_ZN3pov15Attenuate_LightEPNS_19Light_Source_StructEPNS_10Ray_StructEd(ptr noundef, ptr noundef, double noundef) local_unnamed_addr #2

declare void @_ZN3pov25Initialize_Ray_ContainersEPNS_10Ray_StructEj(ptr noundef, i32 noundef) local_unnamed_addr #2

declare void @_ZN3pov19Copy_Ray_ContainersEPNS_10Ray_StructES1_(ptr noundef, ptr noundef) local_unnamed_addr #2

; Function Attrs: mustprogress nocallback nofree nosync nounwind speculatable willreturn memory(none)
declare float @llvm.fmuladd.f32(float, float, float) #4

; Function Attrs: mustprogress nofree nounwind willreturn memory(write)
declare double @sqrt(double noundef) local_unnamed_addr #5

declare void @_ZN3pov22Determine_CSG_TexturesEPNS_10CSG_StructEPdPiPPNS_14Texture_StructES2_(ptr noundef, ptr noundef, ptr noundef, ptr noundef, ptr noundef) local_unnamed_addr #2

declare void @_ZN3pov23Determine_Blob_TexturesEPNS_11Blob_StructEPdPiPPNS_14Texture_StructES2_(ptr noundef, ptr noundef, ptr noundef, ptr noundef, ptr noundef) local_unnamed_addr #2

declare noundef i32 @_ZN3pov16Mesh_InterpolateEPdS0_PNS_11Mesh_StructEPNS_20Mesh_Triangle_StructE(ptr noundef, ptr noundef, ptr noundef, ptr noundef) local_unnamed_addr #2

declare void @_ZN3pov11Warp_EPointEPdS0_PNS_14Pattern_StructE(ptr noundef, ptr noundef, ptr noundef) local_unnamed_addr #2

declare noundef ptr @_ZN3pov12material_mapEPdPNS_14Texture_StructE(ptr noundef, ptr noundef) local_unnamed_addr #2

; Function Attrs: sspstrong uwtable
define internal fastcc void @_ZN3povL25compute_backtrace_textureEPfPNS_14Texture_StructEPdS3_PNS_10Ray_StructEdPNS_10istk_entryE(ptr noundef %0, ptr noundef readonly %1, ptr noundef %2, ptr noundef %3, ptr noundef %4, double noundef %5, ptr noundef %6) unnamed_addr #0 {
  %8 = alloca %"struct.pov::Ray_Struct", align 16
  %9 = alloca [5 x float], align 16
  %10 = alloca [5 x float], align 16
  %11 = alloca [5 x float], align 16
  %12 = alloca [3 x double], align 16
  %13 = alloca [3 x double], align 16
  %14 = alloca [5 x float], align 16
  %15 = alloca [5 x float], align 16
  %16 = alloca [5 x float], align 16
  %17 = alloca %"struct.pov::Ray_Struct", align 16
  %18 = alloca %"struct.pov::Ray_Struct", align 8
  call void @llvm.lifetime.start.p0(i64 24, ptr nonnull %12) #12
  call void @llvm.lifetime.start.p0(i64 24, ptr nonnull %13) #12
  call void @llvm.lifetime.start.p0(i64 20, ptr nonnull %14) #12
  call void @llvm.lifetime.start.p0(i64 20, ptr nonnull %15) #12
  call void @llvm.lifetime.start.p0(i64 20, ptr nonnull %16) #12
  call void @llvm.lifetime.start.p0(i64 856, ptr nonnull %17) #12
  %19 = load ptr, ptr @_ZN3pov22ComputeTextureFreePoolE, align 8, !tbaa !5
  %20 = icmp eq ptr %19, null
  br i1 %20, label %36, label %21

21:                                               ; preds = %7
  %22 = load ptr, ptr %19, align 8, !tbaa !116
  %23 = icmp eq ptr %22, null
  br i1 %23, label %28, label %24

24:                                               ; preds = %21
  %25 = getelementptr inbounds %"struct.pov::ComTexData_Struct", ptr %19, i64 0, i32 1
  %26 = load ptr, ptr %25, align 8, !tbaa !16
  %27 = getelementptr inbounds %"struct.pov::ComTexData_Struct", ptr %22, i64 0, i32 1
  store ptr %26, ptr %27, align 8, !tbaa !16
  br label %28

28:                                               ; preds = %24, %21
  %29 = getelementptr inbounds %"struct.pov::ComTexData_Struct", ptr %19, i64 0, i32 1
  %30 = load ptr, ptr %29, align 8, !tbaa !16
  %31 = icmp eq ptr %30, null
  br i1 %31, label %35, label %32

32:                                               ; preds = %28
  store ptr %22, ptr %30, align 8, !tbaa !116
  %33 = load ptr, ptr @_ZN3pov22ComputeTextureFreePoolE, align 8, !tbaa !5
  %34 = icmp eq ptr %19, %33
  br i1 %34, label %35, label %40

35:                                               ; preds = %32, %28
  store ptr %30, ptr @_ZN3pov22ComputeTextureFreePoolE, align 8, !tbaa !5
  br label %40

36:                                               ; preds = %7
  %37 = tail call noundef ptr @_ZN3pov10pov_mallocEmPKciS1_(i64 noundef 5616, ptr noundef nonnull @.str, i32 noundef 6252, ptr noundef nonnull @.str.8)
  %38 = load i32, ptr @_ZN3pov22ComputeTexturePoolSizeE, align 4, !tbaa !9
  %39 = add nsw i32 %38, 1
  store i32 %39, ptr @_ZN3pov22ComputeTexturePoolSizeE, align 4, !tbaa !9
  br label %40

40:                                               ; preds = %36, %35, %32
  %41 = phi ptr [ %19, %35 ], [ %19, %32 ], [ %37, %36 ]
  store ptr null, ptr %41, align 8, !tbaa !116
  %42 = load ptr, ptr @_ZN3pov22ComputeTextureUsedPoolE, align 8, !tbaa !5
  %43 = getelementptr inbounds %"struct.pov::ComTexData_Struct", ptr %41, i64 0, i32 1
  store ptr %42, ptr %43, align 8, !tbaa !16
  %44 = icmp eq ptr %42, null
  br i1 %44, label %46, label %45

45:                                               ; preds = %40
  store ptr %41, ptr %42, align 8, !tbaa !116
  br label %46

46:                                               ; preds = %40, %45
  store ptr %41, ptr @_ZN3pov22ComputeTextureUsedPoolE, align 8, !tbaa !5
  %47 = getelementptr inbounds %"struct.pov::ComTexData_Struct", ptr %41, i64 0, i32 2
  %48 = getelementptr inbounds %"struct.pov::ComTexData_Struct", ptr %41, i64 0, i32 3
  %49 = getelementptr inbounds %"struct.pov::ComTexData_Struct", ptr %41, i64 0, i32 4
  %50 = getelementptr inbounds %"struct.pov::ComTexData_Struct", ptr %41, i64 0, i32 5
  %51 = getelementptr inbounds %"struct.pov::istk_entry", ptr %6, i64 0, i32 1
  %52 = load <2 x double>, ptr %51, align 8, !tbaa !20
  store <2 x double> %52, ptr %17, align 16, !tbaa !20
  %53 = getelementptr inbounds %"struct.pov::istk_entry", ptr %6, i64 0, i32 1, i64 2
  %54 = load double, ptr %53, align 8, !tbaa !20
  %55 = getelementptr inbounds double, ptr %17, i64 2
  store double %54, ptr %55, align 16, !tbaa !20
  call void @_ZN3pov19Copy_Ray_ContainersEPNS_10Ray_StructES1_(ptr noundef nonnull %17, ptr noundef %4)
  %56 = load i32, ptr getelementptr inbounds (%"struct.pov::OPTIONS_STRUCT", ptr @_ZN3pov4optsE, i64 0, i32 13), align 8, !tbaa !70
  %57 = and i32 %56, 128
  %58 = icmp eq i32 %57, 0
  br i1 %58, label %154, label %59

59:                                               ; preds = %46
  %60 = getelementptr inbounds %"struct.pov::Ray_Struct", ptr %4, i64 0, i32 2
  %61 = load i32, ptr %60, align 8, !tbaa !77
  %62 = icmp sgt i32 %61, -1
  br i1 %62, label %63, label %154

63:                                               ; preds = %59
  %64 = add nuw i32 %61, 1
  %65 = zext i32 %64 to i64
  br label %69

66:                                               ; preds = %69
  %67 = add nuw nsw i64 %70, 1
  %68 = icmp eq i64 %67, %65
  br i1 %68, label %76, label %69

69:                                               ; preds = %63, %66
  %70 = phi i64 [ 0, %63 ], [ %67, %66 ]
  %71 = getelementptr inbounds %"struct.pov::Ray_Struct", ptr %4, i64 0, i32 4, i64 %70
  %72 = load ptr, ptr %71, align 8, !tbaa !5
  %73 = getelementptr inbounds %"struct.pov::Interior_Struct", ptr %72, i64 0, i32 1
  %74 = load i32, ptr %73, align 4, !tbaa !79
  %75 = icmp eq i32 %74, 0
  br i1 %75, label %154, label %66

76:                                               ; preds = %66
  %77 = add nsw i32 %61, 2
  %78 = sext i32 %77 to i64
  %79 = shl nsw i64 %78, 3
  %80 = call noundef ptr @_ZN3pov10pov_mallocEmPKciS1_(i64 noundef %79, ptr noundef nonnull @.str, i32 noundef 4631, ptr noundef nonnull @.str.3)
  %81 = load i32, ptr %60, align 8, !tbaa !77
  %82 = icmp slt i32 %81, 0
  br i1 %82, label %141, label %83

83:                                               ; preds = %76
  %84 = add nuw i32 %81, 1
  %85 = zext i32 %84 to i64
  %86 = and i64 %85, 1
  %87 = icmp eq i32 %81, 0
  br i1 %87, label %124, label %88

88:                                               ; preds = %83
  %89 = and i64 %85, 4294967294
  br label %90

90:                                               ; preds = %119, %88
  %91 = phi i64 [ 0, %88 ], [ %121, %119 ]
  %92 = phi ptr [ %80, %88 ], [ %120, %119 ]
  %93 = phi i64 [ 0, %88 ], [ %122, %119 ]
  %94 = getelementptr inbounds %"struct.pov::Ray_Struct", ptr %4, i64 0, i32 4, i64 %91
  %95 = load ptr, ptr %94, align 8, !tbaa !5
  %96 = getelementptr inbounds %"struct.pov::Interior_Struct", ptr %95, i64 0, i32 1
  %97 = load i32, ptr %96, align 4, !tbaa !79
  %98 = icmp eq i32 %97, 0
  br i1 %98, label %105, label %99

99:                                               ; preds = %90
  %100 = getelementptr inbounds %"struct.pov::Interior_Struct", ptr %95, i64 0, i32 10
  %101 = load ptr, ptr %100, align 8, !tbaa !80
  %102 = icmp eq ptr %101, null
  br i1 %102, label %105, label %103

103:                                              ; preds = %99
  store ptr %101, ptr %92, align 8, !tbaa !5
  %104 = getelementptr inbounds ptr, ptr %92, i64 1
  br label %105

105:                                              ; preds = %90, %103, %99
  %106 = phi ptr [ %104, %103 ], [ %92, %99 ], [ %92, %90 ]
  %107 = or i64 %91, 1
  %108 = getelementptr inbounds %"struct.pov::Ray_Struct", ptr %4, i64 0, i32 4, i64 %107
  %109 = load ptr, ptr %108, align 8, !tbaa !5
  %110 = getelementptr inbounds %"struct.pov::Interior_Struct", ptr %109, i64 0, i32 1
  %111 = load i32, ptr %110, align 4, !tbaa !79
  %112 = icmp eq i32 %111, 0
  br i1 %112, label %119, label %113

113:                                              ; preds = %105
  %114 = getelementptr inbounds %"struct.pov::Interior_Struct", ptr %109, i64 0, i32 10
  %115 = load ptr, ptr %114, align 8, !tbaa !80
  %116 = icmp eq ptr %115, null
  br i1 %116, label %119, label %117

117:                                              ; preds = %113
  store ptr %115, ptr %106, align 8, !tbaa !5
  %118 = getelementptr inbounds ptr, ptr %106, i64 1
  br label %119

119:                                              ; preds = %117, %113, %105
  %120 = phi ptr [ %118, %117 ], [ %106, %113 ], [ %106, %105 ]
  %121 = add nuw nsw i64 %91, 2
  %122 = add i64 %93, 2
  %123 = icmp eq i64 %122, %89
  br i1 %123, label %124, label %90

124:                                              ; preds = %119, %83
  %125 = phi ptr [ undef, %83 ], [ %120, %119 ]
  %126 = phi i64 [ 0, %83 ], [ %121, %119 ]
  %127 = phi ptr [ %80, %83 ], [ %120, %119 ]
  %128 = icmp eq i64 %86, 0
  br i1 %128, label %141, label %129

129:                                              ; preds = %124
  %130 = getelementptr inbounds %"struct.pov::Ray_Struct", ptr %4, i64 0, i32 4, i64 %126
  %131 = load ptr, ptr %130, align 8, !tbaa !5
  %132 = getelementptr inbounds %"struct.pov::Interior_Struct", ptr %131, i64 0, i32 1
  %133 = load i32, ptr %132, align 4, !tbaa !79
  %134 = icmp eq i32 %133, 0
  br i1 %134, label %141, label %135

135:                                              ; preds = %129
  %136 = getelementptr inbounds %"struct.pov::Interior_Struct", ptr %131, i64 0, i32 10
  %137 = load ptr, ptr %136, align 8, !tbaa !80
  %138 = icmp eq ptr %137, null
  br i1 %138, label %141, label %139

139:                                              ; preds = %135
  store ptr %137, ptr %127, align 8, !tbaa !5
  %140 = getelementptr inbounds ptr, ptr %127, i64 1
  br label %141

141:                                              ; preds = %124, %139, %135, %129, %76
  %142 = phi ptr [ %80, %76 ], [ %125, %124 ], [ %140, %139 ], [ %127, %135 ], [ %127, %129 ]
  store ptr null, ptr %142, align 8, !tbaa !5
  %143 = load i32, ptr @_ZN3pov11Trace_LevelE, align 4, !tbaa !9
  %144 = icmp sgt i32 %143, 1
  %145 = load i32, ptr getelementptr inbounds (%"struct.pov::photon_options_struct", ptr @_ZN3pov13photonOptionsE, i64 0, i32 24), align 4
  %146 = icmp eq i32 %145, 0
  %147 = select i1 %144, i1 %146, i1 false
  %148 = load i32, ptr getelementptr inbounds (%"struct.pov::photon_options_struct", ptr @_ZN3pov13photonOptionsE, i64 0, i32 31), align 8
  %149 = icmp sgt i32 %148, 0
  %150 = select i1 %147, i1 %149, i1 false
  br i1 %150, label %151, label %152

151:                                              ; preds = %141
  call void @_ZN3pov24Backtrace_Simulate_MediaEPPNS_12Media_StructEPNS_10Ray_StructEPNS_10istk_entryEPf(ptr noundef %80, ptr noundef nonnull %4, ptr noundef %6, ptr noundef %0)
  br label %153

152:                                              ; preds = %141
  call void @_ZN3pov14Simulate_MediaEPPNS_12Media_StructEPNS_10Ray_StructEPNS_10istk_entryEPfi(ptr noundef %80, ptr noundef nonnull %4, ptr noundef %6, ptr noundef %0, i32 noundef 1)
  br label %153

153:                                              ; preds = %152, %151
  call void @_ZN3pov8pov_freeEPvPKci(ptr noundef %80, ptr noundef nonnull @.str, i32 noundef 4666)
  br label %154

154:                                              ; preds = %69, %46, %59, %153
  %155 = getelementptr inbounds %"struct.pov::istk_entry", ptr %6, i64 0, i32 5
  %156 = load ptr, ptr %155, align 8, !tbaa !25
  %157 = getelementptr inbounds %"struct.pov::Object_Struct", ptr %156, i64 0, i32 5
  %158 = load ptr, ptr %157, align 8, !tbaa !65
  %159 = getelementptr inbounds %"struct.pov::Interior_Struct", ptr %158, i64 0, i32 6
  %160 = load float, ptr %159, align 8, !tbaa !117
  %161 = call noundef i32 @_ZN3pov25Interior_In_Ray_ContainerEPNS_10Ray_StructEPNS_15Interior_StructE(ptr noundef %4, ptr noundef nonnull %158)
  %162 = icmp sgt i32 %161, -1
  %163 = insertelement <2 x float> poison, float %160, i64 0
  %164 = shufflevector <2 x float> %163, <2 x float> poison, <2 x i32> zeroinitializer
  br i1 %162, label %165, label %247

165:                                              ; preds = %154
  %166 = getelementptr inbounds %"struct.pov::Interior_Struct", ptr %158, i64 0, i32 8
  %167 = load float, ptr %166, align 8, !tbaa !75
  %168 = fcmp ogt float %167, 0.000000e+00
  br i1 %168, label %169, label %247

169:                                              ; preds = %165
  %170 = getelementptr inbounds %"struct.pov::Interior_Struct", ptr %158, i64 0, i32 7
  %171 = load float, ptr %170, align 4, !tbaa !76
  %172 = call float @llvm.fabs.f32(float %171)
  %173 = fpext float %172 to double
  %174 = fcmp ogt double %173, 0x3E7AD7F29ABCAF48
  br i1 %174, label %175, label %247

175:                                              ; preds = %169
  %176 = fcmp ult float %167, 1.000000e+03
  br i1 %176, label %219, label %177

177:                                              ; preds = %175
  %178 = getelementptr inbounds %"struct.pov::Interior_Struct", ptr %158, i64 0, i32 9
  %179 = load float, ptr %178, align 4, !tbaa !34
  %180 = fpext float %179 to double
  %181 = fsub double 1.000000e+00, %180
  %182 = fneg double %181
  %183 = load double, ptr %6, align 8, !tbaa !18
  %184 = fmul double %183, %182
  %185 = fpext float %171 to double
  %186 = fdiv double %184, %185
  %187 = call double @exp(double noundef %186) #12
  %188 = fpext float %160 to double
  %189 = getelementptr inbounds %"struct.pov::Interior_Struct", ptr %158, i64 0, i32 9, i64 1
  %190 = load float, ptr %189, align 4, !tbaa !34
  %191 = fpext float %190 to double
  %192 = fsub double 1.000000e+00, %191
  %193 = fneg double %192
  %194 = load double, ptr %6, align 8, !tbaa !18
  %195 = fmul double %194, %193
  %196 = load float, ptr %170, align 4, !tbaa !76
  %197 = fpext float %196 to double
  %198 = fdiv double %195, %197
  %199 = call double @exp(double noundef %198) #12
  %200 = insertelement <2 x double> poison, double %187, i64 0
  %201 = insertelement <2 x double> %200, double %199, i64 1
  %202 = insertelement <2 x double> poison, double %188, i64 0
  %203 = shufflevector <2 x double> %202, <2 x double> poison, <2 x i32> zeroinitializer
  %204 = fmul <2 x double> %201, %203
  %205 = fptrunc <2 x double> %204 to <2 x float>
  %206 = getelementptr inbounds %"struct.pov::Interior_Struct", ptr %158, i64 0, i32 9, i64 2
  %207 = load float, ptr %206, align 4, !tbaa !34
  %208 = fpext float %207 to double
  %209 = fsub double 1.000000e+00, %208
  %210 = fneg double %209
  %211 = load double, ptr %6, align 8, !tbaa !18
  %212 = fmul double %211, %210
  %213 = load float, ptr %170, align 4, !tbaa !76
  %214 = fpext float %213 to double
  %215 = fdiv double %212, %214
  %216 = call double @exp(double noundef %215) #12
  %217 = fmul double %216, %188
  %218 = fptrunc double %217 to float
  br label %247

219:                                              ; preds = %175
  %220 = load double, ptr %6, align 8, !tbaa !18
  %221 = fpext float %171 to double
  %222 = fdiv double %220, %221
  %223 = fpext float %167 to double
  %224 = call double @pow(double noundef %222, double noundef %223) #12
  %225 = fadd double %224, 1.000000e+00
  %226 = getelementptr inbounds %"struct.pov::Interior_Struct", ptr %158, i64 0, i32 9
  %227 = fpext float %160 to double
  %228 = load <2 x float>, ptr %226, align 4, !tbaa !34
  %229 = fpext <2 x float> %228 to <2 x double>
  %230 = fsub <2 x double> <double 1.000000e+00, double 1.000000e+00>, %229
  %231 = insertelement <2 x double> poison, double %225, i64 0
  %232 = shufflevector <2 x double> %231, <2 x double> poison, <2 x i32> zeroinitializer
  %233 = fdiv <2 x double> %230, %232
  %234 = fadd <2 x double> %233, %229
  %235 = insertelement <2 x double> poison, double %227, i64 0
  %236 = shufflevector <2 x double> %235, <2 x double> poison, <2 x i32> zeroinitializer
  %237 = fmul <2 x double> %234, %236
  %238 = fptrunc <2 x double> %237 to <2 x float>
  %239 = getelementptr inbounds %"struct.pov::Interior_Struct", ptr %158, i64 0, i32 9, i64 2
  %240 = load float, ptr %239, align 4, !tbaa !34
  %241 = fpext float %240 to double
  %242 = fsub double 1.000000e+00, %241
  %243 = fdiv double %242, %225
  %244 = fadd double %243, %241
  %245 = fmul double %244, %227
  %246 = fptrunc double %245 to float
  br label %247

247:                                              ; preds = %154, %177, %219, %169, %165
  %248 = phi float [ %218, %177 ], [ %246, %219 ], [ %160, %169 ], [ %160, %165 ], [ %160, %154 ]
  %249 = phi <2 x float> [ %205, %177 ], [ %238, %219 ], [ %164, %169 ], [ %164, %165 ], [ %164, %154 ]
  %250 = getelementptr inbounds float, ptr %0, i64 1
  %251 = load <2 x float>, ptr %0, align 4, !tbaa !34
  %252 = fmul <2 x float> %249, %251
  store <2 x float> %252, ptr %0, align 4, !tbaa !34
  %253 = getelementptr inbounds float, ptr %0, i64 2
  %254 = load float, ptr %253, align 4, !tbaa !34
  %255 = fmul float %248, %254
  store float %255, ptr %253, align 4, !tbaa !34
  %256 = load double, ptr %6, align 8, !tbaa !18
  %257 = load double, ptr getelementptr inbounds (%"struct.pov::photon_options_struct", ptr @_ZN3pov13photonOptionsE, i64 0, i32 17), align 8, !tbaa !118
  %258 = fadd double %256, %257
  store double %258, ptr getelementptr inbounds (%"struct.pov::photon_options_struct", ptr @_ZN3pov13photonOptionsE, i64 0, i32 17), align 8, !tbaa !118
  %259 = load i32, ptr @_ZN3pov11Trace_LevelE, align 4, !tbaa !9
  %260 = icmp slt i32 %259, 2
  %261 = load i32, ptr getelementptr inbounds (%"struct.pov::photon_options_struct", ptr @_ZN3pov13photonOptionsE, i64 0, i32 24), align 4
  %262 = icmp ne i32 %261, 0
  %263 = select i1 %260, i1 true, i1 %262
  br i1 %263, label %273, label %264

264:                                              ; preds = %247
  %265 = load ptr, ptr %155, align 8, !tbaa !25
  %266 = getelementptr inbounds %"struct.pov::Object_Struct", ptr %265, i64 0, i32 13
  %267 = load i32, ptr %266, align 4, !tbaa !32
  %268 = and i32 %267, 33554432
  %269 = icmp eq i32 %268, 0
  br i1 %269, label %270, label %273

270:                                              ; preds = %264
  %271 = call noundef zeroext i1 @_ZN3pov24Check_Photon_Light_GroupEPNS_13Object_StructE(ptr noundef nonnull %265)
  br i1 %271, label %272, label %273

272:                                              ; preds = %270
  call void @_ZN3pov16addSurfacePhotonEPdS0_PfS0_(ptr noundef nonnull %51, ptr noundef %4, ptr noundef nonnull %0, ptr noundef %3)
  br label %273

273:                                              ; preds = %272, %270, %264, %247
  %274 = load i32, ptr getelementptr inbounds (%"struct.pov::photon_options_struct", ptr @_ZN3pov13photonOptionsE, i64 0, i32 23), align 8, !tbaa !119
  %275 = icmp eq i32 %274, 0
  br i1 %275, label %293, label %276

276:                                              ; preds = %273
  call void @llvm.lifetime.start.p0(i64 856, ptr nonnull %18) #12
  call void @_ZN3pov19Copy_Ray_ContainersEPNS_10Ray_StructES1_(ptr noundef nonnull %18, ptr noundef %4)
  %277 = load <2 x double>, ptr %2, align 8, !tbaa !20
  %278 = getelementptr inbounds double, ptr %2, i64 2
  %279 = load double, ptr %278, align 8, !tbaa !20
  %280 = getelementptr inbounds %"struct.pov::Ray_Struct", ptr %4, i64 0, i32 1
  %281 = load double, ptr %280, align 8, !tbaa !20
  %282 = shufflevector <2 x double> %277, <2 x double> poison, <4 x i32> <i32 0, i32 1, i32 poison, i32 poison>
  %283 = insertelement <4 x double> %282, double %279, i64 2
  %284 = insertelement <4 x double> %283, double %281, i64 3
  store <4 x double> %284, ptr %18, align 8, !tbaa !20
  %285 = getelementptr inbounds %"struct.pov::Ray_Struct", ptr %4, i64 0, i32 1, i64 1
  %286 = getelementptr inbounds %"struct.pov::Ray_Struct", ptr %18, i64 0, i32 1, i64 1
  %287 = load <2 x double>, ptr %285, align 8, !tbaa !20
  store <2 x double> %287, ptr %286, align 8, !tbaa !20
  %288 = load i32, ptr @_ZN3pov11Trace_LevelE, align 4, !tbaa !9
  %289 = add nsw i32 %288, 1
  store i32 %289, ptr @_ZN3pov11Trace_LevelE, align 4, !tbaa !9
  %290 = call noundef double @_ZN3pov5TraceEPNS_10Ray_StructEPfd(ptr noundef nonnull %18, ptr noundef nonnull %0, double noundef %5)
  %291 = load i32, ptr @_ZN3pov11Trace_LevelE, align 4, !tbaa !9
  %292 = add nsw i32 %291, -1
  store i32 %292, ptr @_ZN3pov11Trace_LevelE, align 4, !tbaa !9
  call void @llvm.lifetime.end.p0(i64 856, ptr nonnull %18) #12
  br label %293

293:                                              ; preds = %276, %273
  %294 = icmp ne ptr %1, null
  %295 = load double, ptr @_ZN3pov11ADC_BailoutE, align 8
  %296 = fcmp olt double %295, 1.000000e+00
  %297 = select i1 %294, i1 %296, i1 false
  br i1 %297, label %298, label %565

298:                                              ; preds = %293
  %299 = getelementptr inbounds double, ptr %12, i64 1
  %300 = getelementptr inbounds double, ptr %3, i64 2
  %301 = getelementptr inbounds double, ptr %12, i64 2
  %302 = getelementptr inbounds double, ptr %13, i64 2
  %303 = getelementptr inbounds [5 x float], ptr %14, i64 0, i64 3
  %304 = getelementptr inbounds [5 x float], ptr %14, i64 0, i64 4
  %305 = getelementptr inbounds [5 x float], ptr %14, i64 0, i64 1
  %306 = getelementptr inbounds [5 x float], ptr %14, i64 0, i64 2
  %307 = getelementptr inbounds %"struct.pov::Ray_Struct", ptr %4, i64 0, i32 1
  %308 = getelementptr inbounds %"struct.pov::Ray_Struct", ptr %4, i64 0, i32 1, i64 1
  %309 = getelementptr inbounds %"struct.pov::Ray_Struct", ptr %4, i64 0, i32 1, i64 2
  br label %310

310:                                              ; preds = %298, %542
  %311 = phi i64 [ 0, %298 ], [ %556, %542 ]
  %312 = phi double [ 1.000000e+00, %298 ], [ %555, %542 ]
  %313 = phi ptr [ %1, %298 ], [ %558, %542 ]
  %314 = phi float [ 1.000000e+00, %298 ], [ %543, %542 ]
  %315 = phi float [ 0.000000e+00, %298 ], [ %413, %542 ]
  %316 = phi <2 x float> [ <float 1.000000e+00, float 1.000000e+00>, %298 ], [ %544, %542 ]
  %317 = phi <2 x float> [ zeroinitializer, %298 ], [ %412, %542 ]
  %318 = load <2 x double>, ptr %3, align 8, !tbaa !20
  store <2 x double> %318, ptr %12, align 16, !tbaa !20
  %319 = load double, ptr %300, align 8, !tbaa !20
  store double %319, ptr %301, align 16, !tbaa !20
  %320 = load i32, ptr getelementptr inbounds (%"struct.pov::OPTIONS_STRUCT", ptr @_ZN3pov4optsE, i64 0, i32 13), align 8, !tbaa !70
  %321 = and i32 %320, 64
  %322 = icmp eq i32 %321, 0
  br i1 %322, label %387, label %323

323:                                              ; preds = %310
  %324 = getelementptr inbounds %"struct.pov::Texture_Struct", ptr %313, i64 0, i32 13
  %325 = load ptr, ptr %324, align 8, !tbaa !71
  %326 = icmp eq ptr %325, null
  br i1 %326, label %387, label %327

327:                                              ; preds = %323
  %328 = load i32, ptr getelementptr inbounds (%"struct.pov::OPTIONS_STRUCT", ptr @_ZN3pov4optsE, i64 0, i32 29), align 8, !tbaa !50
  %329 = icmp sgt i32 %328, 310
  br i1 %329, label %330, label %386

330:                                              ; preds = %327
  %331 = load i32, ptr @_ZN3pov18warpNormalTexturesE, align 4, !tbaa !9
  %332 = icmp sgt i32 %331, 0
  br i1 %332, label %333, label %348

333:                                              ; preds = %330, %333
  %334 = phi i64 [ %342, %333 ], [ 0, %330 ]
  %335 = load ptr, ptr @_ZN3pov21warpNormalTextureListE, align 8, !tbaa !5
  %336 = getelementptr inbounds ptr, ptr %335, i64 %334
  %337 = load ptr, ptr %336, align 8, !tbaa !5
  %338 = getelementptr inbounds %"struct.pov::Texture_Struct", ptr %337, i64 0, i32 2
  %339 = load i16, ptr %338, align 4, !tbaa !72
  %340 = and i16 %339, 8
  %341 = zext i16 %340 to i32
  call void @_ZN3pov11Warp_NormalEPdS0_PNS_14Pattern_StructEi(ptr noundef nonnull %12, ptr noundef nonnull %12, ptr noundef %337, i32 noundef %341)
  %342 = add nuw nsw i64 %334, 1
  %343 = load i32, ptr @_ZN3pov18warpNormalTexturesE, align 4, !tbaa !9
  %344 = sext i32 %343 to i64
  %345 = icmp slt i64 %342, %344
  br i1 %345, label %333, label %346

346:                                              ; preds = %333
  %347 = load ptr, ptr %324, align 8, !tbaa !71
  br label %348

348:                                              ; preds = %346, %330
  %349 = phi ptr [ %347, %346 ], [ %325, %330 ]
  call void @_ZN3pov14Perturb_NormalEPdPNS_14Tnormal_StructES0_PNS_10istk_entryE(ptr noundef nonnull %12, ptr noundef %349, ptr noundef %2, ptr noundef nonnull %6)
  %350 = load ptr, ptr %324, align 8, !tbaa !71
  %351 = getelementptr inbounds %"struct.pov::Tnormal_Struct", ptr %350, i64 0, i32 2
  %352 = load i16, ptr %351, align 4, !tbaa !73
  %353 = and i16 %352, 8
  %354 = icmp eq i16 %353, 0
  br i1 %354, label %369, label %355

355:                                              ; preds = %348
  %356 = load double, ptr %301, align 16, !tbaa !20
  %357 = load <2 x double>, ptr %12, align 16, !tbaa !20
  %358 = fmul <2 x double> %357, %357
  %359 = extractelement <2 x double> %358, i64 1
  %360 = extractelement <2 x double> %357, i64 0
  %361 = call double @llvm.fmuladd.f64(double %360, double %360, double %359)
  %362 = call double @llvm.fmuladd.f64(double %356, double %356, double %361)
  %363 = call double @llvm.sqrt.f64(double %362)
  %364 = fdiv double 1.000000e+00, %363
  %365 = insertelement <2 x double> poison, double %364, i64 0
  %366 = shufflevector <2 x double> %365, <2 x double> poison, <2 x i32> zeroinitializer
  %367 = fmul <2 x double> %357, %366
  store <2 x double> %367, ptr %12, align 16, !tbaa !20
  %368 = fmul double %356, %364
  store double %368, ptr %301, align 16, !tbaa !20
  br label %369

369:                                              ; preds = %355, %348
  %370 = load i32, ptr @_ZN3pov18warpNormalTexturesE, align 4, !tbaa !9
  %371 = icmp sgt i32 %370, 0
  br i1 %371, label %372, label %387

372:                                              ; preds = %369
  %373 = zext i32 %370 to i64
  br label %374

374:                                              ; preds = %372, %374
  %375 = phi i64 [ %373, %372 ], [ %376, %374 ]
  %376 = add nsw i64 %375, -1
  %377 = load ptr, ptr @_ZN3pov21warpNormalTextureListE, align 8, !tbaa !5
  %378 = and i64 %376, 4294967295
  %379 = getelementptr inbounds ptr, ptr %377, i64 %378
  %380 = load ptr, ptr %379, align 8, !tbaa !5
  %381 = getelementptr inbounds %"struct.pov::Texture_Struct", ptr %380, i64 0, i32 2
  %382 = load i16, ptr %381, align 4, !tbaa !72
  %383 = and i16 %382, 8
  %384 = zext i16 %383 to i32
  call void @_ZN3pov13UnWarp_NormalEPdS0_PNS_14Pattern_StructEi(ptr noundef nonnull %12, ptr noundef nonnull %12, ptr noundef %380, i32 noundef %384)
  %385 = icmp ugt i64 %375, 1
  br i1 %385, label %374, label %387

386:                                              ; preds = %327
  call void @_ZN3pov14Perturb_NormalEPdPNS_14Tnormal_StructES0_PNS_10istk_entryE(ptr noundef nonnull %12, ptr noundef nonnull %325, ptr noundef %2, ptr noundef nonnull %6)
  br label %387

387:                                              ; preds = %374, %369, %386, %323, %310
  %388 = icmp eq i64 %311, 0
  br i1 %388, label %389, label %392

389:                                              ; preds = %387
  %390 = load <2 x double>, ptr %12, align 16, !tbaa !20
  store <2 x double> %390, ptr %13, align 16, !tbaa !20
  %391 = load double, ptr %301, align 16, !tbaa !20
  store double %391, ptr %302, align 16, !tbaa !20
  br label %392

392:                                              ; preds = %389, %387
  %393 = fmul double %312, %5
  %394 = getelementptr inbounds %"struct.pov::Texture_Struct", ptr %313, i64 0, i32 12
  %395 = load ptr, ptr %394, align 8, !tbaa !66
  %396 = call noundef i32 @_ZN3pov15Compute_PigmentEPfPNS_14Pigment_StructEPdPNS_10istk_entryE(ptr noundef nonnull %14, ptr noundef %395, ptr noundef %2, ptr noundef nonnull %6)
  %397 = load float, ptr %303, align 4, !tbaa !34
  %398 = load float, ptr %304, align 16, !tbaa !34
  %399 = fadd float %397, %398
  %400 = fpext float %399 to double
  %401 = fcmp olt float %399, 1.000000e+00
  %402 = fsub double 1.000000e+00, %400
  %403 = select i1 %401, double %402, double 0.000000e+00
  %404 = fmul double %312, %403
  %405 = load <2 x float>, ptr %14, align 16, !tbaa !34
  %406 = fmul <2 x float> %316, %405
  store <2 x float> %406, ptr %14, align 16, !tbaa !34
  %407 = load float, ptr %306, align 8, !tbaa !34
  %408 = fmul float %314, %407
  store float %408, ptr %306, align 8, !tbaa !34
  %409 = fptrunc double %404 to float
  %410 = insertelement <2 x float> poison, float %409, i64 0
  %411 = shufflevector <2 x float> %410, <2 x float> poison, <2 x i32> zeroinitializer
  %412 = call <2 x float> @llvm.fmuladd.v2f32(<2 x float> %411, <2 x float> %406, <2 x float> %317)
  %413 = call float @llvm.fmuladd.f32(float %409, float %408, float %315)
  %414 = icmp eq i32 %396, 0
  %415 = icmp eq i64 %311, 100
  br i1 %415, label %416, label %418

416:                                              ; preds = %392
  %417 = call noundef i32 (ptr, ...) @_ZN3pov5ErrorEPKcz(ptr noundef nonnull @.str.10)
  br label %418

418:                                              ; preds = %416, %392
  %419 = getelementptr inbounds %"struct.pov::Texture_Struct", ptr %313, i64 0, i32 14
  %420 = load ptr, ptr %419, align 8, !tbaa !120
  %421 = getelementptr inbounds %"struct.pov::Finish_Struct", ptr %420, i64 0, i32 13
  %422 = load float, ptr %421, align 4, !tbaa !121
  %423 = getelementptr inbounds float, ptr %50, i64 %311
  store float %422, ptr %423, align 4, !tbaa !34
  %424 = getelementptr inbounds double, ptr %47, i64 %311
  store double %393, ptr %424, align 8, !tbaa !20
  %425 = getelementptr inbounds [3 x double], ptr %48, i64 %311
  %426 = load double, ptr %12, align 16, !tbaa !20
  store double %426, ptr %425, align 8, !tbaa !20
  %427 = load double, ptr %299, align 8, !tbaa !20
  %428 = getelementptr inbounds double, ptr %425, i64 1
  store double %427, ptr %428, align 8, !tbaa !20
  %429 = load double, ptr %301, align 16, !tbaa !20
  %430 = getelementptr inbounds double, ptr %425, i64 2
  store double %429, ptr %430, align 8, !tbaa !20
  %431 = load double, ptr %307, align 8, !tbaa !20
  %432 = load double, ptr %12, align 16, !tbaa !20
  %433 = load double, ptr %308, align 8, !tbaa !20
  %434 = load double, ptr %299, align 8, !tbaa !20
  %435 = fmul double %433, %434
  %436 = call double @llvm.fmuladd.f64(double %431, double %432, double %435)
  %437 = load double, ptr %309, align 8, !tbaa !20
  %438 = load double, ptr %301, align 16, !tbaa !20
  %439 = call double @llvm.fmuladd.f64(double %437, double %438, double %436)
  %440 = fneg double %439
  %441 = load ptr, ptr %155, align 8, !tbaa !25
  %442 = getelementptr inbounds %"struct.pov::Object_Struct", ptr %441, i64 0, i32 5
  %443 = load ptr, ptr %442, align 8, !tbaa !65
  %444 = icmp eq ptr %443, null
  %445 = getelementptr inbounds %"struct.pov::Finish_Struct", ptr %420, i64 0, i32 20
  %446 = load i32, ptr %445, align 4, !tbaa !122
  %447 = icmp eq i32 %446, 1
  %448 = select i1 %444, i1 %447, i1 false
  br i1 %448, label %456, label %449

449:                                              ; preds = %418
  %450 = getelementptr inbounds [5 x float], ptr %49, i64 %311
  %451 = getelementptr inbounds %"struct.pov::Finish_Struct", ptr %420, i64 0, i32 17
  %452 = getelementptr inbounds %"struct.pov::Finish_Struct", ptr %420, i64 0, i32 18
  %453 = getelementptr inbounds %"struct.pov::Finish_Struct", ptr %420, i64 0, i32 19
  %454 = load float, ptr %453, align 4, !tbaa !123
  %455 = fpext float %454 to double
  call fastcc void @_ZN3povL22determine_reflectivityEPdPfS1_S1_iddPNS_10Ray_StructEPNS_15Interior_StructE(ptr noundef nonnull %424, ptr noundef nonnull %450, ptr noundef nonnull %451, ptr noundef nonnull %452, i32 noundef %446, double noundef %455, double noundef %440, ptr noundef nonnull %4, ptr noundef %443)
  br label %458

456:                                              ; preds = %418
  %457 = call noundef i32 (ptr, ...) @_ZN3pov5ErrorEPKcz(ptr noundef nonnull @.str.11)
  br label %458

458:                                              ; preds = %456, %449
  %459 = load ptr, ptr %419, align 8, !tbaa !120
  %460 = getelementptr inbounds %"struct.pov::Finish_Struct", ptr %459, i64 0, i32 21
  %461 = load float, ptr %460, align 4, !tbaa !124
  %462 = fcmp une float %461, 0.000000e+00
  br i1 %462, label %463, label %505

463:                                              ; preds = %458
  %464 = fpext float %461 to double
  %465 = call double @acos(double noundef %440) #12
  %466 = call double @llvm.fabs.f64(double %465)
  %467 = fdiv double %466, 0x3FF921FB54442D18
  %468 = fadd double %467, -1.120000e+00
  %469 = fmul double %468, %468
  %470 = fdiv double 0x3F8DD56BD7BF6F16, %469
  %471 = fadd double %470, 0xBF87C88174C5E0DC
  %472 = fcmp ogt double %471, 0.000000e+00
  %473 = select i1 %472, double %471, double 0.000000e+00
  %474 = fcmp olt double %473, 1.000000e+00
  %475 = fsub double 1.000000e+00, %473
  %476 = select i1 %474, double %475, double 0.000000e+00
  %477 = fmul double %476, %464
  %478 = load float, ptr %14, align 16, !tbaa !34
  %479 = fpext float %478 to double
  %480 = fadd double %479, -1.000000e+00
  %481 = call double @llvm.fmuladd.f64(double %477, double %480, double 1.000000e+00)
  %482 = getelementptr inbounds [5 x float], ptr %49, i64 %311
  %483 = load float, ptr %482, align 4, !tbaa !34
  %484 = fpext float %483 to double
  %485 = fmul double %481, %484
  %486 = fptrunc double %485 to float
  store float %486, ptr %482, align 4, !tbaa !34
  %487 = load float, ptr %305, align 4, !tbaa !34
  %488 = fpext float %487 to double
  %489 = fadd double %488, -1.000000e+00
  %490 = call double @llvm.fmuladd.f64(double %477, double %489, double 1.000000e+00)
  %491 = getelementptr inbounds [5 x float], ptr %49, i64 %311, i64 1
  %492 = load float, ptr %491, align 4, !tbaa !34
  %493 = fpext float %492 to double
  %494 = fmul double %490, %493
  %495 = fptrunc double %494 to float
  store float %495, ptr %491, align 4, !tbaa !34
  %496 = load float, ptr %306, align 8, !tbaa !34
  %497 = fpext float %496 to double
  %498 = fadd double %497, -1.000000e+00
  %499 = call double @llvm.fmuladd.f64(double %477, double %498, double 1.000000e+00)
  %500 = getelementptr inbounds [5 x float], ptr %49, i64 %311, i64 2
  %501 = load float, ptr %500, align 4, !tbaa !34
  %502 = fpext float %501 to double
  %503 = fmul double %499, %502
  %504 = fptrunc double %503 to float
  store float %504, ptr %500, align 4, !tbaa !34
  br label %505

505:                                              ; preds = %463, %458
  br i1 %414, label %542, label %506

506:                                              ; preds = %505
  %507 = load float, ptr %303, align 4, !tbaa !34
  %508 = load float, ptr %304, align 16, !tbaa !34
  %509 = load <2 x float>, ptr %14, align 16, !tbaa !34
  %510 = insertelement <2 x float> poison, float %507, i64 0
  %511 = shufflevector <2 x float> %510, <2 x float> poison, <2 x i32> zeroinitializer
  %512 = insertelement <2 x float> poison, float %508, i64 0
  %513 = shufflevector <2 x float> %512, <2 x float> poison, <2 x i32> zeroinitializer
  %514 = call <2 x float> @llvm.fmuladd.v2f32(<2 x float> %509, <2 x float> %511, <2 x float> %513)
  %515 = fmul <2 x float> %316, %514
  %516 = load float, ptr %306, align 8, !tbaa !34
  %517 = call float @llvm.fmuladd.f32(float %516, float %507, float %508)
  %518 = fmul float %314, %517
  %519 = load ptr, ptr %419, align 8, !tbaa !120
  %520 = getelementptr inbounds %"struct.pov::Finish_Struct", ptr %519, i64 0, i32 22
  %521 = load i32, ptr %520, align 4, !tbaa !125
  %522 = icmp eq i32 %521, 0
  br i1 %522, label %542, label %523

523:                                              ; preds = %506
  %524 = getelementptr inbounds [5 x float], ptr %49, i64 %311
  %525 = fpext <2 x float> %515 to <2 x double>
  %526 = load <2 x float>, ptr %524, align 4, !tbaa !34
  %527 = fpext <2 x float> %526 to <2 x double>
  %528 = fsub <2 x double> <double 1.000000e+00, double 1.000000e+00>, %527
  %529 = fcmp olt <2 x double> %528, <double 1.000000e+00, double 1.000000e+00>
  %530 = select <2 x i1> %529, <2 x double> %528, <2 x double> <double 1.000000e+00, double 1.000000e+00>
  %531 = fmul <2 x double> %530, %525
  %532 = fptrunc <2 x double> %531 to <2 x float>
  %533 = getelementptr inbounds [5 x float], ptr %49, i64 %311, i64 2
  %534 = load float, ptr %533, align 4, !tbaa !34
  %535 = fpext float %534 to double
  %536 = fsub double 1.000000e+00, %535
  %537 = fcmp olt double %536, 1.000000e+00
  %538 = select i1 %537, double %536, double 1.000000e+00
  %539 = fpext float %518 to double
  %540 = fmul double %538, %539
  %541 = fptrunc double %540 to float
  br label %542

542:                                              ; preds = %506, %523, %505
  %543 = phi float [ %314, %505 ], [ %518, %506 ], [ %541, %523 ]
  %544 = phi <2 x float> [ %316, %505 ], [ %515, %506 ], [ %532, %523 ]
  %545 = extractelement <2 x float> %544, i64 0
  %546 = fpext float %545 to double
  %547 = extractelement <2 x float> %544, i64 1
  %548 = fpext float %547 to double
  %549 = fmul double %548, 5.890000e-01
  %550 = call double @llvm.fmuladd.f64(double %546, double 2.970000e-01, double %549)
  %551 = fpext float %543 to double
  %552 = call double @llvm.fmuladd.f64(double %551, double 1.140000e-01, double %550)
  %553 = call double @llvm.fabs.f64(double %552)
  %554 = fcmp olt double %553, 1.000000e+00
  %555 = select i1 %554, double %553, double 1.000000e+00
  %556 = add nuw i64 %311, 1
  %557 = getelementptr inbounds %"struct.pov::Texture_Struct", ptr %313, i64 0, i32 8
  %558 = load ptr, ptr %557, align 8, !tbaa !67
  %559 = icmp ne ptr %558, null
  %560 = load double, ptr @_ZN3pov11ADC_BailoutE, align 8
  %561 = fcmp ogt double %555, %560
  %562 = select i1 %559, i1 %561, i1 false
  br i1 %562, label %310, label %563

563:                                              ; preds = %542
  %564 = trunc i64 %556 to i32
  br label %565

565:                                              ; preds = %563, %293
  %566 = phi float [ 0.000000e+00, %293 ], [ %413, %563 ]
  %567 = phi float [ 1.000000e+00, %293 ], [ %543, %563 ]
  %568 = phi double [ 1.000000e+00, %293 ], [ %555, %563 ]
  %569 = phi i32 [ 0, %293 ], [ %564, %563 ]
  %570 = phi double [ %295, %293 ], [ %560, %563 ]
  %571 = phi <2 x float> [ zeroinitializer, %293 ], [ %412, %563 ]
  %572 = phi <2 x float> [ <float 1.000000e+00, float 1.000000e+00>, %293 ], [ %544, %563 ]
  %573 = load ptr, ptr getelementptr inbounds (%"struct.pov::photon_options_struct", ptr @_ZN3pov13photonOptionsE, i64 0, i32 18), align 8, !tbaa !126
  %574 = icmp eq ptr %573, null
  br i1 %574, label %575, label %669

575:                                              ; preds = %565
  %576 = extractelement <2 x float> %571, i64 0
  %577 = fpext float %576 to double
  %578 = extractelement <2 x float> %571, i64 1
  %579 = fpext float %578 to double
  %580 = fmul double %579, 5.890000e-01
  %581 = call double @llvm.fmuladd.f64(double %577, double 2.970000e-01, double %580)
  %582 = fpext float %566 to double
  %583 = call double @llvm.fmuladd.f64(double %582, double 1.140000e-01, double %581)
  %584 = call double @llvm.fabs.f64(double %583)
  %585 = fcmp ogt double %584, 0.000000e+00
  %586 = select i1 %585, double %584, double 0.000000e+00
  %587 = getelementptr inbounds %"struct.pov::Texture_Struct", ptr %1, i64 0, i32 14
  %588 = load ptr, ptr %587, align 8, !tbaa !120
  %589 = icmp eq ptr %588, null
  br i1 %589, label %594, label %590

590:                                              ; preds = %575
  %591 = load float, ptr %588, align 4, !tbaa !109
  %592 = fpext float %591 to double
  %593 = fmul double %586, %592
  br label %594

594:                                              ; preds = %590, %575
  %595 = phi double [ %593, %590 ], [ %586, %575 ]
  %596 = load float, ptr %49, align 4, !tbaa !34
  %597 = fpext float %596 to double
  %598 = getelementptr inbounds %"struct.pov::ComTexData_Struct", ptr %41, i64 0, i32 4, i64 0, i64 1
  %599 = load float, ptr %598, align 4, !tbaa !34
  %600 = fpext float %599 to double
  %601 = fmul double %600, 5.890000e-01
  %602 = call double @llvm.fmuladd.f64(double %597, double 2.970000e-01, double %601)
  %603 = getelementptr inbounds %"struct.pov::ComTexData_Struct", ptr %41, i64 0, i32 4, i64 0, i64 2
  %604 = load float, ptr %603, align 4, !tbaa !34
  %605 = fpext float %604 to double
  %606 = call double @llvm.fmuladd.f64(double %605, double 1.140000e-01, double %602)
  %607 = call double @llvm.fabs.f64(double %606)
  %608 = fcmp ogt double %607, 0.000000e+00
  %609 = select i1 %608, double %607, double 0.000000e+00
  %610 = fadd double %568, %609
  %611 = fadd double %595, %610
  %612 = fcmp ogt double %611, %570
  br i1 %612, label %613, label %1164

613:                                              ; preds = %594
  %614 = fsub double 1.000000e+00, %595
  %615 = fcmp ogt double %614, 0.000000e+00
  %616 = select i1 %615, double %614, double 0.000000e+00
  %617 = fadd double %616, %611
  %618 = fdiv double %595, %617
  %619 = fdiv double %568, %617
  %620 = fdiv double %609, %617
  %621 = call noundef i32 @_ZN3pov8POV_RANDEv()
  %622 = sitofp i32 %621 to double
  %623 = fmul double %622, 0x3F0000200040021E
  %624 = fcmp olt double %623, %618
  br i1 %624, label %625, label %632

625:                                              ; preds = %613
  %626 = fdiv double 1.000000e+00, %618
  %627 = fptrunc double %626 to float
  %628 = insertelement <2 x float> poison, float %627, i64 0
  %629 = shufflevector <2 x float> %628, <2 x float> poison, <2 x i32> zeroinitializer
  %630 = fmul <2 x float> %571, %629
  %631 = fmul float %566, %627
  store i32 0, ptr getelementptr inbounds (%"struct.pov::photon_options_struct", ptr @_ZN3pov13photonOptionsE, i64 0, i32 24), align 4, !tbaa !127
  br label %645

632:                                              ; preds = %613
  %633 = fadd double %618, %619
  %634 = fcmp olt double %623, %633
  br i1 %634, label %635, label %642

635:                                              ; preds = %632
  %636 = fdiv double 1.000000e+00, %619
  %637 = fptrunc double %636 to float
  %638 = insertelement <2 x float> poison, float %637, i64 0
  %639 = shufflevector <2 x float> %638, <2 x float> poison, <2 x i32> zeroinitializer
  %640 = fmul <2 x float> %572, %639
  %641 = fmul float %567, %637
  store i32 1, ptr getelementptr inbounds (%"struct.pov::photon_options_struct", ptr @_ZN3pov13photonOptionsE, i64 0, i32 24), align 4, !tbaa !127
  br label %669

642:                                              ; preds = %632
  %643 = fadd double %620, %633
  %644 = fcmp olt double %623, %643
  br i1 %644, label %660, label %645

645:                                              ; preds = %625, %642
  %646 = phi float [ %631, %625 ], [ %566, %642 ]
  %647 = phi <2 x float> [ %630, %625 ], [ %571, %642 ]
  %648 = call i32 @rand() #12
  %649 = srem i32 %648, 400
  call void @_ZN3pov9ChooseRayEPNS_10Ray_StructEPdS1_S2_i(ptr noundef nonnull %17, ptr noundef nonnull %12, ptr noundef %4, ptr noundef %3, i32 noundef %649)
  %650 = load <2 x float>, ptr %0, align 4, !tbaa !34
  %651 = fmul <2 x float> %647, %650
  store <2 x float> %651, ptr %16, align 16, !tbaa !34
  %652 = load float, ptr %253, align 4, !tbaa !34
  %653 = fmul float %646, %652
  %654 = getelementptr inbounds [5 x float], ptr %16, i64 0, i64 2
  store float %653, ptr %654, align 8, !tbaa !34
  %655 = load i32, ptr @_ZN3pov11Trace_LevelE, align 4, !tbaa !9
  %656 = add nsw i32 %655, 1
  store i32 %656, ptr @_ZN3pov11Trace_LevelE, align 4, !tbaa !9
  %657 = call noundef double @_ZN3pov5TraceEPNS_10Ray_StructEPfd(ptr noundef nonnull %17, ptr noundef nonnull %16, double noundef 1.000000e+00)
  %658 = load i32, ptr @_ZN3pov11Trace_LevelE, align 4, !tbaa !9
  %659 = add nsw i32 %658, -1
  store i32 %659, ptr @_ZN3pov11Trace_LevelE, align 4, !tbaa !9
  br label %1164

660:                                              ; preds = %642
  %661 = fdiv double 1.000000e+00, %620
  %662 = fptrunc double %661 to float
  %663 = load <2 x float>, ptr %49, align 4, !tbaa !34
  %664 = insertelement <2 x float> poison, float %662, i64 0
  %665 = shufflevector <2 x float> %664, <2 x float> poison, <2 x i32> zeroinitializer
  %666 = fmul <2 x float> %663, %665
  store <2 x float> %666, ptr %49, align 4, !tbaa !34
  %667 = load float, ptr %603, align 4, !tbaa !34
  %668 = fmul float %667, %662
  store float %668, ptr %603, align 4, !tbaa !34
  store i32 1, ptr getelementptr inbounds (%"struct.pov::photon_options_struct", ptr @_ZN3pov13photonOptionsE, i64 0, i32 24), align 4, !tbaa !127
  br label %1039

669:                                              ; preds = %565, %635
  %670 = phi float [ %567, %565 ], [ %641, %635 ]
  %671 = phi <2 x float> [ %572, %565 ], [ %640, %635 ]
  %672 = load ptr, ptr %155, align 8, !tbaa !25
  %673 = getelementptr inbounds %"struct.pov::Object_Struct", ptr %672, i64 0, i32 13
  %674 = load i32, ptr %673, align 4, !tbaa !32
  %675 = and i32 %674, 8388608
  %676 = icmp eq i32 %675, 0
  br i1 %676, label %681, label %677

677:                                              ; preds = %669
  %678 = load i32, ptr getelementptr inbounds (%"struct.pov::photon_options_struct", ptr @_ZN3pov13photonOptionsE, i64 0, i32 25), align 8, !tbaa !87
  %679 = and i32 %678, 16777216
  %680 = icmp eq i32 %679, 0
  br i1 %680, label %694, label %681

681:                                              ; preds = %677, %669
  %682 = and i32 %674, 16777216
  %683 = icmp eq i32 %682, 0
  br i1 %683, label %684, label %691

684:                                              ; preds = %681
  %685 = load i32, ptr getelementptr inbounds (%"struct.pov::photon_options_struct", ptr @_ZN3pov13photonOptionsE, i64 0, i32 25), align 8, !tbaa !87
  %686 = and i32 %685, 8388608
  %687 = icmp ne i32 %686, 0
  %688 = load i32, ptr getelementptr inbounds (%"struct.pov::photon_options_struct", ptr @_ZN3pov13photonOptionsE, i64 0, i32 23), align 8
  %689 = icmp ne i32 %688, 0
  %690 = select i1 %687, i1 true, i1 %689
  br i1 %690, label %694, label %1038

691:                                              ; preds = %681
  %692 = load i32, ptr getelementptr inbounds (%"struct.pov::photon_options_struct", ptr @_ZN3pov13photonOptionsE, i64 0, i32 23), align 8, !tbaa !119
  %693 = icmp eq i32 %692, 0
  br i1 %693, label %1038, label %694

694:                                              ; preds = %691, %684, %677
  %695 = getelementptr inbounds %"struct.pov::Object_Struct", ptr %672, i64 0, i32 5
  %696 = load ptr, ptr %695, align 8, !tbaa !65
  %697 = icmp ne ptr %696, null
  %698 = load double, ptr @_ZN3pov11ADC_BailoutE, align 8
  %699 = fcmp ogt double %568, %698
  %700 = select i1 %697, i1 %699, i1 false
  br i1 %700, label %701, label %1038

701:                                              ; preds = %694
  %702 = load i32, ptr getelementptr inbounds (%"struct.pov::OPTIONS_STRUCT", ptr @_ZN3pov4optsE, i64 0, i32 13), align 8, !tbaa !70
  %703 = and i32 %702, 16
  %704 = icmp eq i32 %703, 0
  br i1 %704, label %1038, label %705

705:                                              ; preds = %701
  %706 = extractelement <2 x float> %671, i64 1
  %707 = fcmp olt float %706, %670
  %708 = select i1 %707, float %670, float %706
  %709 = extractelement <2 x float> %671, i64 0
  %710 = fcmp olt float %709, %708
  %711 = select i1 %710, float %708, float %709
  %712 = fpext float %711 to double
  %713 = fcmp olt double %712, 0.000000e+00
  %714 = select i1 %713, double 0.000000e+00, double %712
  %715 = fmul double %714, %5
  store <2 x float> %671, ptr @_ZN3pov7GFilColE, align 16, !tbaa !34
  store float %670, ptr getelementptr inbounds ([5 x float], ptr @_ZN3pov7GFilColE, i64 0, i64 2), align 8, !tbaa !34
  store <2 x float> <float 1.000000e+00, float 0.000000e+00>, ptr getelementptr inbounds ([5 x float], ptr @_ZN3pov7GFilColE, i64 0, i64 3), align 4, !tbaa !34
  call void @llvm.lifetime.start.p0(i64 856, ptr nonnull %8) #12
  call void @llvm.lifetime.start.p0(i64 20, ptr nonnull %9) #12
  call void @_ZN3pov19Copy_Ray_ContainersEPNS_10Ray_StructES1_(ptr noundef nonnull %8, ptr noundef %4)
  %716 = load <2 x double>, ptr %51, align 8, !tbaa !20
  store <2 x double> %716, ptr %8, align 16, !tbaa !20
  %717 = load double, ptr %53, align 8, !tbaa !20
  %718 = getelementptr inbounds double, ptr %8, i64 2
  store double %717, ptr %718, align 16, !tbaa !20
  %719 = load i32, ptr @_ZN3pov9disp_elemE, align 4, !tbaa !9
  %720 = icmp eq i32 %719, 0
  br i1 %720, label %721, label %724

721:                                              ; preds = %705
  %722 = getelementptr inbounds %"struct.pov::Interior_Struct", ptr %696, i64 0, i32 2
  %723 = load i32, ptr %722, align 8, !tbaa !128
  store i32 %723, ptr @_ZN3pov11disp_nelemsE, align 4, !tbaa !9
  br label %724

724:                                              ; preds = %721, %705
  %725 = getelementptr inbounds %"struct.pov::Ray_Struct", ptr %4, i64 0, i32 2
  %726 = load i32, ptr %725, align 8, !tbaa !77
  %727 = icmp eq i32 %726, -1
  br i1 %727, label %728, label %734

728:                                              ; preds = %724
  call void @_ZN3pov9Ray_EnterEPNS_10Ray_StructEPNS_15Interior_StructE(ptr noundef nonnull %8, ptr noundef nonnull %696)
  %729 = getelementptr inbounds %"struct.pov::Interior_Struct", ptr %696, i64 0, i32 3
  %730 = load <2 x double>, ptr getelementptr inbounds (%"struct.pov::Frame_Struct", ptr @_ZN3pov5FrameE, i64 0, i32 6), align 8, !tbaa !20
  %731 = load <2 x float>, ptr %729, align 4, !tbaa !34
  %732 = fpext <2 x float> %731 to <2 x double>
  %733 = fdiv <2 x double> %730, %732
  br label %772

734:                                              ; preds = %724
  %735 = call noundef i32 @_ZN3pov25Interior_In_Ray_ContainerEPNS_10Ray_StructEPNS_15Interior_StructE(ptr noundef nonnull %8, ptr noundef nonnull %696)
  %736 = icmp sgt i32 %735, -1
  br i1 %736, label %737, label %760

737:                                              ; preds = %734
  call void @_ZN3pov8Ray_ExitEPNS_10Ray_StructEi(ptr noundef nonnull %8, i32 noundef %735)
  %738 = getelementptr inbounds %"struct.pov::Ray_Struct", ptr %8, i64 0, i32 2
  %739 = load i32, ptr %738, align 16, !tbaa !77
  %740 = icmp eq i32 %739, -1
  br i1 %740, label %741, label %747

741:                                              ; preds = %737
  %742 = getelementptr inbounds %"struct.pov::Interior_Struct", ptr %696, i64 0, i32 3
  %743 = load <2 x float>, ptr %742, align 4, !tbaa !34
  %744 = fpext <2 x float> %743 to <2 x double>
  %745 = load <2 x double>, ptr getelementptr inbounds (%"struct.pov::Frame_Struct", ptr @_ZN3pov5FrameE, i64 0, i32 6), align 8, !tbaa !20
  %746 = fdiv <2 x double> %744, %745
  br label %772

747:                                              ; preds = %737
  %748 = add nuw nsw i32 %739, 1
  %749 = icmp eq i32 %735, %748
  br i1 %749, label %750, label %772

750:                                              ; preds = %747
  %751 = getelementptr inbounds %"struct.pov::Interior_Struct", ptr %696, i64 0, i32 3
  %752 = sext i32 %739 to i64
  %753 = getelementptr inbounds %"struct.pov::Ray_Struct", ptr %8, i64 0, i32 4, i64 %752
  %754 = load ptr, ptr %753, align 8, !tbaa !5
  %755 = getelementptr inbounds %"struct.pov::Interior_Struct", ptr %754, i64 0, i32 3
