; ModuleID = 'source/grid/grid_in.cc'
source_filename = "source/grid/grid_in.cc"
target datalayout = "e-m:e-p270:32:32-p271:32:32-p272:64:64-i64:64-f80:128-n8:16:32:64-S128"
target triple = "x86_64-pc-linux-gnu"

module asm ".globl _ZSt21ios_base_library_initv"

%"class.std::__cxx11::basic_string" = type { %"struct.std::__cxx11::basic_string<char>::_Alloc_hider", i64, %union.anon }
%"struct.std::__cxx11::basic_string<char>::_Alloc_hider" = type { ptr }
%union.anon = type { i64, [8 x i8] }
%"class.dealii::GridIn" = type <{ %"class.dealii::SmartPointer", i32, [4 x i8] }>
%"class.dealii::SmartPointer" = type { ptr, ptr }
%"class.dealii::StandardExceptions::ExcIO" = type { %"class.dealii::ExceptionBase.base", [4 x i8] }
%"class.dealii::ExceptionBase.base" = type <{ %"class.std::exception", ptr, i32, [4 x i8], ptr, ptr, ptr, ptr, i32 }>
%"class.std::exception" = type { ptr }
%"class.dealii::GridIn<3>::ExcInvalidDBMESHInput" = type { %"class.dealii::ExceptionBase.base", %"class.std::__cxx11::basic_string" }
%"class.dealii::GridIn<3>::ExcDBMESHWrongDimension" = type { %"class.dealii::ExceptionBase.base", i32 }
%"class.std::vector.3" = type { %"struct.std::_Vector_base.4" }
%"struct.std::_Vector_base.4" = type { %"struct.std::_Vector_base<dealii::Point<3>, std::allocator<dealii::Point<3> > >::_Vector_impl" }
%"struct.std::_Vector_base<dealii::Point<3>, std::allocator<dealii::Point<3> > >::_Vector_impl" = type { %"struct.std::_Vector_base<dealii::Point<3>, std::allocator<dealii::Point<3> > >::_Vector_impl_data" }
%"struct.std::_Vector_base<dealii::Point<3>, std::allocator<dealii::Point<3> > >::_Vector_impl_data" = type { ptr, ptr, ptr }
%"class.dealii::GridIn<3>::ExcInvalidDBMeshFormat" = type { %"class.dealii::ExceptionBase.base", [4 x i8] }
%"class.std::vector.35" = type { %"struct.std::_Vector_base.36" }
%"struct.std::_Vector_base.36" = type { %"struct.std::_Vector_base<dealii::CellData<3>, std::allocator<dealii::CellData<3> > >::_Vector_impl" }
%"struct.std::_Vector_base<dealii::CellData<3>, std::allocator<dealii::CellData<3> > >::_Vector_impl" = type { %"struct.std::_Vector_base<dealii::CellData<3>, std::allocator<dealii::CellData<3> > >::_Vector_impl_data" }
%"struct.std::_Vector_base<dealii::CellData<3>, std::allocator<dealii::CellData<3> > >::_Vector_impl_data" = type { ptr, ptr, ptr }
%"struct.dealii::SubCellData" = type { %"class.std::vector.40", %"class.std::vector.45" }
%"class.std::vector.40" = type { %"struct.std::_Vector_base.41" }
%"struct.std::_Vector_base.41" = type { %"struct.std::_Vector_base<dealii::CellData<1>, std::allocator<dealii::CellData<1> > >::_Vector_impl" }
%"struct.std::_Vector_base<dealii::CellData<1>, std::allocator<dealii::CellData<1> > >::_Vector_impl" = type { %"struct.std::_Vector_base<dealii::CellData<1>, std::allocator<dealii::CellData<1> > >::_Vector_impl_data" }
%"struct.std::_Vector_base<dealii::CellData<1>, std::allocator<dealii::CellData<1> > >::_Vector_impl_data" = type { ptr, ptr, ptr }
%"class.std::vector.45" = type { %"struct.std::_Vector_base.46" }
%"struct.std::_Vector_base.46" = type { %"struct.std::_Vector_base<dealii::CellData<2>, std::allocator<dealii::CellData<2> > >::_Vector_impl" }
%"struct.std::_Vector_base<dealii::CellData<2>, std::allocator<dealii::CellData<2> > >::_Vector_impl" = type { %"struct.std::_Vector_base<dealii::CellData<2>, std::allocator<dealii::CellData<2> > >::_Vector_impl_data" }
%"struct.std::_Vector_base<dealii::CellData<2>, std::allocator<dealii::CellData<2> > >::_Vector_impl_data" = type { ptr, ptr, ptr }
%"class.dealii::GridIn<3>::ExcInvalidVertexIndex" = type { %"class.dealii::ExceptionBase.base", i32, i32, [4 x i8] }
%"class.std::ios_base" = type { ptr, i64, i64, i32, i32, i32, ptr, %"struct.std::ios_base::_Words", [8 x %"struct.std::ios_base::_Words"], i32, ptr, %"class.std::locale" }
%"struct.std::ios_base::_Words" = type { ptr, i64 }
%"class.std::locale" = type { ptr }
%"class.std::basic_ios" = type { %"class.std::ios_base", ptr, i8, i8, ptr, ptr, ptr, ptr }
%"class.std::ctype" = type <{ %"class.std::locale::facet.base", [4 x i8], ptr, i8, [7 x i8], ptr, ptr, ptr, i8, [256 x i8], [256 x i8], i8, [6 x i8] }>
%"class.std::locale::facet.base" = type <{ ptr, i32 }>
%"class.dealii::Point" = type { %"class.dealii::Tensor" }
%"class.dealii::Tensor" = type { [3 x double] }
%"struct.dealii::CellData" = type { [8 x i32], i8 }
%"struct.std::pair.58" = type { i32, i32 }
%"class.dealii::GridIn<3>::ExcInvalidGMSHInput" = type { %"class.dealii::ExceptionBase.base", %"class.std::__cxx11::basic_string" }
%"class.std::map.27" = type { %"class.std::_Rb_tree.28" }
%"class.std::_Rb_tree.28" = type { %"struct.std::_Rb_tree<int, std::pair<const int, int>, std::_Select1st<std::pair<const int, int> >, std::less<int> >::_Rb_tree_impl" }
%"struct.std::_Rb_tree<int, std::pair<const int, int>, std::_Select1st<std::pair<const int, int> >, std::less<int> >::_Rb_tree_impl" = type { %"struct.std::_Rb_tree_key_compare.32", %"struct.std::_Rb_tree_header" }
%"struct.std::_Rb_tree_key_compare.32" = type { %"struct.std::less.33" }
%"struct.std::less.33" = type { i8 }
%"struct.std::_Rb_tree_header" = type { %"struct.std::_Rb_tree_node_base", i64 }
%"struct.std::_Rb_tree_node_base" = type { i32, ptr, ptr, ptr }
%"class.std::allocator.23" = type { i8 }
%"class.dealii::StandardExceptions::ExcNotImplemented" = type { %"class.dealii::ExceptionBase.base", [4 x i8] }
%"class.dealii::StandardExceptions::ExcMessage" = type { %"class.dealii::ExceptionBase.base", ptr }
%"class.dealii::GridIn<3>::ExcGmshUnsupportedGeometry" = type { %"class.dealii::ExceptionBase.base", i32 }
%"struct.std::_Rb_tree_node" = type { %"struct.std::_Rb_tree_node_base", %"struct.std::pair.58" }
%"struct.dealii::CellData.50" = type { [2 x i32], i8 }
%"struct.dealii::CellData.51" = type { [4 x i32], i8 }
%"class.dealii::GridIn<3>::ExcUnknownIdentifier" = type { %"class.dealii::ExceptionBase.base", %"class.std::__cxx11::basic_string" }
%"class.dealii::PathSearch" = type <{ %"class.std::__cxx11::basic_string", ptr, ptr, i32, [4 x i8] }>
%"class.std::basic_ifstream" = type { %"class.std::basic_istream.base", %"class.std::basic_filebuf", %"class.std::basic_ios" }
%"class.std::basic_istream.base" = type { ptr, i64 }
%"class.std::basic_filebuf" = type { %"class.std::basic_streambuf", %union.pthread_mutex_t, %"class.std::__basic_file", i32, %struct.__mbstate_t, %struct.__mbstate_t, %struct.__mbstate_t, ptr, i64, i8, i8, i8, i8, ptr, ptr, i8, ptr, ptr, i64, ptr, ptr }
%"class.std::basic_streambuf" = type { ptr, ptr, ptr, ptr, ptr, ptr, ptr, %"class.std::locale" }
%union.pthread_mutex_t = type { %struct.__pthread_mutex_s }
%struct.__pthread_mutex_s = type { i32, i32, i32, i32, i32, i16, i16, %struct.__pthread_internal_list }
%struct.__pthread_internal_list = type { ptr, ptr }
%"class.std::__basic_file" = type <{ ptr, i8, [7 x i8] }>
%struct.__mbstate_t = type { i32, %union.anon.26 }
%union.anon.26 = type { i32 }
%"class.std::basic_istream" = type { ptr, i64, %"class.std::basic_ios" }
%"class.dealii::StandardExceptions::ExcInvalidState" = type { %"class.dealii::ExceptionBase.base", [4 x i8] }
%"class.dealii::StandardExceptions::ExcNeedsNetCDF" = type { %"class.dealii::ExceptionBase.base", [4 x i8] }
%"class.std::vector.52" = type { %"struct.std::_Vector_base.53" }
%"struct.std::_Vector_base.53" = type { %"struct.std::_Vector_base<std::__cxx11::basic_string<char>, std::allocator<std::__cxx11::basic_string<char> > >::_Vector_impl" }
%"struct.std::_Vector_base<std::__cxx11::basic_string<char>, std::allocator<std::__cxx11::basic_string<char> > >::_Vector_impl" = type { %"struct.std::_Vector_base<std::__cxx11::basic_string<char>, std::allocator<std::__cxx11::basic_string<char> > >::_Vector_impl_data" }
%"struct.std::_Vector_base<std::__cxx11::basic_string<char>, std::allocator<std::__cxx11::basic_string<char> > >::_Vector_impl_data" = type { ptr, ptr, ptr }
%"struct.std::_Vector_base<unsigned int, std::allocator<unsigned int> >::_Vector_impl_data" = type { ptr, ptr, ptr }

$_ZN6dealii6GridInILi3ELi3EEC5Ev = comdat any

$_ZN6dealii6GridInILi3ELi3EE20attach_triangulationERNS_13TriangulationILi3ELi3EEE = comdat any

$_ZN6dealii6GridInILi3ELi3EE4readERSiNS1_6FormatE = comdat any

$_ZN6dealii6GridInILi3ELi3EE11read_dbmeshERSi = comdat any

$_ZN6dealii6GridInILi3ELi3EE8read_mshERSi = comdat any

$_ZN6dealii6GridInILi3ELi3EE8read_ucdERSi = comdat any

$_ZN6dealii6GridInILi3ELi3EE12read_tecplotERSi = comdat any

$_ZN6dealii6GridInILi3ELi3EE4readERKNSt7__cxx1112basic_stringIcSt11char_traitsIcESaIcEEENS1_6FormatE = comdat any

$__clang_call_terminate = comdat any

$_ZN6dealii6GridInILi3ELi3EE14default_suffixB5cxx11ENS1_6FormatE = comdat any

$_ZN6dealii6GridInILi3ELi3EE12parse_formatERKNSt7__cxx1112basic_stringIcSt11char_traitsIcESaIcEEE = comdat any

$_ZN6dealii6GridInILi3ELi3EE18skip_comment_linesERSic = comdat any

$_ZNSt3mapIiiSt4lessIiESaISt4pairIKiiEEEixERS3_ = comdat any

$_ZSteqIcSt11char_traitsIcESaIcEEbRKNSt7__cxx1112basic_stringIT_T0_T1_EEPKS5_ = comdat any

$_ZN6dealii11SubCellDataD2Ev = comdat any

$_ZN6dealii6GridInILi3ELi3EE16skip_empty_linesERSi = comdat any

$_ZN6dealii18deal_II_exceptions9internals17issue_error_throwINS_18StandardExceptions10ExcMessageEEEvPKciS6_S6_S6_T_ = comdat any

$_ZN6dealii18deal_II_exceptions9internals17issue_error_throwINS_18StandardExceptions15ExcInvalidStateEEEvPKciS6_S6_S6_T_ = comdat any

$_ZN6dealii6GridInILi3ELi3EE16get_format_namesB5cxx11Ev = comdat any

$_ZN6dealii6GridInILi3ELi3EE20ExcUnknownIdentifierC5ENSt7__cxx1112basic_stringIcSt11char_traitsIcESaIcEEE = comdat any

$_ZN6dealii6GridInILi3ELi3EE20ExcUnknownIdentifierD5Ev = comdat any

$_ZNK6dealii6GridInILi3ELi3EE20ExcUnknownIdentifier10print_infoERSo = comdat any

$_ZN6dealii6GridInILi3ELi3EE21ExcInvalidVertexIndexC5Eii = comdat any

$_ZN6dealii6GridInILi3ELi3EE21ExcInvalidVertexIndexD5Ev = comdat any

$_ZNK6dealii6GridInILi3ELi3EE21ExcInvalidVertexIndex10print_infoERSo = comdat any

$_ZN6dealii6GridInILi3ELi3EE21ExcInvalidDBMESHInputC5ENSt7__cxx1112basic_stringIcSt11char_traitsIcESaIcEEE = comdat any

$_ZN6dealii6GridInILi3ELi3EE21ExcInvalidDBMESHInputD5Ev = comdat any

$_ZNK6dealii6GridInILi3ELi3EE21ExcInvalidDBMESHInput10print_infoERSo = comdat any

$_ZN6dealii6GridInILi3ELi3EE23ExcDBMESHWrongDimensionC5Ei = comdat any

$_ZN6dealii6GridInILi3ELi3EE23ExcDBMESHWrongDimensionD5Ev = comdat any

$_ZNK6dealii6GridInILi3ELi3EE23ExcDBMESHWrongDimension10print_infoERSo = comdat any

$_ZN6dealii6GridInILi3ELi3EE19ExcInvalidGMSHInputC5ENSt7__cxx1112basic_stringIcSt11char_traitsIcESaIcEEE = comdat any

$_ZN6dealii6GridInILi3ELi3EE19ExcInvalidGMSHInputD5Ev = comdat any

$_ZNK6dealii6GridInILi3ELi3EE19ExcInvalidGMSHInput10print_infoERSo = comdat any

$_ZN6dealii6GridInILi3ELi3EE26ExcGmshUnsupportedGeometryC5Ei = comdat any

$_ZN6dealii6GridInILi3ELi3EE26ExcGmshUnsupportedGeometryD5Ev = comdat any

$_ZNK6dealii6GridInILi3ELi3EE26ExcGmshUnsupportedGeometry10print_infoERSo = comdat any

$_ZN6dealii6GridInILi3ELi3EE20parse_tecplot_headerERNSt7__cxx1112basic_stringIcSt11char_traitsIcESaIcEEERSt6vectorIjSaIjEERjSD_SD_SC_RbSE_ = comdat any

$_ZNSt6vectorINSt7__cxx1112basic_stringIcSt11char_traitsIcESaIcEEESaIS5_EED2Ev = comdat any

$_ZN6dealiilsILi3EEERSoS1_RKNS_5PointIXT_EEE = comdat any

$_ZN6dealii6GridInILi3ELi3EE26ExcNoTriangulationSelectedD0Ev = comdat any

$_ZN6dealii18StandardExceptions5ExcIOD0Ev = comdat any

$_ZNSt8_Rb_treeIiSt4pairIKiiESt10_Select1stIS2_ESt4lessIiESaIS2_EE8_M_eraseEPSt13_Rb_tree_nodeIS2_E = comdat any

$_ZN6dealii6GridInILi3ELi3EE22ExcInvalidDBMeshFormatD0Ev = comdat any

$_ZN6dealii18StandardExceptions17ExcNotImplementedD0Ev = comdat any

$_ZN6dealii18StandardExceptions10ExcMessageD0Ev = comdat any

$_ZNK6dealii18StandardExceptions10ExcMessage10print_infoERSo = comdat any

$_ZN6dealii18StandardExceptions15ExcInvalidStateD0Ev = comdat any

$_ZN6dealii18StandardExceptions14ExcNeedsNetCDFD0Ev = comdat any

$_ZNSt8_Rb_treeIiSt4pairIKiiESt10_Select1stIS2_ESt4lessIiESaIS2_EE29_M_get_insert_hint_unique_posESt23_Rb_tree_const_iteratorIS2_ERS1_ = comdat any

$_ZN6dealii6GridInILi3ELi3EE20ExcUnknownIdentifierC2ERKS2_ = comdat any

$_ZN6dealii6GridInILi3ELi3EE21ExcInvalidDBMESHInputC2ERKS2_ = comdat any

$_ZN6dealii6GridInILi3ELi3EE19ExcInvalidGMSHInputC2ERKS2_ = comdat any

$_ZN6dealii18StandardExceptions10ExcMessageC2ERKS1_ = comdat any

$_ZN6dealii18StandardExceptions15ExcInvalidStateC2ERKS1_ = comdat any

$_ZZN6dealii6GridInILi3ELi3EE8read_mshERSiE16end_nodes_markerB5cxx11 = comdat any

$_ZGVZN6dealii6GridInILi3ELi3EE8read_mshERSiE16end_nodes_markerB5cxx11 = comdat any

$_ZZN6dealii6GridInILi3ELi3EE8read_mshERSiE21begin_elements_markerB5cxx11 = comdat any

$_ZGVZN6dealii6GridInILi3ELi3EE8read_mshERSiE21begin_elements_markerB5cxx11 = comdat any

$_ZZN6dealii6GridInILi3ELi3EE8read_mshERSiE19end_elements_markerB5cxx11 = comdat any

$_ZGVZN6dealii6GridInILi3ELi3EE8read_mshERSiE19end_elements_markerB5cxx11 = comdat any

$_ZTVN6dealii6GridInILi3ELi3EE20ExcUnknownIdentifierE = comdat any

$_ZTVN6dealii6GridInILi3ELi3EE21ExcInvalidVertexIndexE = comdat any

$_ZTVN6dealii6GridInILi3ELi3EE21ExcInvalidDBMESHInputE = comdat any

$_ZTVN6dealii6GridInILi3ELi3EE23ExcDBMESHWrongDimensionE = comdat any

$_ZTVN6dealii6GridInILi3ELi3EE19ExcInvalidGMSHInputE = comdat any

$_ZTVN6dealii6GridInILi3ELi3EE26ExcGmshUnsupportedGeometryE = comdat any

$_ZTVN6dealii6GridInILi3ELi3EE26ExcNoTriangulationSelectedE = comdat any

$_ZTSN6dealii6GridInILi3ELi3EE26ExcNoTriangulationSelectedE = comdat any

$_ZTIN6dealii6GridInILi3ELi3EE26ExcNoTriangulationSelectedE = comdat any

$_ZTSN6dealii6GridInILi3ELi3EE20ExcUnknownIdentifierE = comdat any

$_ZTIN6dealii6GridInILi3ELi3EE20ExcUnknownIdentifierE = comdat any

$_ZTSN6dealii6GridInILi3ELi3EE21ExcInvalidVertexIndexE = comdat any

$_ZTIN6dealii6GridInILi3ELi3EE21ExcInvalidVertexIndexE = comdat any

$_ZTSN6dealii6GridInILi3ELi3EE21ExcInvalidDBMESHInputE = comdat any

$_ZTIN6dealii6GridInILi3ELi3EE21ExcInvalidDBMESHInputE = comdat any

$_ZTSN6dealii6GridInILi3ELi3EE23ExcDBMESHWrongDimensionE = comdat any

$_ZTIN6dealii6GridInILi3ELi3EE23ExcDBMESHWrongDimensionE = comdat any

$_ZTSN6dealii6GridInILi3ELi3EE19ExcInvalidGMSHInputE = comdat any

$_ZTIN6dealii6GridInILi3ELi3EE19ExcInvalidGMSHInputE = comdat any

$_ZTSN6dealii6GridInILi3ELi3EE26ExcGmshUnsupportedGeometryE = comdat any

$_ZTIN6dealii6GridInILi3ELi3EE26ExcGmshUnsupportedGeometryE = comdat any

$_ZTVN6dealii18StandardExceptions5ExcIOE = comdat any

$_ZTSN6dealii18StandardExceptions5ExcIOE = comdat any

$_ZTIN6dealii18StandardExceptions5ExcIOE = comdat any

$_ZTVN6dealii6GridInILi3ELi3EE22ExcInvalidDBMeshFormatE = comdat any

$_ZTSN6dealii6GridInILi3ELi3EE22ExcInvalidDBMeshFormatE = comdat any

$_ZTIN6dealii6GridInILi3ELi3EE22ExcInvalidDBMeshFormatE = comdat any

$_ZTVN6dealii18StandardExceptions17ExcNotImplementedE = comdat any

$_ZTSN6dealii18StandardExceptions17ExcNotImplementedE = comdat any

$_ZTIN6dealii18StandardExceptions17ExcNotImplementedE = comdat any

$_ZTVN6dealii18StandardExceptions10ExcMessageE = comdat any

$_ZTSN6dealii18StandardExceptions10ExcMessageE = comdat any

$_ZTIN6dealii18StandardExceptions10ExcMessageE = comdat any

$_ZTVN6dealii18StandardExceptions15ExcInvalidStateE = comdat any

$_ZTSN6dealii18StandardExceptions15ExcInvalidStateE = comdat any

$_ZTIN6dealii18StandardExceptions15ExcInvalidStateE = comdat any

$_ZTVN6dealii18StandardExceptions14ExcNeedsNetCDFE = comdat any

$_ZTSN6dealii18StandardExceptions14ExcNeedsNetCDFE = comdat any

$_ZTIN6dealii18StandardExceptions14ExcNeedsNetCDFE = comdat any

@.str.1 = private unnamed_addr constant [2 x i8] c"r\00", align 1
@.str.2 = private unnamed_addr constant [23 x i8] c"source/grid/grid_in.cc\00", align 1
@.str.3 = private unnamed_addr constant [1 x i8] zeroinitializer, align 1
@.str.4 = private unnamed_addr constant [3 x i8] c"in\00", align 1
@.str.5 = private unnamed_addr constant [8 x i8] c"ExcIO()\00", align 1
@.str.6 = private unnamed_addr constant [5 x i8] c"line\00", align 1
@.str.7 = private unnamed_addr constant [5 x i8] c"quad\00", align 1
@.str.8 = private unnamed_addr constant [4 x i8] c"hex\00", align 1
@.str.9 = private unnamed_addr constant [6 x i8] c"false\00", align 1
@.str.10 = private unnamed_addr constant [54 x i8] c"ExcInvalidVertexIndex(cell, cells.back().vertices[i])\00", align 1
@.str.11 = private unnamed_addr constant [75 x i8] c"ExcInvalidVertexIndex(cell, subcelldata.boundary_lines.back().vertices[i])\00", align 1
@.str.12 = private unnamed_addr constant [32 x i8] c"ExcUnknownIdentifier(cell_type)\00", align 1
@.str.13 = private unnamed_addr constant [23 x i8] c"MeshVersionFormatted 0\00", align 1
@.str.14 = private unnamed_addr constant [31 x i8] c"line==\22MeshVersionFormatted 0\22\00", align 1
@.str.15 = private unnamed_addr constant [28 x i8] c"ExcInvalidDBMESHInput(line)\00", align 1
@.str.16 = private unnamed_addr constant [10 x i8] c"Dimension\00", align 1
@.str.17 = private unnamed_addr constant [18 x i8] c"line==\22Dimension\22\00", align 1
@.str.18 = private unnamed_addr constant [17 x i8] c"dimension == dim\00", align 1
@.str.19 = private unnamed_addr constant [35 x i8] c"ExcDBMESHWrongDimension(dimension)\00", align 1
@.str.20 = private unnamed_addr constant [6 x i8] c"# END\00", align 1
@.str.21 = private unnamed_addr constant [9 x i8] c"Vertices\00", align 1
@.str.22 = private unnamed_addr constant [17 x i8] c"line==\22Vertices\22\00", align 1
@.str.23 = private unnamed_addr constant [25 x i8] c"ExcInvalidDBMeshFormat()\00", align 1
@.str.24 = private unnamed_addr constant [6 x i8] c"Edges\00", align 1
@.str.25 = private unnamed_addr constant [14 x i8] c"line==\22Edges\22\00", align 1
@.str.26 = private unnamed_addr constant [13 x i8] c"CrackedEdges\00", align 1
@.str.27 = private unnamed_addr constant [21 x i8] c"line==\22CrackedEdges\22\00", align 1
@.str.28 = private unnamed_addr constant [15 x i8] c"Quadrilaterals\00", align 1
@.str.29 = private unnamed_addr constant [23 x i8] c"line==\22Quadrilaterals\22\00", align 1
@.str.30 = private unnamed_addr constant [108 x i8] c"(cells.back().vertices[i] >= 1) && (static_cast<unsigned int>(cells.back().vertices[i]) <= vertices.size())\00", align 1
@.str.31 = private unnamed_addr constant [4 x i8] c"End\00", align 1
@.str.32 = private unnamed_addr constant [5 x i8] c"$NOD\00", align 1
@.str.33 = private unnamed_addr constant [12 x i8] c"$MeshFormat\00", align 1
@.str.34 = private unnamed_addr constant [26 x i8] c"ExcInvalidGMSHInput(line)\00", align 1
@.str.35 = private unnamed_addr constant [15 x i8] c"$EndMeshFormat\00", align 1
@.str.36 = private unnamed_addr constant [25 x i8] c"line == \22$EndMeshFormat\22\00", align 1
@.str.37 = private unnamed_addr constant [7 x i8] c"$Nodes\00", align 1
@.str.38 = private unnamed_addr constant [17 x i8] c"line == \22$Nodes\22\00", align 1
@_ZZN6dealii6GridInILi3ELi3EE8read_mshERSiE16end_nodes_markerB5cxx11 = linkonce_odr dso_local global [2 x %"class.std::__cxx11::basic_string"] zeroinitializer, comdat, align 16
@_ZGVZN6dealii6GridInILi3ELi3EE8read_mshERSiE16end_nodes_markerB5cxx11 = linkonce_odr dso_local global i64 0, comdat, align 8
@.str.39 = private unnamed_addr constant [8 x i8] c"$ENDNOD\00", align 1
@.str.40 = private unnamed_addr constant [10 x i8] c"$EndNodes\00", align 1
@__dso_handle = external hidden global i8
@.str.41 = private unnamed_addr constant [43 x i8] c"line==end_nodes_marker[gmsh_file_format-1]\00", align 1
@_ZZN6dealii6GridInILi3ELi3EE8read_mshERSiE21begin_elements_markerB5cxx11 = linkonce_odr dso_local global [2 x %"class.std::__cxx11::basic_string"] zeroinitializer, comdat, align 16
@_ZGVZN6dealii6GridInILi3ELi3EE8read_mshERSiE21begin_elements_markerB5cxx11 = linkonce_odr dso_local global i64 0, comdat, align 8
@.str.42 = private unnamed_addr constant [5 x i8] c"$ELM\00", align 1
@.str.43 = private unnamed_addr constant [10 x i8] c"$Elements\00", align 1
@.str.45 = private unnamed_addr constant [48 x i8] c"line==begin_elements_marker[gmsh_file_format-1]\00", align 1
@.str.46 = private unnamed_addr constant [20 x i8] c"ExcNotImplemented()\00", align 1
@.str.47 = private unnamed_addr constant [48 x i8] c"nod_num == GeometryInfo<dim>::vertices_per_cell\00", align 1
@.str.48 = private unnamed_addr constant [93 x i8] c"ExcMessage (\22Number of nodes does not coincide with the \22 \22number required for this object\22)\00", align 1
@.str.49 = private unnamed_addr constant [75 x i8] c"Number of nodes does not coincide with the number required for this object\00", align 1
@.str.50 = private unnamed_addr constant [71 x i8] c"vertex_indices.find (cells.back().vertices[i]) != vertex_indices.end()\00", align 1
@.str.51 = private unnamed_addr constant [38 x i8] c"ExcGmshUnsupportedGeometry(cell_type)\00", align 1
@_ZZN6dealii6GridInILi3ELi3EE8read_mshERSiE19end_elements_markerB5cxx11 = linkonce_odr dso_local global [2 x %"class.std::__cxx11::basic_string"] zeroinitializer, comdat, align 16
@_ZGVZN6dealii6GridInILi3ELi3EE8read_mshERSiE19end_elements_markerB5cxx11 = linkonce_odr dso_local global i64 0, comdat, align 8
@.str.52 = private unnamed_addr constant [8 x i8] c"$ENDELM\00", align 1
@.str.53 = private unnamed_addr constant [13 x i8] c"$EndElements\00", align 1
@.str.55 = private unnamed_addr constant [46 x i8] c"line==end_elements_marker[gmsh_file_format-1]\00", align 1
@.str.56 = private unnamed_addr constant [8 x i8] c".dbmesh\00", align 1
@.str.60 = private unnamed_addr constant [4 x i8] c".nc\00", align 1
@.str.62 = private unnamed_addr constant [16 x i8] c".unknown_format\00", align 1
@.str.63 = private unnamed_addr constant [7 x i8] c"dbmesh\00", align 1
@.str.64 = private unnamed_addr constant [4 x i8] c"msh\00", align 1
@.str.65 = private unnamed_addr constant [4 x i8] c"inp\00", align 1
@.str.66 = private unnamed_addr constant [4 x i8] c"ucd\00", align 1
@.str.67 = private unnamed_addr constant [4 x i8] c"xda\00", align 1
@.str.68 = private unnamed_addr constant [7 x i8] c"netcdf\00", align 1
@.str.69 = private unnamed_addr constant [3 x i8] c"nc\00", align 1
@.str.70 = private unnamed_addr constant [8 x i8] c"tecplot\00", align 1
@.str.71 = private unnamed_addr constant [4 x i8] c"dat\00", align 1
@.str.72 = private unnamed_addr constant [4 x i8] c"plt\00", align 1
@.str.73 = private unnamed_addr constant [19 x i8] c"ExcInvalidState ()\00", align 1
@.str.74 = private unnamed_addr constant [34 x i8] c"dbmesh|msh|ucd|xda|netcdf|tecplot\00", align 1
@_ZTVN6dealii6GridInILi3ELi3EE20ExcUnknownIdentifierE = linkonce_odr dso_local unnamed_addr constant { [6 x ptr] } { [6 x ptr] [ptr null, ptr @_ZTIN6dealii6GridInILi3ELi3EE20ExcUnknownIdentifierE, ptr @_ZN6dealii6GridInILi3ELi3EE20ExcUnknownIdentifierD2Ev, ptr @_ZN6dealii6GridInILi3ELi3EE20ExcUnknownIdentifierD0Ev, ptr @_ZNK6dealii13ExceptionBase4whatEv, ptr @_ZNK6dealii6GridInILi3ELi3EE20ExcUnknownIdentifier10print_infoERSo] }, comdat, align 8
@.str.75 = private unnamed_addr constant [17 x i8] c"The identifier <\00", align 1
@.str.76 = private unnamed_addr constant [16 x i8] c"> as name of a \00", align 1
@.str.77 = private unnamed_addr constant [45 x i8] c"part in an UCD input file is unknown or the \00", align 1
@.str.78 = private unnamed_addr constant [45 x i8] c"respective input routine is not implemented.\00", align 1
@.str.79 = private unnamed_addr constant [49 x i8] c"(Maybe the space dimension of triangulation and \00", align 1
@.str.80 = private unnamed_addr constant [25 x i8] c"input file do not match?\00", align 1
@_ZTVN6dealii6GridInILi3ELi3EE21ExcInvalidVertexIndexE = linkonce_odr dso_local unnamed_addr constant { [6 x ptr] } { [6 x ptr] [ptr null, ptr @_ZTIN6dealii6GridInILi3ELi3EE21ExcInvalidVertexIndexE, ptr @_ZN6dealii6GridInILi3ELi3EE21ExcInvalidVertexIndexD2Ev, ptr @_ZN6dealii6GridInILi3ELi3EE21ExcInvalidVertexIndexD0Ev, ptr @_ZNK6dealii13ExceptionBase4whatEv, ptr @_ZNK6dealii6GridInILi3ELi3EE21ExcInvalidVertexIndex10print_infoERSo] }, comdat, align 8
@.str.81 = private unnamed_addr constant [39 x i8] c"Trying to access invalid vertex index \00", align 1
@.str.82 = private unnamed_addr constant [22 x i8] c" while creating cell \00", align 1
@_ZTVN6dealii6GridInILi3ELi3EE21ExcInvalidDBMESHInputE = linkonce_odr dso_local unnamed_addr constant { [6 x ptr] } { [6 x ptr] [ptr null, ptr @_ZTIN6dealii6GridInILi3ELi3EE21ExcInvalidDBMESHInputE, ptr @_ZN6dealii6GridInILi3ELi3EE21ExcInvalidDBMESHInputD2Ev, ptr @_ZN6dealii6GridInILi3ELi3EE21ExcInvalidDBMESHInputD0Ev, ptr @_ZNK6dealii13ExceptionBase4whatEv, ptr @_ZNK6dealii6GridInILi3ELi3EE21ExcInvalidDBMESHInput10print_infoERSo] }, comdat, align 8
@.str.83 = private unnamed_addr constant [13 x i8] c"The string <\00", align 1
@.str.84 = private unnamed_addr constant [35 x i8] c"> is not recognized at the present\00", align 1
@.str.85 = private unnamed_addr constant [29 x i8] c" position of a DB Mesh file.\00", align 1
@_ZTVN6dealii6GridInILi3ELi3EE23ExcDBMESHWrongDimensionE = linkonce_odr dso_local unnamed_addr constant { [6 x ptr] } { [6 x ptr] [ptr null, ptr @_ZTIN6dealii6GridInILi3ELi3EE23ExcDBMESHWrongDimensionE, ptr @_ZN6dealii6GridInILi3ELi3EE23ExcDBMESHWrongDimensionD2Ev, ptr @_ZN6dealii6GridInILi3ELi3EE23ExcDBMESHWrongDimensionD0Ev, ptr @_ZNK6dealii13ExceptionBase4whatEv, ptr @_ZNK6dealii6GridInILi3ELi3EE23ExcDBMESHWrongDimension10print_infoERSo] }, comdat, align 8
@.str.86 = private unnamed_addr constant [25 x i8] c"The specified dimension \00", align 1
@.str.87 = private unnamed_addr constant [61 x i8] c" is not the same as that of the triangulation to be created.\00", align 1
@_ZTVN6dealii6GridInILi3ELi3EE19ExcInvalidGMSHInputE = linkonce_odr dso_local unnamed_addr constant { [6 x ptr] } { [6 x ptr] [ptr null, ptr @_ZTIN6dealii6GridInILi3ELi3EE19ExcInvalidGMSHInputE, ptr @_ZN6dealii6GridInILi3ELi3EE19ExcInvalidGMSHInputD2Ev, ptr @_ZN6dealii6GridInILi3ELi3EE19ExcInvalidGMSHInputD0Ev, ptr @_ZNK6dealii13ExceptionBase4whatEv, ptr @_ZNK6dealii6GridInILi3ELi3EE19ExcInvalidGMSHInput10print_infoERSo] }, comdat, align 8
@.str.88 = private unnamed_addr constant [31 x i8] c" position of a Gmsh Mesh file.\00", align 1
@_ZTVN6dealii6GridInILi3ELi3EE26ExcGmshUnsupportedGeometryE = linkonce_odr dso_local unnamed_addr constant { [6 x ptr] } { [6 x ptr] [ptr null, ptr @_ZTIN6dealii6GridInILi3ELi3EE26ExcGmshUnsupportedGeometryE, ptr @_ZN6dealii6GridInILi3ELi3EE26ExcGmshUnsupportedGeometryD2Ev, ptr @_ZN6dealii6GridInILi3ELi3EE26ExcGmshUnsupportedGeometryD0Ev, ptr @_ZNK6dealii13ExceptionBase4whatEv, ptr @_ZNK6dealii6GridInILi3ELi3EE26ExcGmshUnsupportedGeometry10print_infoERSo] }, comdat, align 8
@.str.89 = private unnamed_addr constant [25 x i8] c"The Element Identifier <\00", align 1
@.str.90 = private unnamed_addr constant [10 x i8] c"> is not \00", align 1
@.str.91 = private unnamed_addr constant [35 x i8] c"supported in the Deal.II Library.\0A\00", align 1
@.str.92 = private unnamed_addr constant [26 x i8] c"Supported elements are: \0A\00", align 1
@.str.93 = private unnamed_addr constant [10 x i8] c"ELM-TYPE\0A\00", align 1
@.str.94 = private unnamed_addr constant [27 x i8] c"1 Line (2 nodes, 1 edge).\0A\00", align 1
@.str.95 = private unnamed_addr constant [37 x i8] c"3 Quadrilateral (4 nodes, 4 edges).\0A\00", align 1
@.str.96 = private unnamed_addr constant [44 x i8] c"5 Hexahedron (8 nodes, 12 edges, 6 faces).\0A\00", align 1
@.str.97 = private unnamed_addr constant [37 x i8] c"15 Point (1 node, ignored when read)\00", align 1
@.str.98 = private unnamed_addr constant [2 x i8] c"=\00", align 1
@.str.99 = private unnamed_addr constant [12 x i8] c"VARIABLES=\22\00", align 1
@.str.100 = private unnamed_addr constant [14 x i8] c"VARIABLES=\22X\22\00", align 1
@.str.101 = private unnamed_addr constant [4 x i8] c"\22X\22\00", align 1
@.str.102 = private unnamed_addr constant [4 x i8] c"\22Y\22\00", align 1
@.str.103 = private unnamed_addr constant [4 x i8] c"\22Z\22\00", align 1
@.str.104 = private unnamed_addr constant [12 x i8] c"n_vars>=dim\00", align 1
@.str.105 = private unnamed_addr constant [81 x i8] c"ExcMessage(\22Tecplot file must contain at least one variable for each dimension\22)\00", align 1
@.str.106 = private unnamed_addr constant [67 x i8] c"Tecplot file must contain at least one variable for each dimension\00", align 1
@.str.107 = private unnamed_addr constant [18 x i8] c"tecplot2deal[i]>0\00", align 1
@.str.108 = private unnamed_addr constant [82 x i8] c"ExcMessage(\22Tecplot file must contain at least one variable for each dimension.\22)\00", align 1
@.str.109 = private unnamed_addr constant [68 x i8] c"Tecplot file must contain at least one variable for each dimension.\00", align 1
@.str.110 = private unnamed_addr constant [17 x i8] c"ZONETYPE=ORDERED\00", align 1
@.str.111 = private unnamed_addr constant [19 x i8] c"ZONETYPE=FELINESEG\00", align 1
@.str.112 = private unnamed_addr constant [25 x i8] c"ZONETYPE=FEQUADRILATERAL\00", align 1
@.str.113 = private unnamed_addr constant [17 x i8] c"ZONETYPE=FEBRICK\00", align 1
@.str.114 = private unnamed_addr constant [10 x i8] c"ZONETYPE=\00", align 1
@.str.115 = private unnamed_addr constant [65 x i8] c"ExcMessage(\22The tecplot file contains an unsupported ZONETYPE.\22)\00", align 1
@.str.116 = private unnamed_addr constant [51 x i8] c"The tecplot file contains an unsupported ZONETYPE.\00", align 1
@.str.117 = private unnamed_addr constant [18 x i8] c"DATAPACKING=POINT\00", align 1
@.str.118 = private unnamed_addr constant [18 x i8] c"DATAPACKING=BLOCK\00", align 1
@.str.119 = private unnamed_addr constant [8 x i8] c"F=POINT\00", align 1
@.str.120 = private unnamed_addr constant [8 x i8] c"F=BLOCK\00", align 1
@.str.121 = private unnamed_addr constant [10 x i8] c"F=FEPOINT\00", align 1
@.str.122 = private unnamed_addr constant [10 x i8] c"F=FEBLOCK\00", align 1
@.str.123 = private unnamed_addr constant [17 x i8] c"ET=QUADRILATERAL\00", align 1
@.str.125 = private unnamed_addr constant [4 x i8] c"ET=\00", align 1
@.str.126 = private unnamed_addr constant [68 x i8] c"ExcMessage(\22The tecplot file contains an unsupported ElementType.\22)\00", align 1
@.str.127 = private unnamed_addr constant [54 x i8] c"The tecplot file contains an unsupported ElementType.\00", align 1
@.str.128 = private unnamed_addr constant [3 x i8] c"I=\00", align 1
@.str.129 = private unnamed_addr constant [3 x i8] c"J=\00", align 1
@.str.130 = private unnamed_addr constant [3 x i8] c"K=\00", align 1
@.str.131 = private unnamed_addr constant [3 x i8] c"N=\00", align 1
@.str.132 = private unnamed_addr constant [3 x i8] c"E=\00", align 1
@.str.133 = private unnamed_addr constant [9 x i8] c"IJK[d]>0\00", align 1
@.str.134 = private unnamed_addr constant [88 x i8] c"ExcMessage(\22Tecplot file does not contain a complete and consistent set of parameters\22)\00", align 1
@.str.135 = private unnamed_addr constant [74 x i8] c"Tecplot file does not contain a complete and consistent set of parameters\00", align 1
@.str.136 = private unnamed_addr constant [13 x i8] c"n_vertices>0\00", align 1
@.str.137 = private unnamed_addr constant [10 x i8] c"n_cells>0\00", align 1
@.str.138 = private unnamed_addr constant [17 x i8] c"ExcNeedsNetCDF()\00", align 1
@_ZTVN6dealii6GridInILi3ELi3EE26ExcNoTriangulationSelectedE = weak_odr dso_local unnamed_addr constant { [6 x ptr] } { [6 x ptr] [ptr null, ptr @_ZTIN6dealii6GridInILi3ELi3EE26ExcNoTriangulationSelectedE, ptr @_ZN6dealii13ExceptionBaseD2Ev, ptr @_ZN6dealii6GridInILi3ELi3EE26ExcNoTriangulationSelectedD0Ev, ptr @_ZNK6dealii13ExceptionBase4whatEv, ptr @_ZNK6dealii13ExceptionBase10print_infoERSo] }, comdat, align 8
@_ZTVN10__cxxabiv120__si_class_type_infoE = external global ptr
@_ZTSN6dealii6GridInILi3ELi3EE26ExcNoTriangulationSelectedE = weak_odr dso_local constant [55 x i8] c"N6dealii6GridInILi3ELi3EE26ExcNoTriangulationSelectedE\00", comdat, align 1
@_ZTIN6dealii13ExceptionBaseE = external constant ptr
@_ZTIN6dealii6GridInILi3ELi3EE26ExcNoTriangulationSelectedE = weak_odr dso_local constant { ptr, ptr, ptr } { ptr getelementptr inbounds (ptr, ptr @_ZTVN10__cxxabiv120__si_class_type_infoE, i64 2), ptr @_ZTSN6dealii6GridInILi3ELi3EE26ExcNoTriangulationSelectedE, ptr @_ZTIN6dealii13ExceptionBaseE }, comdat, align 8
@_ZTSN6dealii6GridInILi3ELi3EE20ExcUnknownIdentifierE = linkonce_odr dso_local constant [49 x i8] c"N6dealii6GridInILi3ELi3EE20ExcUnknownIdentifierE\00", comdat, align 1
@_ZTIN6dealii6GridInILi3ELi3EE20ExcUnknownIdentifierE = linkonce_odr dso_local constant { ptr, ptr, ptr } { ptr getelementptr inbounds (ptr, ptr @_ZTVN10__cxxabiv120__si_class_type_infoE, i64 2), ptr @_ZTSN6dealii6GridInILi3ELi3EE20ExcUnknownIdentifierE, ptr @_ZTIN6dealii13ExceptionBaseE }, comdat, align 8
@_ZTSN6dealii6GridInILi3ELi3EE21ExcInvalidVertexIndexE = linkonce_odr dso_local constant [50 x i8] c"N6dealii6GridInILi3ELi3EE21ExcInvalidVertexIndexE\00", comdat, align 1
@_ZTIN6dealii6GridInILi3ELi3EE21ExcInvalidVertexIndexE = linkonce_odr dso_local constant { ptr, ptr, ptr } { ptr getelementptr inbounds (ptr, ptr @_ZTVN10__cxxabiv120__si_class_type_infoE, i64 2), ptr @_ZTSN6dealii6GridInILi3ELi3EE21ExcInvalidVertexIndexE, ptr @_ZTIN6dealii13ExceptionBaseE }, comdat, align 8
@_ZTSN6dealii6GridInILi3ELi3EE21ExcInvalidDBMESHInputE = linkonce_odr dso_local constant [50 x i8] c"N6dealii6GridInILi3ELi3EE21ExcInvalidDBMESHInputE\00", comdat, align 1
@_ZTIN6dealii6GridInILi3ELi3EE21ExcInvalidDBMESHInputE = linkonce_odr dso_local constant { ptr, ptr, ptr } { ptr getelementptr inbounds (ptr, ptr @_ZTVN10__cxxabiv120__si_class_type_infoE, i64 2), ptr @_ZTSN6dealii6GridInILi3ELi3EE21ExcInvalidDBMESHInputE, ptr @_ZTIN6dealii13ExceptionBaseE }, comdat, align 8
@_ZTSN6dealii6GridInILi3ELi3EE23ExcDBMESHWrongDimensionE = linkonce_odr dso_local constant [52 x i8] c"N6dealii6GridInILi3ELi3EE23ExcDBMESHWrongDimensionE\00", comdat, align 1
@_ZTIN6dealii6GridInILi3ELi3EE23ExcDBMESHWrongDimensionE = linkonce_odr dso_local constant { ptr, ptr, ptr } { ptr getelementptr inbounds (ptr, ptr @_ZTVN10__cxxabiv120__si_class_type_infoE, i64 2), ptr @_ZTSN6dealii6GridInILi3ELi3EE23ExcDBMESHWrongDimensionE, ptr @_ZTIN6dealii13ExceptionBaseE }, comdat, align 8
@_ZTSN6dealii6GridInILi3ELi3EE19ExcInvalidGMSHInputE = linkonce_odr dso_local constant [48 x i8] c"N6dealii6GridInILi3ELi3EE19ExcInvalidGMSHInputE\00", comdat, align 1
@_ZTIN6dealii6GridInILi3ELi3EE19ExcInvalidGMSHInputE = linkonce_odr dso_local constant { ptr, ptr, ptr } { ptr getelementptr inbounds (ptr, ptr @_ZTVN10__cxxabiv120__si_class_type_infoE, i64 2), ptr @_ZTSN6dealii6GridInILi3ELi3EE19ExcInvalidGMSHInputE, ptr @_ZTIN6dealii13ExceptionBaseE }, comdat, align 8
@_ZTSN6dealii6GridInILi3ELi3EE26ExcGmshUnsupportedGeometryE = linkonce_odr dso_local constant [55 x i8] c"N6dealii6GridInILi3ELi3EE26ExcGmshUnsupportedGeometryE\00", comdat, align 1
@_ZTIN6dealii6GridInILi3ELi3EE26ExcGmshUnsupportedGeometryE = linkonce_odr dso_local constant { ptr, ptr, ptr } { ptr getelementptr inbounds (ptr, ptr @_ZTVN10__cxxabiv120__si_class_type_infoE, i64 2), ptr @_ZTSN6dealii6GridInILi3ELi3EE26ExcGmshUnsupportedGeometryE, ptr @_ZTIN6dealii13ExceptionBaseE }, comdat, align 8
@_ZTVN6dealii18StandardExceptions5ExcIOE = linkonce_odr dso_local unnamed_addr constant { [6 x ptr] } { [6 x ptr] [ptr null, ptr @_ZTIN6dealii18StandardExceptions5ExcIOE, ptr @_ZN6dealii13ExceptionBaseD2Ev, ptr @_ZN6dealii18StandardExceptions5ExcIOD0Ev, ptr @_ZNK6dealii13ExceptionBase4whatEv, ptr @_ZNK6dealii13ExceptionBase10print_infoERSo] }, comdat, align 8
@_ZTSN6dealii18StandardExceptions5ExcIOE = linkonce_odr dso_local constant [36 x i8] c"N6dealii18StandardExceptions5ExcIOE\00", comdat, align 1
@_ZTIN6dealii18StandardExceptions5ExcIOE = linkonce_odr dso_local constant { ptr, ptr, ptr } { ptr getelementptr inbounds (ptr, ptr @_ZTVN10__cxxabiv120__si_class_type_infoE, i64 2), ptr @_ZTSN6dealii18StandardExceptions5ExcIOE, ptr @_ZTIN6dealii13ExceptionBaseE }, comdat, align 8
@_ZTVN6dealii6GridInILi3ELi3EE22ExcInvalidDBMeshFormatE = linkonce_odr dso_local unnamed_addr constant { [6 x ptr] } { [6 x ptr] [ptr null, ptr @_ZTIN6dealii6GridInILi3ELi3EE22ExcInvalidDBMeshFormatE, ptr @_ZN6dealii13ExceptionBaseD2Ev, ptr @_ZN6dealii6GridInILi3ELi3EE22ExcInvalidDBMeshFormatD0Ev, ptr @_ZNK6dealii13ExceptionBase4whatEv, ptr @_ZNK6dealii13ExceptionBase10print_infoERSo] }, comdat, align 8
@_ZTSN6dealii6GridInILi3ELi3EE22ExcInvalidDBMeshFormatE = linkonce_odr dso_local constant [51 x i8] c"N6dealii6GridInILi3ELi3EE22ExcInvalidDBMeshFormatE\00", comdat, align 1
@_ZTIN6dealii6GridInILi3ELi3EE22ExcInvalidDBMeshFormatE = linkonce_odr dso_local constant { ptr, ptr, ptr } { ptr getelementptr inbounds (ptr, ptr @_ZTVN10__cxxabiv120__si_class_type_infoE, i64 2), ptr @_ZTSN6dealii6GridInILi3ELi3EE22ExcInvalidDBMeshFormatE, ptr @_ZTIN6dealii13ExceptionBaseE }, comdat, align 8
@_ZTVN6dealii18StandardExceptions17ExcNotImplementedE = linkonce_odr dso_local unnamed_addr constant { [6 x ptr] } { [6 x ptr] [ptr null, ptr @_ZTIN6dealii18StandardExceptions17ExcNotImplementedE, ptr @_ZN6dealii13ExceptionBaseD2Ev, ptr @_ZN6dealii18StandardExceptions17ExcNotImplementedD0Ev, ptr @_ZNK6dealii13ExceptionBase4whatEv, ptr @_ZNK6dealii13ExceptionBase10print_infoERSo] }, comdat, align 8
@_ZTSN6dealii18StandardExceptions17ExcNotImplementedE = linkonce_odr dso_local constant [49 x i8] c"N6dealii18StandardExceptions17ExcNotImplementedE\00", comdat, align 1
@_ZTIN6dealii18StandardExceptions17ExcNotImplementedE = linkonce_odr dso_local constant { ptr, ptr, ptr } { ptr getelementptr inbounds (ptr, ptr @_ZTVN10__cxxabiv120__si_class_type_infoE, i64 2), ptr @_ZTSN6dealii18StandardExceptions17ExcNotImplementedE, ptr @_ZTIN6dealii13ExceptionBaseE }, comdat, align 8
@_ZTVN6dealii18StandardExceptions10ExcMessageE = linkonce_odr dso_local unnamed_addr constant { [6 x ptr] } { [6 x ptr] [ptr null, ptr @_ZTIN6dealii18StandardExceptions10ExcMessageE, ptr @_ZN6dealii13ExceptionBaseD2Ev, ptr @_ZN6dealii18StandardExceptions10ExcMessageD0Ev, ptr @_ZNK6dealii13ExceptionBase4whatEv, ptr @_ZNK6dealii18StandardExceptions10ExcMessage10print_infoERSo] }, comdat, align 8
@_ZTSN6dealii18StandardExceptions10ExcMessageE = linkonce_odr dso_local constant [42 x i8] c"N6dealii18StandardExceptions10ExcMessageE\00", comdat, align 1
@_ZTIN6dealii18StandardExceptions10ExcMessageE = linkonce_odr dso_local constant { ptr, ptr, ptr } { ptr getelementptr inbounds (ptr, ptr @_ZTVN10__cxxabiv120__si_class_type_infoE, i64 2), ptr @_ZTSN6dealii18StandardExceptions10ExcMessageE, ptr @_ZTIN6dealii13ExceptionBaseE }, comdat, align 8
@_ZTVN6dealii18StandardExceptions15ExcInvalidStateE = linkonce_odr dso_local unnamed_addr constant { [6 x ptr] } { [6 x ptr] [ptr null, ptr @_ZTIN6dealii18StandardExceptions15ExcInvalidStateE, ptr @_ZN6dealii13ExceptionBaseD2Ev, ptr @_ZN6dealii18StandardExceptions15ExcInvalidStateD0Ev, ptr @_ZNK6dealii13ExceptionBase4whatEv, ptr @_ZNK6dealii13ExceptionBase10print_infoERSo] }, comdat, align 8
@_ZTSN6dealii18StandardExceptions15ExcInvalidStateE = linkonce_odr dso_local constant [47 x i8] c"N6dealii18StandardExceptions15ExcInvalidStateE\00", comdat, align 1
@_ZTIN6dealii18StandardExceptions15ExcInvalidStateE = linkonce_odr dso_local constant { ptr, ptr, ptr } { ptr getelementptr inbounds (ptr, ptr @_ZTVN10__cxxabiv120__si_class_type_infoE, i64 2), ptr @_ZTSN6dealii18StandardExceptions15ExcInvalidStateE, ptr @_ZTIN6dealii13ExceptionBaseE }, comdat, align 8
@_ZTVN6dealii18StandardExceptions14ExcNeedsNetCDFE = linkonce_odr dso_local unnamed_addr constant { [6 x ptr] } { [6 x ptr] [ptr null, ptr @_ZTIN6dealii18StandardExceptions14ExcNeedsNetCDFE, ptr @_ZN6dealii13ExceptionBaseD2Ev, ptr @_ZN6dealii18StandardExceptions14ExcNeedsNetCDFD0Ev, ptr @_ZNK6dealii13ExceptionBase4whatEv, ptr @_ZNK6dealii13ExceptionBase10print_infoERSo] }, comdat, align 8
@_ZTSN6dealii18StandardExceptions14ExcNeedsNetCDFE = linkonce_odr dso_local constant [46 x i8] c"N6dealii18StandardExceptions14ExcNeedsNetCDFE\00", comdat, align 1
@_ZTIN6dealii18StandardExceptions14ExcNeedsNetCDFE = linkonce_odr dso_local constant { ptr, ptr, ptr } { ptr getelementptr inbounds (ptr, ptr @_ZTVN10__cxxabiv120__si_class_type_infoE, i64 2), ptr @_ZTSN6dealii18StandardExceptions14ExcNeedsNetCDFE, ptr @_ZTIN6dealii13ExceptionBaseE }, comdat, align 8
@_ZTTSt14basic_ifstreamIcSt11char_traitsIcEE = external unnamed_addr constant [4 x ptr], align 8
@.str.142 = private unnamed_addr constant [55 x i8] c"%s: __pos (which is %zu) > this->size() (which is %zu)\00", align 1
@.str.144 = private unnamed_addr constant [26 x i8] c"vector::_M_realloc_insert\00", align 1
@.str.145 = private unnamed_addr constant [20 x i8] c"basic_string::erase\00", align 1

@_ZN6dealii6GridInILi3ELi3EEC1Ev = weak_odr dso_local unnamed_addr alias void (ptr), ptr @_ZN6dealii6GridInILi3ELi3EEC2Ev
@_ZN6dealii6GridInILi3ELi3EE20ExcUnknownIdentifierC1ENSt7__cxx1112basic_stringIcSt11char_traitsIcESaIcEEE = weak_odr dso_local unnamed_addr alias void (ptr, ptr), ptr @_ZN6dealii6GridInILi3ELi3EE20ExcUnknownIdentifierC2ENSt7__cxx1112basic_stringIcSt11char_traitsIcESaIcEEE
@_ZN6dealii6GridInILi3ELi3EE20ExcUnknownIdentifierD1Ev = weak_odr dso_local unnamed_addr alias void (ptr), ptr @_ZN6dealii6GridInILi3ELi3EE20ExcUnknownIdentifierD2Ev
@_ZN6dealii6GridInILi3ELi3EE21ExcInvalidVertexIndexC1Eii = weak_odr dso_local unnamed_addr alias void (ptr, i32, i32), ptr @_ZN6dealii6GridInILi3ELi3EE21ExcInvalidVertexIndexC2Eii
@_ZN6dealii6GridInILi3ELi3EE21ExcInvalidVertexIndexD1Ev = weak_odr dso_local unnamed_addr alias void (ptr), ptr @_ZN6dealii6GridInILi3ELi3EE21ExcInvalidVertexIndexD2Ev
@_ZN6dealii6GridInILi3ELi3EE21ExcInvalidDBMESHInputC1ENSt7__cxx1112basic_stringIcSt11char_traitsIcESaIcEEE = weak_odr dso_local unnamed_addr alias void (ptr, ptr), ptr @_ZN6dealii6GridInILi3ELi3EE21ExcInvalidDBMESHInputC2ENSt7__cxx1112basic_stringIcSt11char_traitsIcESaIcEEE
@_ZN6dealii6GridInILi3ELi3EE21ExcInvalidDBMESHInputD1Ev = weak_odr dso_local unnamed_addr alias void (ptr), ptr @_ZN6dealii6GridInILi3ELi3EE21ExcInvalidDBMESHInputD2Ev
@_ZN6dealii6GridInILi3ELi3EE23ExcDBMESHWrongDimensionC1Ei = weak_odr dso_local unnamed_addr alias void (ptr, i32), ptr @_ZN6dealii6GridInILi3ELi3EE23ExcDBMESHWrongDimensionC2Ei
@_ZN6dealii6GridInILi3ELi3EE23ExcDBMESHWrongDimensionD1Ev = weak_odr dso_local unnamed_addr alias void (ptr), ptr @_ZN6dealii6GridInILi3ELi3EE23ExcDBMESHWrongDimensionD2Ev
@_ZN6dealii6GridInILi3ELi3EE19ExcInvalidGMSHInputC1ENSt7__cxx1112basic_stringIcSt11char_traitsIcESaIcEEE = weak_odr dso_local unnamed_addr alias void (ptr, ptr), ptr @_ZN6dealii6GridInILi3ELi3EE19ExcInvalidGMSHInputC2ENSt7__cxx1112basic_stringIcSt11char_traitsIcESaIcEEE
@_ZN6dealii6GridInILi3ELi3EE19ExcInvalidGMSHInputD1Ev = weak_odr dso_local unnamed_addr alias void (ptr), ptr @_ZN6dealii6GridInILi3ELi3EE19ExcInvalidGMSHInputD2Ev
@_ZN6dealii6GridInILi3ELi3EE26ExcGmshUnsupportedGeometryC1Ei = weak_odr dso_local unnamed_addr alias void (ptr, i32), ptr @_ZN6dealii6GridInILi3ELi3EE26ExcGmshUnsupportedGeometryC2Ei
@_ZN6dealii6GridInILi3ELi3EE26ExcGmshUnsupportedGeometryD1Ev = weak_odr dso_local unnamed_addr alias void (ptr), ptr @_ZN6dealii6GridInILi3ELi3EE26ExcGmshUnsupportedGeometryD2Ev

; Function Attrs: sspstrong uwtable
define weak_odr dso_local void @_ZN6dealii6GridInILi3ELi3EEC2Ev(ptr noundef nonnull align 8 dereferenceable(20) %0) unnamed_addr #0 comdat($_ZN6dealii6GridInILi3ELi3EEC5Ev) align 2 {
  %2 = getelementptr inbounds %"class.dealii::GridIn", ptr %0, i64 0, i32 1
  tail call void @llvm.memset.p0.i64(ptr noundef nonnull align 8 dereferenceable(16) %0, i8 0, i64 16, i1 false)
  store i32 1, ptr %2, align 8, !tbaa !5
  ret void
}

; Function Attrs: sspstrong uwtable
define weak_odr dso_local void @_ZN6dealii6GridInILi3ELi3EE20attach_triangulationERNS_13TriangulationILi3ELi3EEE(ptr noundef nonnull align 8 dereferenceable(20) %0, ptr noundef nonnull align 8 dereferenceable(8552) %1) local_unnamed_addr #0 comdat align 2 {
  %3 = load ptr, ptr %0, align 8, !tbaa !12
  %4 = icmp eq ptr %3, %1
  br i1 %4, label %6, label %5

5:                                                ; preds = %2
  store ptr %1, ptr %0, align 8, !tbaa !12
  br label %6

6:                                                ; preds = %2, %5
  ret void
}

; Function Attrs: sspstrong uwtable
define weak_odr dso_local void @_ZN6dealii6GridInILi3ELi3EE4readERSiNS1_6FormatE(ptr noundef nonnull align 8 dereferenceable(20) %0, ptr noundef nonnull align 8 dereferenceable(16) %1, i32 noundef %2) local_unnamed_addr #0 comdat align 2 {
  %4 = icmp eq i32 %2, 0
  %5 = getelementptr inbounds %"class.dealii::GridIn", ptr %0, i64 0, i32 1
  %6 = load i32, ptr %5, align 8
  %7 = select i1 %4, i32 %6, i32 %2
  switch i32 %7, label %12 [
    i32 2, label %8
    i32 4, label %9
    i32 1, label %10
    i32 3, label %11
  ]

8:                                                ; preds = %3
  tail call void @_ZN6dealii6GridInILi3ELi3EE11read_dbmeshERSi(ptr noundef nonnull align 8 dereferenceable(20) %0, ptr noundef nonnull align 8 dereferenceable(16) %1)
  br label %12

9:                                                ; preds = %3
  tail call void @_ZN6dealii6GridInILi3ELi3EE8read_mshERSi(ptr noundef nonnull align 8 dereferenceable(20) %0, ptr noundef nonnull align 8 dereferenceable(16) %1)
  br label %12

10:                                               ; preds = %3
  tail call void @_ZN6dealii6GridInILi3ELi3EE8read_ucdERSi(ptr noundef nonnull align 8 dereferenceable(20) %0, ptr noundef nonnull align 8 dereferenceable(16) %1)
  br label %12

11:                                               ; preds = %3
  tail call void @_ZN6dealii6GridInILi3ELi3EE8read_xdaERSi(ptr noundef nonnull align 8 dereferenceable(20) %0, ptr noundef nonnull align 8 dereferenceable(16) %1)
  br label %12

12:                                               ; preds = %8, %9, %10, %11, %3
  ret void
}

; Function Attrs: sspstrong uwtable
define weak_odr dso_local void @_ZN6dealii6GridInILi3ELi3EE11read_dbmeshERSi(ptr noundef nonnull align 8 dereferenceable(20) %0, ptr noundef nonnull align 8 dereferenceable(16) %1) local_unnamed_addr #0 comdat align 2 personality ptr @__gxx_personality_v0 {
  %3 = alloca i64, align 8
  %4 = alloca i64, align 8
  %5 = alloca i64, align 8
  %6 = alloca i64, align 8
  %7 = alloca i64, align 8
  %8 = alloca i64, align 8
  %9 = alloca i64, align 8
  %10 = alloca i64, align 8
  %11 = alloca i64, align 8
  %12 = alloca i64, align 8
  %13 = alloca i64, align 8
  %14 = alloca i64, align 8
  %15 = alloca %"class.dealii::StandardExceptions::ExcIO", align 8
  %16 = alloca %"class.std::__cxx11::basic_string", align 8
  %17 = alloca %"class.dealii::GridIn<3>::ExcInvalidDBMESHInput", align 8
  %18 = alloca %"class.std::__cxx11::basic_string", align 8
  %19 = alloca %"class.dealii::GridIn<3>::ExcInvalidDBMESHInput", align 8
  %20 = alloca %"class.std::__cxx11::basic_string", align 8
  %21 = alloca i32, align 4
  %22 = alloca %"class.dealii::GridIn<3>::ExcDBMESHWrongDimension", align 8
  %23 = alloca %"class.dealii::GridIn<3>::ExcInvalidDBMESHInput", align 8
  %24 = alloca %"class.std::__cxx11::basic_string", align 8
  %25 = alloca i32, align 4
  %26 = alloca double, align 8
  %27 = alloca %"class.std::vector.3", align 8
  %28 = alloca %"class.dealii::GridIn<3>::ExcInvalidDBMeshFormat", align 8
  %29 = alloca %"class.dealii::GridIn<3>::ExcInvalidDBMESHInput", align 8
  %30 = alloca %"class.std::__cxx11::basic_string", align 8
  %31 = alloca i32, align 4
  %32 = alloca %"class.dealii::GridIn<3>::ExcInvalidDBMeshFormat", align 8
  %33 = alloca %"class.dealii::GridIn<3>::ExcInvalidDBMESHInput", align 8
  %34 = alloca %"class.std::__cxx11::basic_string", align 8
  %35 = alloca %"class.dealii::GridIn<3>::ExcInvalidDBMeshFormat", align 8
  %36 = alloca %"class.dealii::GridIn<3>::ExcInvalidDBMESHInput", align 8
  %37 = alloca %"class.std::__cxx11::basic_string", align 8
  %38 = alloca %"class.std::vector.35", align 8
  %39 = alloca %"struct.dealii::SubCellData", align 8
  %40 = alloca i32, align 4
  %41 = alloca %"class.dealii::GridIn<3>::ExcInvalidVertexIndex", align 8
  %42 = alloca %"class.dealii::GridIn<3>::ExcInvalidDBMeshFormat", align 8
  %43 = alloca %"class.dealii::StandardExceptions::ExcIO", align 8
  %44 = load ptr, ptr %1, align 8, !tbaa !13
  %45 = getelementptr i8, ptr %44, i64 -24
  %46 = load i64, ptr %45, align 8
  %47 = getelementptr inbounds i8, ptr %1, i64 %46
  %48 = getelementptr inbounds %"class.std::ios_base", ptr %47, i64 0, i32 5
  %49 = load i32, ptr %48, align 8, !tbaa !15
  %50 = and i32 %49, 5
  %51 = icmp eq i32 %50, 0
  br i1 %51, label %63, label %52

52:                                               ; preds = %2
  call void @llvm.memset.p0.i64(ptr noundef nonnull align 8 dereferenceable(64) %15, i8 0, i64 64, i1 false)
  call void @_ZN6dealii13ExceptionBaseC2Ev(ptr noundef nonnull align 8 dereferenceable(60) %15)
  store ptr getelementptr inbounds ({ [6 x ptr] }, ptr @_ZTVN6dealii18StandardExceptions5ExcIOE, i64 0, inrange i32 0, i64 2), ptr %15, align 8, !tbaa !13
  invoke void @_ZN6dealii13ExceptionBase10set_fieldsEPKciS2_S2_S2_(ptr noundef nonnull align 8 dereferenceable(60) %15, ptr noundef nonnull @.str.2, i32 noundef 221, ptr noundef nonnull @.str.3, ptr noundef nonnull @.str.4, ptr noundef nonnull @.str.5)
          to label %53 unwind label %59

53:                                               ; preds = %52
  %54 = call ptr @__cxa_allocate_exception(i64 64) #20
  invoke void @_ZN6dealii13ExceptionBaseC2ERKS0_(ptr noundef nonnull align 8 dereferenceable(60) %54, ptr noundef nonnull align 8 dereferenceable(60) %15)
          to label %55 unwind label %57

55:                                               ; preds = %53
  store ptr getelementptr inbounds ({ [6 x ptr] }, ptr @_ZTVN6dealii18StandardExceptions5ExcIOE, i64 0, inrange i32 0, i64 2), ptr %54, align 8, !tbaa !13
  invoke void @__cxa_throw(ptr nonnull %54, ptr nonnull @_ZTIN6dealii18StandardExceptions5ExcIOE, ptr nonnull @_ZN6dealii13ExceptionBaseD2Ev) #21
          to label %56 unwind label %59

56:                                               ; preds = %55
  unreachable

57:                                               ; preds = %53
  %58 = landingpad { ptr, i32 }
          cleanup
  call void @__cxa_free_exception(ptr %54) #20
  br label %61

59:                                               ; preds = %55, %52
  %60 = landingpad { ptr, i32 }
          cleanup
  br label %61

61:                                               ; preds = %57, %59
  %62 = phi { ptr, i32 } [ %60, %59 ], [ %58, %57 ]
  call void @_ZN6dealii13ExceptionBaseD2Ev(ptr noundef nonnull align 8 dereferenceable(60) %15) #20
  br label %1242

63:                                               ; preds = %2
  %64 = tail call noundef i32 @_ZNSi3getEv(ptr noundef nonnull align 8 dereferenceable(16) %1)
  %65 = and i32 %64, 255
  %66 = icmp eq i32 %65, 35
  br i1 %66, label %71, label %75

67:                                               ; preds = %71
  %68 = tail call noundef i32 @_ZNSi3getEv(ptr noundef nonnull align 8 dereferenceable(16) %1)
  %69 = and i32 %68, 255
  %70 = icmp eq i32 %69, 35
  br i1 %70, label %74, label %75

71:                                               ; preds = %63, %74
  %72 = tail call noundef i32 @_ZNSi3getEv(ptr noundef nonnull align 8 dereferenceable(16) %1)
  %73 = icmp eq i32 %72, 10
  br i1 %73, label %67, label %74

74:                                               ; preds = %71, %67
  br label %71

75:                                               ; preds = %67, %63
  %76 = phi i32 [ %64, %63 ], [ %68, %67 ]
  %77 = trunc i32 %76 to i8
  %78 = tail call noundef nonnull align 8 dereferenceable(16) ptr @_ZNSi7putbackEc(ptr noundef nonnull align 8 dereferenceable(16) %1, i8 noundef signext %77)
  tail call void @_ZN6dealii6GridInILi3ELi3EE16skip_empty_linesERSi(ptr noundef nonnull align 8 dereferenceable(16) %1)
  call void @llvm.lifetime.start.p0(i64 32, ptr nonnull %16) #20
  %79 = getelementptr inbounds %"class.std::__cxx11::basic_string", ptr %16, i64 0, i32 2
  store ptr %79, ptr %16, align 8, !tbaa !23
  %80 = getelementptr inbounds %"class.std::__cxx11::basic_string", ptr %16, i64 0, i32 1
  store i64 0, ptr %80, align 8, !tbaa !25
  store i8 0, ptr %79, align 8, !tbaa !27
  %81 = load ptr, ptr %1, align 8, !tbaa !13
  %82 = getelementptr i8, ptr %81, i64 -24
  %83 = load i64, ptr %82, align 8
  %84 = getelementptr inbounds i8, ptr %1, i64 %83
  %85 = getelementptr inbounds %"class.std::basic_ios", ptr %84, i64 0, i32 5
  %86 = load ptr, ptr %85, align 8, !tbaa !28
  %87 = icmp eq ptr %86, null
  br i1 %87, label %185, label %88

88:                                               ; preds = %75
  %89 = getelementptr inbounds %"class.std::ctype", ptr %86, i64 0, i32 8
  %90 = load i8, ptr %89, align 8, !tbaa !31
  %91 = icmp eq i8 %90, 0
  br i1 %91, label %95, label %92

92:                                               ; preds = %88
  %93 = getelementptr inbounds %"class.std::ctype", ptr %86, i64 0, i32 9, i64 10
  %94 = load i8, ptr %93, align 1, !tbaa !27
  br label %101

95:                                               ; preds = %88
  invoke void @_ZNKSt5ctypeIcE13_M_widen_initEv(ptr noundef nonnull align 8 dereferenceable(570) %86)
          to label %96 unwind label %160

96:                                               ; preds = %95
  %97 = load ptr, ptr %86, align 8, !tbaa !13
  %98 = getelementptr inbounds ptr, ptr %97, i64 6
  %99 = load ptr, ptr %98, align 8
  %100 = invoke noundef signext i8 %99(ptr noundef nonnull align 8 dereferenceable(570) %86, i8 noundef signext 10)
          to label %101 unwind label %160

101:                                              ; preds = %96, %92
  %102 = phi i8 [ %94, %92 ], [ %100, %96 ]
  %103 = invoke noundef nonnull align 8 dereferenceable(16) ptr @_ZSt7getlineIcSt11char_traitsIcESaIcEERSt13basic_istreamIT_T0_ES7_RNSt7__cxx1112basic_stringIS4_S5_T1_EES4_(ptr noundef nonnull align 8 dereferenceable(16) %1, ptr noundef nonnull align 8 dereferenceable(32) %16, i8 noundef signext %102)
          to label %104 unwind label %160

104:                                              ; preds = %101
  %105 = load i64, ptr %80, align 8, !tbaa !25
  %106 = icmp eq i64 %105, 22
  %107 = load ptr, ptr %16, align 8, !tbaa !34
  br i1 %106, label %108, label %113

108:                                              ; preds = %104
  %109 = call i32 @bcmp(ptr noundef nonnull dereferenceable(22) %107, ptr noundef nonnull dereferenceable(22) @.str.13, i64 22)
  %110 = icmp eq i32 %109, 0
  br i1 %110, label %176, label %111

111:                                              ; preds = %108
  %112 = getelementptr inbounds %"class.std::__cxx11::basic_string", ptr %18, i64 0, i32 2
  store ptr %112, ptr %18, align 8, !tbaa !23
  call void @llvm.lifetime.start.p0(i64 8, ptr nonnull %14) #20
  store i64 %105, ptr %14, align 8, !tbaa !35
  br label %116

113:                                              ; preds = %104
  %114 = getelementptr inbounds %"class.std::__cxx11::basic_string", ptr %18, i64 0, i32 2
  store ptr %114, ptr %18, align 8, !tbaa !23
  call void @llvm.lifetime.start.p0(i64 8, ptr nonnull %14) #20
  store i64 %105, ptr %14, align 8, !tbaa !35
  %115 = icmp ugt i64 %105, 15
  br i1 %115, label %116, label %121

116:                                              ; preds = %111, %113
  %117 = phi ptr [ %112, %111 ], [ %114, %113 ]
  %118 = invoke noundef ptr @_ZNSt7__cxx1112basic_stringIcSt11char_traitsIcESaIcEE9_M_createERmm(ptr noundef nonnull align 8 dereferenceable(32) %18, ptr noundef nonnull align 8 dereferenceable(8) %14, i64 noundef 0)
          to label %119 unwind label %160

119:                                              ; preds = %116
  store ptr %118, ptr %18, align 8, !tbaa !34
  %120 = load i64, ptr %14, align 8, !tbaa !35
  store i64 %120, ptr %117, align 8, !tbaa !27
  br label %121

121:                                              ; preds = %119, %113
  %122 = phi ptr [ %117, %119 ], [ %114, %113 ]
  %123 = phi ptr [ %118, %119 ], [ %114, %113 ]
  switch i64 %105, label %126 [
    i64 1, label %124
    i64 0, label %127
  ]

124:                                              ; preds = %121
  %125 = load i8, ptr %107, align 1, !tbaa !27
  store i8 %125, ptr %123, align 1, !tbaa !27
  br label %127

126:                                              ; preds = %121
  call void @llvm.memcpy.p0.p0.i64(ptr align 1 %123, ptr align 1 %107, i64 %105, i1 false)
  br label %127

127:                                              ; preds = %126, %124, %121
  %128 = load i64, ptr %14, align 8, !tbaa !35
  %129 = getelementptr inbounds %"class.std::__cxx11::basic_string", ptr %18, i64 0, i32 1
  store i64 %128, ptr %129, align 8, !tbaa !25
  %130 = load ptr, ptr %18, align 8, !tbaa !34
  %131 = getelementptr inbounds i8, ptr %130, i64 %128
  store i8 0, ptr %131, align 1, !tbaa !27
  call void @llvm.lifetime.end.p0(i64 8, ptr nonnull %14) #20
  invoke void @_ZN6dealii13ExceptionBaseC2Ev(ptr noundef nonnull align 8 dereferenceable(60) %17)
          to label %132 unwind label %162

132:                                              ; preds = %127
  store ptr getelementptr inbounds ({ [6 x ptr] }, ptr @_ZTVN6dealii6GridInILi3ELi3EE21ExcInvalidDBMESHInputE, i64 0, inrange i32 0, i64 2), ptr %17, align 8, !tbaa !13
  %133 = getelementptr inbounds %"class.dealii::GridIn<3>::ExcInvalidDBMESHInput", ptr %17, i64 0, i32 1
  %134 = getelementptr inbounds %"class.dealii::GridIn<3>::ExcInvalidDBMESHInput", ptr %17, i64 0, i32 1, i32 2
  store ptr %134, ptr %133, align 8, !tbaa !23
  %135 = load ptr, ptr %18, align 8, !tbaa !34
  %136 = load i64, ptr %129, align 8, !tbaa !25
  call void @llvm.lifetime.start.p0(i64 8, ptr nonnull %13) #20
  store i64 %136, ptr %13, align 8, !tbaa !35
  %137 = icmp ugt i64 %136, 15
  br i1 %137, label %138, label %142

138:                                              ; preds = %132
  %139 = invoke noundef ptr @_ZNSt7__cxx1112basic_stringIcSt11char_traitsIcESaIcEE9_M_createERmm(ptr noundef nonnull align 8 dereferenceable(32) %133, ptr noundef nonnull align 8 dereferenceable(8) %13, i64 noundef 0)
          to label %140 unwind label %147

140:                                              ; preds = %138
  store ptr %139, ptr %133, align 8, !tbaa !34
  %141 = load i64, ptr %13, align 8, !tbaa !35
  store i64 %141, ptr %134, align 8, !tbaa !27
  br label %142

142:                                              ; preds = %140, %132
  %143 = phi ptr [ %139, %140 ], [ %134, %132 ]
  switch i64 %136, label %146 [
    i64 1, label %144
    i64 0, label %149
  ]

144:                                              ; preds = %142
  %145 = load i8, ptr %135, align 1, !tbaa !27
  store i8 %145, ptr %143, align 1, !tbaa !27
  br label %149

146:                                              ; preds = %142
  call void @llvm.memcpy.p0.p0.i64(ptr align 1 %143, ptr align 1 %135, i64 %136, i1 false)
  br label %149

147:                                              ; preds = %138
  %148 = landingpad { ptr, i32 }
          cleanup
  call void @_ZN6dealii13ExceptionBaseD2Ev(ptr noundef nonnull align 8 dereferenceable(60) %17) #20
  br label %168

149:                                              ; preds = %146, %144, %142
  %150 = load i64, ptr %13, align 8, !tbaa !35
  %151 = getelementptr inbounds %"class.dealii::GridIn<3>::ExcInvalidDBMESHInput", ptr %17, i64 0, i32 1, i32 1
  store i64 %150, ptr %151, align 8, !tbaa !25
  %152 = load ptr, ptr %133, align 8, !tbaa !34
  %153 = getelementptr inbounds i8, ptr %152, i64 %150
  store i8 0, ptr %153, align 1, !tbaa !27
  call void @llvm.lifetime.end.p0(i64 8, ptr nonnull %13) #20
  invoke void @_ZN6dealii13ExceptionBase10set_fieldsEPKciS2_S2_S2_(ptr noundef nonnull align 8 dereferenceable(60) %17, ptr noundef nonnull @.str.2, i32 noundef 232, ptr noundef nonnull @.str.3, ptr noundef nonnull @.str.14, ptr noundef nonnull @.str.15)
          to label %154 unwind label %164

154:                                              ; preds = %149
  %155 = call ptr @__cxa_allocate_exception(i64 96) #20
  invoke void @_ZN6dealii6GridInILi3ELi3EE21ExcInvalidDBMESHInputC2ERKS2_(ptr noundef nonnull align 8 dereferenceable(96) %155, ptr noundef nonnull align 8 dereferenceable(96) %17)
          to label %156 unwind label %158

156:                                              ; preds = %154
  invoke void @__cxa_throw(ptr nonnull %155, ptr nonnull @_ZTIN6dealii6GridInILi3ELi3EE21ExcInvalidDBMESHInputE, ptr nonnull @_ZN6dealii6GridInILi3ELi3EE21ExcInvalidDBMESHInputD2Ev) #21
          to label %157 unwind label %164

157:                                              ; preds = %156
  unreachable

158:                                              ; preds = %154
  %159 = landingpad { ptr, i32 }
          cleanup
  call void @__cxa_free_exception(ptr %155) #20
  br label %166

160:                                              ; preds = %185, %215, %200, %195, %194, %116, %101, %96, %95, %176
  %161 = landingpad { ptr, i32 }
          cleanup
  br label %1233

162:                                              ; preds = %127
  %163 = landingpad { ptr, i32 }
          cleanup
  br label %168

164:                                              ; preds = %156, %149
  %165 = landingpad { ptr, i32 }
          cleanup
  br label %166

166:                                              ; preds = %158, %164
  %167 = phi { ptr, i32 } [ %165, %164 ], [ %159, %158 ]
  call void @_ZN6dealii6GridInILi3ELi3EE21ExcInvalidDBMESHInputD2Ev(ptr noundef nonnull align 8 dereferenceable(96) %17) #20
  br label %168

168:                                              ; preds = %162, %147, %166
  %169 = phi { ptr, i32 } [ %167, %166 ], [ %163, %162 ], [ %148, %147 ]
  %170 = load ptr, ptr %18, align 8, !tbaa !34
  %171 = icmp eq ptr %170, %122
  br i1 %171, label %172, label %175

172:                                              ; preds = %168
  %173 = load i64, ptr %129, align 8, !tbaa !25
  %174 = icmp ult i64 %173, 16
  call void @llvm.assume(i1 %174)
  br label %1233

175:                                              ; preds = %168
  call void @_ZdlPv(ptr noundef %170) #22
  br label %1233

176:                                              ; preds = %108
  invoke void @_ZN6dealii6GridInILi3ELi3EE16skip_empty_linesERSi(ptr noundef nonnull align 8 dereferenceable(16) %1)
          to label %177 unwind label %160

177:                                              ; preds = %176
  %178 = load ptr, ptr %1, align 8, !tbaa !13
  %179 = getelementptr i8, ptr %178, i64 -24
  %180 = load i64, ptr %179, align 8
  %181 = getelementptr inbounds i8, ptr %1, i64 %180
  %182 = getelementptr inbounds %"class.std::basic_ios", ptr %181, i64 0, i32 5
  %183 = load ptr, ptr %182, align 8, !tbaa !28
  %184 = icmp eq ptr %183, null
  br i1 %184, label %185, label %187

185:                                              ; preds = %75, %177
  invoke void @_ZSt16__throw_bad_castv() #21
          to label %186 unwind label %160

186:                                              ; preds = %185
  unreachable

187:                                              ; preds = %177
  %188 = getelementptr inbounds %"class.std::ctype", ptr %183, i64 0, i32 8
  %189 = load i8, ptr %188, align 8, !tbaa !31
  %190 = icmp eq i8 %189, 0
  br i1 %190, label %194, label %191

191:                                              ; preds = %187
  %192 = getelementptr inbounds %"class.std::ctype", ptr %183, i64 0, i32 9, i64 10
  %193 = load i8, ptr %192, align 1, !tbaa !27
  br label %200

194:                                              ; preds = %187
  invoke void @_ZNKSt5ctypeIcE13_M_widen_initEv(ptr noundef nonnull align 8 dereferenceable(570) %183)
          to label %195 unwind label %160

195:                                              ; preds = %194
  %196 = load ptr, ptr %183, align 8, !tbaa !13
  %197 = getelementptr inbounds ptr, ptr %196, i64 6
  %198 = load ptr, ptr %197, align 8
  %199 = invoke noundef signext i8 %198(ptr noundef nonnull align 8 dereferenceable(570) %183, i8 noundef signext 10)
          to label %200 unwind label %160

200:                                              ; preds = %195, %191
  %201 = phi i8 [ %193, %191 ], [ %199, %195 ]
  %202 = invoke noundef nonnull align 8 dereferenceable(16) ptr @_ZSt7getlineIcSt11char_traitsIcESaIcEERSt13basic_istreamIT_T0_ES7_RNSt7__cxx1112basic_stringIS4_S5_T1_EES4_(ptr noundef nonnull align 8 dereferenceable(16) %1, ptr noundef nonnull align 8 dereferenceable(32) %16, i8 noundef signext %201)
          to label %203 unwind label %160

203:                                              ; preds = %200
  %204 = load i64, ptr %80, align 8, !tbaa !25
  %205 = icmp eq i64 %204, 9
  %206 = load ptr, ptr %16, align 8, !tbaa !34
  br i1 %205, label %207, label %212

207:                                              ; preds = %203
  %208 = call i32 @bcmp(ptr noundef nonnull dereferenceable(9) %206, ptr noundef nonnull dereferenceable(9) @.str.16, i64 9)
  %209 = icmp eq i32 %208, 0
  br i1 %209, label %274, label %210

210:                                              ; preds = %207
  %211 = getelementptr inbounds %"class.std::__cxx11::basic_string", ptr %20, i64 0, i32 2
  store ptr %211, ptr %20, align 8, !tbaa !23
  call void @llvm.lifetime.start.p0(i64 8, ptr nonnull %12) #20
  store i64 %204, ptr %12, align 8, !tbaa !35
  br label %223

212:                                              ; preds = %203
  %213 = getelementptr inbounds %"class.std::__cxx11::basic_string", ptr %20, i64 0, i32 2
  store ptr %213, ptr %20, align 8, !tbaa !23
  call void @llvm.lifetime.start.p0(i64 8, ptr nonnull %12) #20
  store i64 %204, ptr %12, align 8, !tbaa !35
  %214 = icmp ugt i64 %204, 15
  br i1 %214, label %215, label %219

215:                                              ; preds = %212
  %216 = invoke noundef ptr @_ZNSt7__cxx1112basic_stringIcSt11char_traitsIcESaIcEE9_M_createERmm(ptr noundef nonnull align 8 dereferenceable(32) %20, ptr noundef nonnull align 8 dereferenceable(8) %12, i64 noundef 0)
          to label %217 unwind label %160

217:                                              ; preds = %215
  store ptr %216, ptr %20, align 8, !tbaa !34
  %218 = load i64, ptr %12, align 8, !tbaa !35
  store i64 %218, ptr %213, align 8, !tbaa !27
  br label %219

219:                                              ; preds = %217, %212
  %220 = phi ptr [ %216, %217 ], [ %213, %212 ]
  switch i64 %204, label %223 [
    i64 1, label %221
    i64 0, label %226
  ]

221:                                              ; preds = %219
  %222 = load i8, ptr %206, align 1, !tbaa !27
  store i8 %222, ptr %220, align 1, !tbaa !27
  br label %226

223:                                              ; preds = %210, %219
  %224 = phi ptr [ %211, %210 ], [ %220, %219 ]
  %225 = phi ptr [ %211, %210 ], [ %213, %219 ]
  call void @llvm.memcpy.p0.p0.i64(ptr align 1 %224, ptr align 1 %206, i64 %204, i1 false)
  br label %226

226:                                              ; preds = %223, %221, %219
  %227 = phi ptr [ %225, %223 ], [ %213, %221 ], [ %213, %219 ]
  %228 = load i64, ptr %12, align 8, !tbaa !35
  %229 = getelementptr inbounds %"class.std::__cxx11::basic_string", ptr %20, i64 0, i32 1
  store i64 %228, ptr %229, align 8, !tbaa !25
  %230 = load ptr, ptr %20, align 8, !tbaa !34
  %231 = getelementptr inbounds i8, ptr %230, i64 %228
  store i8 0, ptr %231, align 1, !tbaa !27
  call void @llvm.lifetime.end.p0(i64 8, ptr nonnull %12) #20
  invoke void @_ZN6dealii13ExceptionBaseC2Ev(ptr noundef nonnull align 8 dereferenceable(60) %19)
          to label %232 unwind label %260

232:                                              ; preds = %226
  store ptr getelementptr inbounds ({ [6 x ptr] }, ptr @_ZTVN6dealii6GridInILi3ELi3EE21ExcInvalidDBMESHInputE, i64 0, inrange i32 0, i64 2), ptr %19, align 8, !tbaa !13
  %233 = getelementptr inbounds %"class.dealii::GridIn<3>::ExcInvalidDBMESHInput", ptr %19, i64 0, i32 1
  %234 = getelementptr inbounds %"class.dealii::GridIn<3>::ExcInvalidDBMESHInput", ptr %19, i64 0, i32 1, i32 2
  store ptr %234, ptr %233, align 8, !tbaa !23
  %235 = load ptr, ptr %20, align 8, !tbaa !34
  %236 = load i64, ptr %229, align 8, !tbaa !25
  call void @llvm.lifetime.start.p0(i64 8, ptr nonnull %11) #20
  store i64 %236, ptr %11, align 8, !tbaa !35
  %237 = icmp ugt i64 %236, 15
  br i1 %237, label %238, label %242

238:                                              ; preds = %232
  %239 = invoke noundef ptr @_ZNSt7__cxx1112basic_stringIcSt11char_traitsIcESaIcEE9_M_createERmm(ptr noundef nonnull align 8 dereferenceable(32) %233, ptr noundef nonnull align 8 dereferenceable(8) %11, i64 noundef 0)
          to label %240 unwind label %247

240:                                              ; preds = %238
  store ptr %239, ptr %233, align 8, !tbaa !34
  %241 = load i64, ptr %11, align 8, !tbaa !35
  store i64 %241, ptr %234, align 8, !tbaa !27
  br label %242

242:                                              ; preds = %240, %232
  %243 = phi ptr [ %239, %240 ], [ %234, %232 ]
  switch i64 %236, label %246 [
    i64 1, label %244
    i64 0, label %249
  ]

244:                                              ; preds = %242
  %245 = load i8, ptr %235, align 1, !tbaa !27
  store i8 %245, ptr %243, align 1, !tbaa !27
  br label %249

246:                                              ; preds = %242
  call void @llvm.memcpy.p0.p0.i64(ptr align 1 %243, ptr align 1 %235, i64 %236, i1 false)
  br label %249

247:                                              ; preds = %238
  %248 = landingpad { ptr, i32 }
          cleanup
  call void @_ZN6dealii13ExceptionBaseD2Ev(ptr noundef nonnull align 8 dereferenceable(60) %19) #20
  br label %266

249:                                              ; preds = %246, %244, %242
  %250 = load i64, ptr %11, align 8, !tbaa !35
  %251 = getelementptr inbounds %"class.dealii::GridIn<3>::ExcInvalidDBMESHInput", ptr %19, i64 0, i32 1, i32 1
  store i64 %250, ptr %251, align 8, !tbaa !25
  %252 = load ptr, ptr %233, align 8, !tbaa !34
  %253 = getelementptr inbounds i8, ptr %252, i64 %250
  store i8 0, ptr %253, align 1, !tbaa !27
  call void @llvm.lifetime.end.p0(i64 8, ptr nonnull %11) #20
  invoke void @_ZN6dealii13ExceptionBase10set_fieldsEPKciS2_S2_S2_(ptr noundef nonnull align 8 dereferenceable(60) %19, ptr noundef nonnull @.str.2, i32 noundef 238, ptr noundef nonnull @.str.3, ptr noundef nonnull @.str.17, ptr noundef nonnull @.str.15)
          to label %254 unwind label %262

254:                                              ; preds = %249
  %255 = call ptr @__cxa_allocate_exception(i64 96) #20
  invoke void @_ZN6dealii6GridInILi3ELi3EE21ExcInvalidDBMESHInputC2ERKS2_(ptr noundef nonnull align 8 dereferenceable(96) %255, ptr noundef nonnull align 8 dereferenceable(96) %19)
          to label %256 unwind label %258

256:                                              ; preds = %254
  invoke void @__cxa_throw(ptr nonnull %255, ptr nonnull @_ZTIN6dealii6GridInILi3ELi3EE21ExcInvalidDBMESHInputE, ptr nonnull @_ZN6dealii6GridInILi3ELi3EE21ExcInvalidDBMESHInputD2Ev) #21
          to label %257 unwind label %262

257:                                              ; preds = %256
  unreachable

258:                                              ; preds = %254
  %259 = landingpad { ptr, i32 }
          cleanup
  call void @__cxa_free_exception(ptr %255) #20
  br label %264

260:                                              ; preds = %226
  %261 = landingpad { ptr, i32 }
          cleanup
  br label %266

262:                                              ; preds = %256, %249
  %263 = landingpad { ptr, i32 }
          cleanup
  br label %264

264:                                              ; preds = %258, %262
  %265 = phi { ptr, i32 } [ %263, %262 ], [ %259, %258 ]
  call void @_ZN6dealii6GridInILi3ELi3EE21ExcInvalidDBMESHInputD2Ev(ptr noundef nonnull align 8 dereferenceable(96) %19) #20
  br label %266

266:                                              ; preds = %260, %247, %264
  %267 = phi { ptr, i32 } [ %265, %264 ], [ %261, %260 ], [ %248, %247 ]
  %268 = load ptr, ptr %20, align 8, !tbaa !34
  %269 = icmp eq ptr %268, %227
  br i1 %269, label %270, label %273

270:                                              ; preds = %266
  %271 = load i64, ptr %229, align 8, !tbaa !25
  %272 = icmp ult i64 %271, 16
  call void @llvm.assume(i1 %272)
  br label %1233

273:                                              ; preds = %266
  call void @_ZdlPv(ptr noundef %268) #22
  br label %1233

274:                                              ; preds = %207
  call void @llvm.lifetime.start.p0(i64 4, ptr nonnull %21) #20
  %275 = invoke noundef nonnull align 8 dereferenceable(16) ptr @_ZNSi10_M_extractIjEERSiRT_(ptr noundef nonnull align 8 dereferenceable(16) %1, ptr noundef nonnull align 4 dereferenceable(4) %21)
          to label %276 unwind label %292

276:                                              ; preds = %274
  %277 = load i32, ptr %21, align 4, !tbaa !36
  %278 = icmp eq i32 %277, 3
  br i1 %278, label %298, label %279

279:                                              ; preds = %276
  invoke void @_ZN6dealii13ExceptionBaseC2Ev(ptr noundef nonnull align 8 dereferenceable(60) %22)
          to label %280 unwind label %292

280:                                              ; preds = %279
  store ptr getelementptr inbounds ({ [6 x ptr] }, ptr @_ZTVN6dealii6GridInILi3ELi3EE23ExcDBMESHWrongDimensionE, i64 0, inrange i32 0, i64 2), ptr %22, align 8, !tbaa !13
  %281 = getelementptr inbounds %"class.dealii::GridIn<3>::ExcDBMESHWrongDimension", ptr %22, i64 0, i32 1
  store i32 %277, ptr %281, align 4, !tbaa !37
  invoke void @_ZN6dealii13ExceptionBase10set_fieldsEPKciS2_S2_S2_(ptr noundef nonnull align 8 dereferenceable(60) %22, ptr noundef nonnull @.str.2, i32 noundef 241, ptr noundef nonnull @.str.3, ptr noundef nonnull @.str.18, ptr noundef nonnull @.str.19)
          to label %282 unwind label %294

282:                                              ; preds = %280
  %283 = call ptr @__cxa_allocate_exception(i64 64) #20
  invoke void @_ZN6dealii13ExceptionBaseC2ERKS0_(ptr noundef nonnull align 8 dereferenceable(60) %283, ptr noundef nonnull align 8 dereferenceable(60) %22)
          to label %284 unwind label %288

284:                                              ; preds = %282
  store ptr getelementptr inbounds ({ [6 x ptr] }, ptr @_ZTVN6dealii6GridInILi3ELi3EE23ExcDBMESHWrongDimensionE, i64 0, inrange i32 0, i64 2), ptr %283, align 8, !tbaa !13
  %285 = getelementptr inbounds %"class.dealii::GridIn<3>::ExcDBMESHWrongDimension", ptr %283, i64 0, i32 1
  %286 = load i32, ptr %281, align 4, !tbaa !37
  store i32 %286, ptr %285, align 4, !tbaa !37
  invoke void @__cxa_throw(ptr nonnull %283, ptr nonnull @_ZTIN6dealii6GridInILi3ELi3EE23ExcDBMESHWrongDimensionE, ptr nonnull @_ZN6dealii6GridInILi3ELi3EE23ExcDBMESHWrongDimensionD2Ev) #21
          to label %287 unwind label %294

287:                                              ; preds = %284
  unreachable

288:                                              ; preds = %282
  %289 = landingpad { ptr, i32 }
          cleanup
  call void @__cxa_free_exception(ptr %283) #20
  br label %296

290:                                              ; preds = %317, %318, %323, %326
  %291 = landingpad { ptr, i32 }
          cleanup
  br label %1231

292:                                              ; preds = %308, %298, %330, %274, %279, %346, %347, %352, %367
  %293 = landingpad { ptr, i32 }
          cleanup
  br label %1231

294:                                              ; preds = %284, %280
  %295 = landingpad { ptr, i32 }
          cleanup
  br label %296

296:                                              ; preds = %288, %294
  %297 = phi { ptr, i32 } [ %295, %294 ], [ %289, %288 ]
  call void @_ZN6dealii13ExceptionBaseD2Ev(ptr noundef nonnull align 8 dereferenceable(60) %22) #20
  br label %1231

298:                                              ; preds = %276
  invoke void @_ZN6dealii6GridInILi3ELi3EE16skip_empty_linesERSi(ptr noundef nonnull align 8 dereferenceable(16) %1)
          to label %299 unwind label %292

299:                                              ; preds = %298
  %300 = getelementptr %"class.std::basic_ios", ptr %1, i64 0, i32 5
  br label %301

301:                                              ; preds = %299, %328
  %302 = load ptr, ptr %1, align 8, !tbaa !13
  %303 = getelementptr i8, ptr %302, i64 -24
  %304 = load i64, ptr %303, align 8
  %305 = getelementptr i8, ptr %300, i64 %304
  %306 = load ptr, ptr %305, align 8, !tbaa !28
  %307 = icmp eq ptr %306, null
  br i1 %307, label %308, label %310

308:                                              ; preds = %301, %331
  invoke void @_ZSt16__throw_bad_castv() #21
          to label %309 unwind label %292

309:                                              ; preds = %308
  unreachable

310:                                              ; preds = %301
  %311 = getelementptr inbounds %"class.std::ctype", ptr %306, i64 0, i32 8
  %312 = load i8, ptr %311, align 8, !tbaa !31
  %313 = icmp eq i8 %312, 0
  br i1 %313, label %317, label %314

314:                                              ; preds = %310
  %315 = getelementptr inbounds %"class.std::ctype", ptr %306, i64 0, i32 9, i64 10
  %316 = load i8, ptr %315, align 1, !tbaa !27
  br label %323

317:                                              ; preds = %310
  invoke void @_ZNKSt5ctypeIcE13_M_widen_initEv(ptr noundef nonnull align 8 dereferenceable(570) %306)
          to label %318 unwind label %290

318:                                              ; preds = %317
  %319 = load ptr, ptr %306, align 8, !tbaa !13
  %320 = getelementptr inbounds ptr, ptr %319, i64 6
  %321 = load ptr, ptr %320, align 8
  %322 = invoke noundef signext i8 %321(ptr noundef nonnull align 8 dereferenceable(570) %306, i8 noundef signext 10)
          to label %323 unwind label %290

323:                                              ; preds = %318, %314
  %324 = phi i8 [ %316, %314 ], [ %322, %318 ]
  %325 = invoke noundef nonnull align 8 dereferenceable(16) ptr @_ZSt7getlineIcSt11char_traitsIcESaIcEERSt13basic_istreamIT_T0_ES7_RNSt7__cxx1112basic_stringIS4_S5_T1_EES4_(ptr noundef nonnull align 8 dereferenceable(16) %1, ptr noundef nonnull align 8 dereferenceable(32) %16, i8 noundef signext %324)
          to label %326 unwind label %290

326:                                              ; preds = %323
  %327 = invoke noundef i64 @_ZNKSt7__cxx1112basic_stringIcSt11char_traitsIcESaIcEE4findEPKcmm(ptr noundef nonnull align 8 dereferenceable(32) %16, ptr noundef nonnull @.str.20, i64 noundef 0, i64 noundef 5)
          to label %328 unwind label %290

328:                                              ; preds = %326
  %329 = icmp eq i64 %327, -1
  br i1 %329, label %301, label %330

330:                                              ; preds = %328
  invoke void @_ZN6dealii6GridInILi3ELi3EE16skip_empty_linesERSi(ptr noundef nonnull align 8 dereferenceable(16) %1)
          to label %331 unwind label %292

331:                                              ; preds = %330
  %332 = load ptr, ptr %1, align 8, !tbaa !13
  %333 = getelementptr i8, ptr %332, i64 -24
  %334 = load i64, ptr %333, align 8
  %335 = getelementptr inbounds i8, ptr %1, i64 %334
  %336 = getelementptr inbounds %"class.std::basic_ios", ptr %335, i64 0, i32 5
  %337 = load ptr, ptr %336, align 8, !tbaa !28
  %338 = icmp eq ptr %337, null
  br i1 %338, label %308, label %339

339:                                              ; preds = %331
  %340 = getelementptr inbounds %"class.std::ctype", ptr %337, i64 0, i32 8
  %341 = load i8, ptr %340, align 8, !tbaa !31
  %342 = icmp eq i8 %341, 0
  br i1 %342, label %346, label %343

343:                                              ; preds = %339
  %344 = getelementptr inbounds %"class.std::ctype", ptr %337, i64 0, i32 9, i64 10
  %345 = load i8, ptr %344, align 1, !tbaa !27
  br label %352

346:                                              ; preds = %339
  invoke void @_ZNKSt5ctypeIcE13_M_widen_initEv(ptr noundef nonnull align 8 dereferenceable(570) %337)
          to label %347 unwind label %292

347:                                              ; preds = %346
  %348 = load ptr, ptr %337, align 8, !tbaa !13
  %349 = getelementptr inbounds ptr, ptr %348, i64 6
  %350 = load ptr, ptr %349, align 8
  %351 = invoke noundef signext i8 %350(ptr noundef nonnull align 8 dereferenceable(570) %337, i8 noundef signext 10)
          to label %352 unwind label %292

352:                                              ; preds = %347, %343
  %353 = phi i8 [ %345, %343 ], [ %351, %347 ]
  %354 = invoke noundef nonnull align 8 dereferenceable(16) ptr @_ZSt7getlineIcSt11char_traitsIcESaIcEERSt13basic_istreamIT_T0_ES7_RNSt7__cxx1112basic_stringIS4_S5_T1_EES4_(ptr noundef nonnull align 8 dereferenceable(16) %1, ptr noundef nonnull align 8 dereferenceable(32) %16, i8 noundef signext %353)
          to label %355 unwind label %292

355:                                              ; preds = %352
  %356 = load i64, ptr %80, align 8, !tbaa !25
  %357 = icmp eq i64 %356, 8
  %358 = load ptr, ptr %16, align 8, !tbaa !34
  br i1 %357, label %359, label %364

359:                                              ; preds = %355
  %360 = call i32 @bcmp(ptr noundef nonnull dereferenceable(8) %358, ptr noundef nonnull dereferenceable(8) @.str.21, i64 8)
  %361 = icmp eq i32 %360, 0
  br i1 %361, label %426, label %362

362:                                              ; preds = %359
  %363 = getelementptr inbounds %"class.std::__cxx11::basic_string", ptr %24, i64 0, i32 2
  store ptr %363, ptr %24, align 8, !tbaa !23
  call void @llvm.lifetime.start.p0(i64 8, ptr nonnull %10) #20
  store i64 %356, ptr %10, align 8, !tbaa !35
  br label %375

364:                                              ; preds = %355
  %365 = getelementptr inbounds %"class.std::__cxx11::basic_string", ptr %24, i64 0, i32 2
  store ptr %365, ptr %24, align 8, !tbaa !23
  call void @llvm.lifetime.start.p0(i64 8, ptr nonnull %10) #20
  store i64 %356, ptr %10, align 8, !tbaa !35
  %366 = icmp ugt i64 %356, 15
  br i1 %366, label %367, label %371

367:                                              ; preds = %364
  %368 = invoke noundef ptr @_ZNSt7__cxx1112basic_stringIcSt11char_traitsIcESaIcEE9_M_createERmm(ptr noundef nonnull align 8 dereferenceable(32) %24, ptr noundef nonnull align 8 dereferenceable(8) %10, i64 noundef 0)
          to label %369 unwind label %292

369:                                              ; preds = %367
  store ptr %368, ptr %24, align 8, !tbaa !34
  %370 = load i64, ptr %10, align 8, !tbaa !35
  store i64 %370, ptr %365, align 8, !tbaa !27
  br label %371

371:                                              ; preds = %369, %364
  %372 = phi ptr [ %368, %369 ], [ %365, %364 ]
  switch i64 %356, label %375 [
    i64 1, label %373
    i64 0, label %378
  ]

373:                                              ; preds = %371
  %374 = load i8, ptr %358, align 1, !tbaa !27
  store i8 %374, ptr %372, align 1, !tbaa !27
  br label %378

375:                                              ; preds = %362, %371
  %376 = phi ptr [ %363, %362 ], [ %372, %371 ]
  %377 = phi ptr [ %363, %362 ], [ %365, %371 ]
  call void @llvm.memcpy.p0.p0.i64(ptr align 1 %376, ptr align 1 %358, i64 %356, i1 false)
  br label %378

378:                                              ; preds = %375, %373, %371
  %379 = phi ptr [ %377, %375 ], [ %365, %373 ], [ %365, %371 ]
  %380 = load i64, ptr %10, align 8, !tbaa !35
  %381 = getelementptr inbounds %"class.std::__cxx11::basic_string", ptr %24, i64 0, i32 1
  store i64 %380, ptr %381, align 8, !tbaa !25
  %382 = load ptr, ptr %24, align 8, !tbaa !34
  %383 = getelementptr inbounds i8, ptr %382, i64 %380
  store i8 0, ptr %383, align 1, !tbaa !27
  call void @llvm.lifetime.end.p0(i64 8, ptr nonnull %10) #20
  invoke void @_ZN6dealii13ExceptionBaseC2Ev(ptr noundef nonnull align 8 dereferenceable(60) %23)
          to label %384 unwind label %412

384:                                              ; preds = %378
  store ptr getelementptr inbounds ({ [6 x ptr] }, ptr @_ZTVN6dealii6GridInILi3ELi3EE21ExcInvalidDBMESHInputE, i64 0, inrange i32 0, i64 2), ptr %23, align 8, !tbaa !13
  %385 = getelementptr inbounds %"class.dealii::GridIn<3>::ExcInvalidDBMESHInput", ptr %23, i64 0, i32 1
  %386 = getelementptr inbounds %"class.dealii::GridIn<3>::ExcInvalidDBMESHInput", ptr %23, i64 0, i32 1, i32 2
  store ptr %386, ptr %385, align 8, !tbaa !23
  %387 = load ptr, ptr %24, align 8, !tbaa !34
  %388 = load i64, ptr %381, align 8, !tbaa !25
  call void @llvm.lifetime.start.p0(i64 8, ptr nonnull %9) #20
  store i64 %388, ptr %9, align 8, !tbaa !35
  %389 = icmp ugt i64 %388, 15
  br i1 %389, label %390, label %394

390:                                              ; preds = %384
  %391 = invoke noundef ptr @_ZNSt7__cxx1112basic_stringIcSt11char_traitsIcESaIcEE9_M_createERmm(ptr noundef nonnull align 8 dereferenceable(32) %385, ptr noundef nonnull align 8 dereferenceable(8) %9, i64 noundef 0)
          to label %392 unwind label %399

392:                                              ; preds = %390
  store ptr %391, ptr %385, align 8, !tbaa !34
  %393 = load i64, ptr %9, align 8, !tbaa !35
  store i64 %393, ptr %386, align 8, !tbaa !27
  br label %394

394:                                              ; preds = %392, %384
  %395 = phi ptr [ %391, %392 ], [ %386, %384 ]
  switch i64 %388, label %398 [
    i64 1, label %396
    i64 0, label %401
  ]

396:                                              ; preds = %394
  %397 = load i8, ptr %387, align 1, !tbaa !27
  store i8 %397, ptr %395, align 1, !tbaa !27
  br label %401

398:                                              ; preds = %394
  call void @llvm.memcpy.p0.p0.i64(ptr align 1 %395, ptr align 1 %387, i64 %388, i1 false)
  br label %401

399:                                              ; preds = %390
  %400 = landingpad { ptr, i32 }
          cleanup
  call void @_ZN6dealii13ExceptionBaseD2Ev(ptr noundef nonnull align 8 dereferenceable(60) %23) #20
  br label %418

401:                                              ; preds = %398, %396, %394
  %402 = load i64, ptr %9, align 8, !tbaa !35
  %403 = getelementptr inbounds %"class.dealii::GridIn<3>::ExcInvalidDBMESHInput", ptr %23, i64 0, i32 1, i32 1
  store i64 %402, ptr %403, align 8, !tbaa !25
  %404 = load ptr, ptr %385, align 8, !tbaa !34
  %405 = getelementptr inbounds i8, ptr %404, i64 %402
  store i8 0, ptr %405, align 1, !tbaa !27
  call void @llvm.lifetime.end.p0(i64 8, ptr nonnull %9) #20
  invoke void @_ZN6dealii13ExceptionBase10set_fieldsEPKciS2_S2_S2_(ptr noundef nonnull align 8 dereferenceable(60) %23, ptr noundef nonnull @.str.2, i32 noundef 262, ptr noundef nonnull @.str.3, ptr noundef nonnull @.str.22, ptr noundef nonnull @.str.15)
          to label %406 unwind label %414

406:                                              ; preds = %401
  %407 = call ptr @__cxa_allocate_exception(i64 96) #20
  invoke void @_ZN6dealii6GridInILi3ELi3EE21ExcInvalidDBMESHInputC2ERKS2_(ptr noundef nonnull align 8 dereferenceable(96) %407, ptr noundef nonnull align 8 dereferenceable(96) %23)
          to label %408 unwind label %410

408:                                              ; preds = %406
  invoke void @__cxa_throw(ptr nonnull %407, ptr nonnull @_ZTIN6dealii6GridInILi3ELi3EE21ExcInvalidDBMESHInputE, ptr nonnull @_ZN6dealii6GridInILi3ELi3EE21ExcInvalidDBMESHInputD2Ev) #21
          to label %409 unwind label %414

409:                                              ; preds = %408
  unreachable

410:                                              ; preds = %406
  %411 = landingpad { ptr, i32 }
          cleanup
  call void @__cxa_free_exception(ptr %407) #20
  br label %416

412:                                              ; preds = %378
  %413 = landingpad { ptr, i32 }
          cleanup
  br label %418

414:                                              ; preds = %408, %401
  %415 = landingpad { ptr, i32 }
          cleanup
  br label %416

416:                                              ; preds = %410, %414
  %417 = phi { ptr, i32 } [ %415, %414 ], [ %411, %410 ]
  call void @_ZN6dealii6GridInILi3ELi3EE21ExcInvalidDBMESHInputD2Ev(ptr noundef nonnull align 8 dereferenceable(96) %23) #20
  br label %418

418:                                              ; preds = %412, %399, %416
  %419 = phi { ptr, i32 } [ %417, %416 ], [ %413, %412 ], [ %400, %399 ]
  %420 = load ptr, ptr %24, align 8, !tbaa !34
  %421 = icmp eq ptr %420, %379
  br i1 %421, label %422, label %425

422:                                              ; preds = %418
  %423 = load i64, ptr %381, align 8, !tbaa !25
  %424 = icmp ult i64 %423, 16
  call void @llvm.assume(i1 %424)
  br label %1231

425:                                              ; preds = %418
  call void @_ZdlPv(ptr noundef %420) #22
  br label %1231

426:                                              ; preds = %359
  call void @llvm.lifetime.start.p0(i64 4, ptr nonnull %25) #20
  call void @llvm.lifetime.start.p0(i64 8, ptr nonnull %26) #20
  %427 = invoke noundef nonnull align 8 dereferenceable(16) ptr @_ZNSi10_M_extractIjEERSiRT_(ptr noundef nonnull align 8 dereferenceable(16) %1, ptr noundef nonnull align 4 dereferenceable(4) %25)
          to label %428 unwind label %447

428:                                              ; preds = %426
  call void @llvm.lifetime.start.p0(i64 24, ptr nonnull %27) #20
  %429 = load i32, ptr %25, align 4, !tbaa !36
  %430 = zext i32 %429 to i64
  %431 = icmp eq i32 %429, 0
  br i1 %431, label %432, label %434

432:                                              ; preds = %428
  %433 = getelementptr inbounds %"struct.std::_Vector_base<dealii::Point<3>, std::allocator<dealii::Point<3> > >::_Vector_impl_data", ptr %27, i64 0, i32 1
  call void @llvm.memset.p0.i64(ptr noundef nonnull align 8 dereferenceable(24) %27, i8 0, i64 24, i1 false)
  br label %470

434:                                              ; preds = %428
  %435 = mul nuw nsw i64 %430, 24
  %436 = invoke noalias noundef nonnull ptr @_Znwm(i64 noundef %435) #23
          to label %437 unwind label %449

437:                                              ; preds = %434
  store ptr %436, ptr %27, align 8, !tbaa !41
  %438 = getelementptr inbounds %"class.dealii::Point", ptr %436, i64 %430
  %439 = getelementptr inbounds %"struct.std::_Vector_base<dealii::Point<3>, std::allocator<dealii::Point<3> > >::_Vector_impl_data", ptr %27, i64 0, i32 2
  store ptr %438, ptr %439, align 8, !tbaa !43
  call void @llvm.memset.p0.i64(ptr nonnull align 8 %436, i8 0, i64 %435, i1 false), !tbaa !44
  %440 = getelementptr i8, ptr %436, i64 %435
  %441 = getelementptr inbounds %"struct.std::_Vector_base<dealii::Point<3>, std::allocator<dealii::Point<3> > >::_Vector_impl_data", ptr %27, i64 0, i32 1
  store ptr %440, ptr %441, align 8, !tbaa !46
  br label %442

442:                                              ; preds = %437, %463
  %443 = phi i64 [ 0, %437 ], [ %464, %463 ]
  %444 = load ptr, ptr %27, align 8, !tbaa !41
  %445 = getelementptr inbounds %"class.dealii::Point", ptr %444, i64 %443
  %446 = invoke noundef nonnull align 8 dereferenceable(16) ptr @_ZNSi10_M_extractIdEERSiRT_(ptr noundef nonnull align 8 dereferenceable(16) %1, ptr noundef nonnull align 8 dereferenceable(8) %445)
          to label %451 unwind label %461

447:                                              ; preds = %426
  %448 = landingpad { ptr, i32 }
          cleanup
  br label %1229

449:                                              ; preds = %434
  %450 = landingpad { ptr, i32 }
          cleanup
  br label %1227

451:                                              ; preds = %442
  %452 = load ptr, ptr %27, align 8, !tbaa !41
  %453 = getelementptr inbounds %"class.dealii::Point", ptr %452, i64 %443, i32 0, i32 0, i64 1
  %454 = invoke noundef nonnull align 8 dereferenceable(16) ptr @_ZNSi10_M_extractIdEERSiRT_(ptr noundef nonnull align 8 dereferenceable(16) %1, ptr noundef nonnull align 8 dereferenceable(8) %453)
          to label %455 unwind label %461

455:                                              ; preds = %451
  %456 = load ptr, ptr %27, align 8, !tbaa !41
  %457 = getelementptr inbounds %"class.dealii::Point", ptr %456, i64 %443, i32 0, i32 0, i64 2
  %458 = invoke noundef nonnull align 8 dereferenceable(16) ptr @_ZNSi10_M_extractIdEERSiRT_(ptr noundef nonnull align 8 dereferenceable(16) %1, ptr noundef nonnull align 8 dereferenceable(8) %457)
          to label %459 unwind label %461

459:                                              ; preds = %455
  %460 = invoke noundef nonnull align 8 dereferenceable(16) ptr @_ZNSi10_M_extractIdEERSiRT_(ptr noundef nonnull align 8 dereferenceable(16) %1, ptr noundef nonnull align 8 dereferenceable(8) %26)
          to label %463 unwind label %468

461:                                              ; preds = %455, %451, %442
  %462 = landingpad { ptr, i32 }
          cleanup
  br label %1222

463:                                              ; preds = %459
  %464 = add nuw nsw i64 %443, 1
  %465 = load i32, ptr %25, align 4, !tbaa !36
  %466 = zext i32 %465 to i64
  %467 = icmp ult i64 %464, %466
  br i1 %467, label %442, label %470

468:                                              ; preds = %459
  %469 = landingpad { ptr, i32 }
          cleanup
  br label %1222

470:                                              ; preds = %463, %432
  %471 = phi ptr [ %433, %432 ], [ %441, %463 ]
  %472 = load ptr, ptr %1, align 8, !tbaa !13
  %473 = getelementptr i8, ptr %472, i64 -24
  %474 = load i64, ptr %473, align 8
  %475 = getelementptr inbounds i8, ptr %1, i64 %474
  %476 = getelementptr inbounds %"class.std::ios_base", ptr %475, i64 0, i32 5
  %477 = load i32, ptr %476, align 8, !tbaa !15
  %478 = and i32 %477, 5
  %479 = icmp eq i32 %478, 0
  br i1 %479, label %494, label %480

480:                                              ; preds = %470
  call void @llvm.memset.p0.i64(ptr noundef nonnull align 8 dereferenceable(64) %28, i8 0, i64 64, i1 false)
  invoke void @_ZN6dealii13ExceptionBaseC2Ev(ptr noundef nonnull align 8 dereferenceable(60) %28)
          to label %481 unwind label %488

481:                                              ; preds = %480
  store ptr getelementptr inbounds ({ [6 x ptr] }, ptr @_ZTVN6dealii6GridInILi3ELi3EE22ExcInvalidDBMeshFormatE, i64 0, inrange i32 0, i64 2), ptr %28, align 8, !tbaa !13
  invoke void @_ZN6dealii13ExceptionBase10set_fieldsEPKciS2_S2_S2_(ptr noundef nonnull align 8 dereferenceable(60) %28, ptr noundef nonnull @.str.2, i32 noundef 277, ptr noundef nonnull @.str.3, ptr noundef nonnull @.str.4, ptr noundef nonnull @.str.23)
          to label %482 unwind label %490

482:                                              ; preds = %481
  %483 = call ptr @__cxa_allocate_exception(i64 64) #20
  invoke void @_ZN6dealii13ExceptionBaseC2ERKS0_(ptr noundef nonnull align 8 dereferenceable(60) %483, ptr noundef nonnull align 8 dereferenceable(60) %28)
          to label %484 unwind label %486

484:                                              ; preds = %482
  store ptr getelementptr inbounds ({ [6 x ptr] }, ptr @_ZTVN6dealii6GridInILi3ELi3EE22ExcInvalidDBMeshFormatE, i64 0, inrange i32 0, i64 2), ptr %483, align 8, !tbaa !13
  invoke void @__cxa_throw(ptr nonnull %483, ptr nonnull @_ZTIN6dealii6GridInILi3ELi3EE22ExcInvalidDBMeshFormatE, ptr nonnull @_ZN6dealii13ExceptionBaseD2Ev) #21
          to label %485 unwind label %490

485:                                              ; preds = %484
  unreachable

486:                                              ; preds = %482
  %487 = landingpad { ptr, i32 }
          cleanup
  call void @__cxa_free_exception(ptr %483) #20
  br label %492

488:                                              ; preds = %533, %518, %513, %512, %503, %480, %494
  %489 = landingpad { ptr, i32 }
          cleanup
  br label %1222

490:                                              ; preds = %484, %481
  %491 = landingpad { ptr, i32 }
          cleanup
  br label %492

492:                                              ; preds = %486, %490
  %493 = phi { ptr, i32 } [ %491, %490 ], [ %487, %486 ]
  call void @_ZN6dealii13ExceptionBaseD2Ev(ptr noundef nonnull align 8 dereferenceable(60) %28) #20
  br label %1222

494:                                              ; preds = %470
  invoke void @_ZN6dealii6GridInILi3ELi3EE16skip_empty_linesERSi(ptr noundef nonnull align 8 dereferenceable(16) %1)
          to label %495 unwind label %488

495:                                              ; preds = %494
  %496 = load ptr, ptr %1, align 8, !tbaa !13
  %497 = getelementptr i8, ptr %496, i64 -24
  %498 = load i64, ptr %497, align 8
  %499 = getelementptr inbounds i8, ptr %1, i64 %498
  %500 = getelementptr inbounds %"class.std::basic_ios", ptr %499, i64 0, i32 5
  %501 = load ptr, ptr %500, align 8, !tbaa !28
  %502 = icmp eq ptr %501, null
  br i1 %502, label %503, label %505

503:                                              ; preds = %495
  invoke void @_ZSt16__throw_bad_castv() #21
          to label %504 unwind label %488

504:                                              ; preds = %503
  unreachable

505:                                              ; preds = %495
  %506 = getelementptr inbounds %"class.std::ctype", ptr %501, i64 0, i32 8
  %507 = load i8, ptr %506, align 8, !tbaa !31
  %508 = icmp eq i8 %507, 0
  br i1 %508, label %512, label %509

509:                                              ; preds = %505
  %510 = getelementptr inbounds %"class.std::ctype", ptr %501, i64 0, i32 9, i64 10
  %511 = load i8, ptr %510, align 1, !tbaa !27
  br label %518

512:                                              ; preds = %505
  invoke void @_ZNKSt5ctypeIcE13_M_widen_initEv(ptr noundef nonnull align 8 dereferenceable(570) %501)
          to label %513 unwind label %488

513:                                              ; preds = %512
  %514 = load ptr, ptr %501, align 8, !tbaa !13
  %515 = getelementptr inbounds ptr, ptr %514, i64 6
  %516 = load ptr, ptr %515, align 8
  %517 = invoke noundef signext i8 %516(ptr noundef nonnull align 8 dereferenceable(570) %501, i8 noundef signext 10)
          to label %518 unwind label %488

518:                                              ; preds = %513, %509
  %519 = phi i8 [ %511, %509 ], [ %517, %513 ]
  %520 = invoke noundef nonnull align 8 dereferenceable(16) ptr @_ZSt7getlineIcSt11char_traitsIcESaIcEERSt13basic_istreamIT_T0_ES7_RNSt7__cxx1112basic_stringIS4_S5_T1_EES4_(ptr noundef nonnull align 8 dereferenceable(16) %1, ptr noundef nonnull align 8 dereferenceable(32) %16, i8 noundef signext %519)
          to label %521 unwind label %488

521:                                              ; preds = %518
  %522 = load i64, ptr %80, align 8, !tbaa !25
  %523 = icmp eq i64 %522, 5
  %524 = load ptr, ptr %16, align 8, !tbaa !34
  br i1 %523, label %525, label %530

525:                                              ; preds = %521
  %526 = call i32 @bcmp(ptr noundef nonnull dereferenceable(5) %524, ptr noundef nonnull dereferenceable(5) @.str.24, i64 5)
  %527 = icmp eq i32 %526, 0
  br i1 %527, label %592, label %528

528:                                              ; preds = %525
  %529 = getelementptr inbounds %"class.std::__cxx11::basic_string", ptr %30, i64 0, i32 2
  store ptr %529, ptr %30, align 8, !tbaa !23
  call void @llvm.lifetime.start.p0(i64 8, ptr nonnull %8) #20
  store i64 %522, ptr %8, align 8, !tbaa !35
  br label %541

530:                                              ; preds = %521
  %531 = getelementptr inbounds %"class.std::__cxx11::basic_string", ptr %30, i64 0, i32 2
  store ptr %531, ptr %30, align 8, !tbaa !23
  call void @llvm.lifetime.start.p0(i64 8, ptr nonnull %8) #20
  store i64 %522, ptr %8, align 8, !tbaa !35
  %532 = icmp ugt i64 %522, 15
  br i1 %532, label %533, label %537

533:                                              ; preds = %530
  %534 = invoke noundef ptr @_ZNSt7__cxx1112basic_stringIcSt11char_traitsIcESaIcEE9_M_createERmm(ptr noundef nonnull align 8 dereferenceable(32) %30, ptr noundef nonnull align 8 dereferenceable(8) %8, i64 noundef 0)
          to label %535 unwind label %488

535:                                              ; preds = %533
  store ptr %534, ptr %30, align 8, !tbaa !34
  %536 = load i64, ptr %8, align 8, !tbaa !35
  store i64 %536, ptr %531, align 8, !tbaa !27
  br label %537

537:                                              ; preds = %535, %530
  %538 = phi ptr [ %534, %535 ], [ %531, %530 ]
  switch i64 %522, label %541 [
    i64 1, label %539
    i64 0, label %544
  ]

539:                                              ; preds = %537
  %540 = load i8, ptr %524, align 1, !tbaa !27
  store i8 %540, ptr %538, align 1, !tbaa !27
  br label %544

541:                                              ; preds = %528, %537
  %542 = phi ptr [ %529, %528 ], [ %538, %537 ]
  %543 = phi ptr [ %529, %528 ], [ %531, %537 ]
  call void @llvm.memcpy.p0.p0.i64(ptr align 1 %542, ptr align 1 %524, i64 %522, i1 false)
  br label %544

544:                                              ; preds = %541, %539, %537
  %545 = phi ptr [ %543, %541 ], [ %531, %539 ], [ %531, %537 ]
  %546 = load i64, ptr %8, align 8, !tbaa !35
  %547 = getelementptr inbounds %"class.std::__cxx11::basic_string", ptr %30, i64 0, i32 1
  store i64 %546, ptr %547, align 8, !tbaa !25
  %548 = load ptr, ptr %30, align 8, !tbaa !34
  %549 = getelementptr inbounds i8, ptr %548, i64 %546
  store i8 0, ptr %549, align 1, !tbaa !27
  call void @llvm.lifetime.end.p0(i64 8, ptr nonnull %8) #20
  invoke void @_ZN6dealii13ExceptionBaseC2Ev(ptr noundef nonnull align 8 dereferenceable(60) %29)
          to label %550 unwind label %578

550:                                              ; preds = %544
  store ptr getelementptr inbounds ({ [6 x ptr] }, ptr @_ZTVN6dealii6GridInILi3ELi3EE21ExcInvalidDBMESHInputE, i64 0, inrange i32 0, i64 2), ptr %29, align 8, !tbaa !13
  %551 = getelementptr inbounds %"class.dealii::GridIn<3>::ExcInvalidDBMESHInput", ptr %29, i64 0, i32 1
  %552 = getelementptr inbounds %"class.dealii::GridIn<3>::ExcInvalidDBMESHInput", ptr %29, i64 0, i32 1, i32 2
  store ptr %552, ptr %551, align 8, !tbaa !23
  %553 = load ptr, ptr %30, align 8, !tbaa !34
  %554 = load i64, ptr %547, align 8, !tbaa !25
  call void @llvm.lifetime.start.p0(i64 8, ptr nonnull %7) #20
  store i64 %554, ptr %7, align 8, !tbaa !35
  %555 = icmp ugt i64 %554, 15
  br i1 %555, label %556, label %560

556:                                              ; preds = %550
  %557 = invoke noundef ptr @_ZNSt7__cxx1112basic_stringIcSt11char_traitsIcESaIcEE9_M_createERmm(ptr noundef nonnull align 8 dereferenceable(32) %551, ptr noundef nonnull align 8 dereferenceable(8) %7, i64 noundef 0)
          to label %558 unwind label %565

558:                                              ; preds = %556
  store ptr %557, ptr %551, align 8, !tbaa !34
  %559 = load i64, ptr %7, align 8, !tbaa !35
  store i64 %559, ptr %552, align 8, !tbaa !27
  br label %560

560:                                              ; preds = %558, %550
  %561 = phi ptr [ %557, %558 ], [ %552, %550 ]
  switch i64 %554, label %564 [
    i64 1, label %562
    i64 0, label %567
  ]

562:                                              ; preds = %560
  %563 = load i8, ptr %553, align 1, !tbaa !27
  store i8 %563, ptr %561, align 1, !tbaa !27
  br label %567

564:                                              ; preds = %560
  call void @llvm.memcpy.p0.p0.i64(ptr align 1 %561, ptr align 1 %553, i64 %554, i1 false)
  br label %567

565:                                              ; preds = %556
  %566 = landingpad { ptr, i32 }
          cleanup
  call void @_ZN6dealii13ExceptionBaseD2Ev(ptr noundef nonnull align 8 dereferenceable(60) %29) #20
  br label %584

567:                                              ; preds = %564, %562, %560
  %568 = load i64, ptr %7, align 8, !tbaa !35
  %569 = getelementptr inbounds %"class.dealii::GridIn<3>::ExcInvalidDBMESHInput", ptr %29, i64 0, i32 1, i32 1
  store i64 %568, ptr %569, align 8, !tbaa !25
  %570 = load ptr, ptr %551, align 8, !tbaa !34
  %571 = getelementptr inbounds i8, ptr %570, i64 %568
  store i8 0, ptr %571, align 1, !tbaa !27
  call void @llvm.lifetime.end.p0(i64 8, ptr nonnull %7) #20
  invoke void @_ZN6dealii13ExceptionBase10set_fieldsEPKciS2_S2_S2_(ptr noundef nonnull align 8 dereferenceable(60) %29, ptr noundef nonnull @.str.2, i32 noundef 285, ptr noundef nonnull @.str.3, ptr noundef nonnull @.str.25, ptr noundef nonnull @.str.15)
          to label %572 unwind label %580

572:                                              ; preds = %567
  %573 = call ptr @__cxa_allocate_exception(i64 96) #20
  invoke void @_ZN6dealii6GridInILi3ELi3EE21ExcInvalidDBMESHInputC2ERKS2_(ptr noundef nonnull align 8 dereferenceable(96) %573, ptr noundef nonnull align 8 dereferenceable(96) %29)
          to label %574 unwind label %576

574:                                              ; preds = %572
  invoke void @__cxa_throw(ptr nonnull %573, ptr nonnull @_ZTIN6dealii6GridInILi3ELi3EE21ExcInvalidDBMESHInputE, ptr nonnull @_ZN6dealii6GridInILi3ELi3EE21ExcInvalidDBMESHInputD2Ev) #21
          to label %575 unwind label %580

575:                                              ; preds = %574
  unreachable

576:                                              ; preds = %572
  %577 = landingpad { ptr, i32 }
          cleanup
  call void @__cxa_free_exception(ptr %573) #20
  br label %582

578:                                              ; preds = %544
  %579 = landingpad { ptr, i32 }
          cleanup
  br label %584

580:                                              ; preds = %574, %567
  %581 = landingpad { ptr, i32 }
          cleanup
  br label %582

582:                                              ; preds = %576, %580
  %583 = phi { ptr, i32 } [ %581, %580 ], [ %577, %576 ]
  call void @_ZN6dealii6GridInILi3ELi3EE21ExcInvalidDBMESHInputD2Ev(ptr noundef nonnull align 8 dereferenceable(96) %29) #20
  br label %584

584:                                              ; preds = %578, %565, %582
  %585 = phi { ptr, i32 } [ %583, %582 ], [ %579, %578 ], [ %566, %565 ]
  %586 = load ptr, ptr %30, align 8, !tbaa !34
  %587 = icmp eq ptr %586, %545
  br i1 %587, label %588, label %591

588:                                              ; preds = %584
  %589 = load i64, ptr %547, align 8, !tbaa !25
  %590 = icmp ult i64 %589, 16
  call void @llvm.assume(i1 %590)
  br label %1222

591:                                              ; preds = %584
  call void @_ZdlPv(ptr noundef %586) #22
  br label %1222

592:                                              ; preds = %525
  call void @llvm.lifetime.start.p0(i64 4, ptr nonnull %31) #20
  %593 = invoke noundef nonnull align 8 dereferenceable(16) ptr @_ZNSi10_M_extractIjEERSiRT_(ptr noundef nonnull align 8 dereferenceable(16) %1, ptr noundef nonnull align 4 dereferenceable(4) %31)
          to label %594 unwind label %597

594:                                              ; preds = %592
  %595 = load i32, ptr %31, align 4, !tbaa !36
  %596 = icmp eq i32 %595, 0
  br i1 %596, label %612, label %599

597:                                              ; preds = %777, %807, %792, %787, %786, %756, %729, %670, %655, %650, %649, %621, %592, %768, %633
  %598 = landingpad { ptr, i32 }
          cleanup
  br label %1220

599:                                              ; preds = %594, %606
  %600 = phi i32 [ %607, %606 ], [ 0, %594 ]
  %601 = invoke noundef nonnull align 8 dereferenceable(16) ptr @_ZNSi10_M_extractIdEERSiRT_(ptr noundef nonnull align 8 dereferenceable(16) %1, ptr noundef nonnull align 8 dereferenceable(8) %26)
          to label %602 unwind label %610

602:                                              ; preds = %599
  %603 = invoke noundef nonnull align 8 dereferenceable(16) ptr @_ZNSi10_M_extractIdEERSiRT_(ptr noundef nonnull align 8 dereferenceable(16) %601, ptr noundef nonnull align 8 dereferenceable(8) %26)
          to label %604 unwind label %610

604:                                              ; preds = %602
  %605 = invoke noundef nonnull align 8 dereferenceable(16) ptr @_ZNSi10_M_extractIdEERSiRT_(ptr noundef nonnull align 8 dereferenceable(16) %1, ptr noundef nonnull align 8 dereferenceable(8) %26)
          to label %606 unwind label %610

606:                                              ; preds = %604
  %607 = add nuw i32 %600, 1
  %608 = load i32, ptr %31, align 4, !tbaa !36
  %609 = icmp ult i32 %607, %608
  br i1 %609, label %599, label %612

610:                                              ; preds = %604, %602, %599
  %611 = landingpad { ptr, i32 }
          cleanup
  br label %1220

612:                                              ; preds = %606, %594
  %613 = load ptr, ptr %1, align 8, !tbaa !13
  %614 = getelementptr i8, ptr %613, i64 -24
  %615 = load i64, ptr %614, align 8
  %616 = getelementptr inbounds i8, ptr %1, i64 %615
  %617 = getelementptr inbounds %"class.std::ios_base", ptr %616, i64 0, i32 5
  %618 = load i32, ptr %617, align 8, !tbaa !15
  %619 = and i32 %618, 5
  %620 = icmp eq i32 %619, 0
  br i1 %620, label %633, label %621

621:                                              ; preds = %612
  call void @llvm.memset.p0.i64(ptr noundef nonnull align 8 dereferenceable(64) %32, i8 0, i64 64, i1 false)
  invoke void @_ZN6dealii13ExceptionBaseC2Ev(ptr noundef nonnull align 8 dereferenceable(60) %32)
          to label %622 unwind label %597

622:                                              ; preds = %621
  store ptr getelementptr inbounds ({ [6 x ptr] }, ptr @_ZTVN6dealii6GridInILi3ELi3EE22ExcInvalidDBMeshFormatE, i64 0, inrange i32 0, i64 2), ptr %32, align 8, !tbaa !13
  invoke void @_ZN6dealii13ExceptionBase10set_fieldsEPKciS2_S2_S2_(ptr noundef nonnull align 8 dereferenceable(60) %32, ptr noundef nonnull @.str.2, i32 noundef 296, ptr noundef nonnull @.str.3, ptr noundef nonnull @.str.4, ptr noundef nonnull @.str.23)
          to label %623 unwind label %629

623:                                              ; preds = %622
  %624 = call ptr @__cxa_allocate_exception(i64 64) #20
  invoke void @_ZN6dealii13ExceptionBaseC2ERKS0_(ptr noundef nonnull align 8 dereferenceable(60) %624, ptr noundef nonnull align 8 dereferenceable(60) %32)
          to label %625 unwind label %627

625:                                              ; preds = %623
  store ptr getelementptr inbounds ({ [6 x ptr] }, ptr @_ZTVN6dealii6GridInILi3ELi3EE22ExcInvalidDBMeshFormatE, i64 0, inrange i32 0, i64 2), ptr %624, align 8, !tbaa !13
  invoke void @__cxa_throw(ptr nonnull %624, ptr nonnull @_ZTIN6dealii6GridInILi3ELi3EE22ExcInvalidDBMeshFormatE, ptr nonnull @_ZN6dealii13ExceptionBaseD2Ev) #21
          to label %626 unwind label %629

626:                                              ; preds = %625
  unreachable

627:                                              ; preds = %623
  %628 = landingpad { ptr, i32 }
          cleanup
  call void @__cxa_free_exception(ptr %624) #20
  br label %631

629:                                              ; preds = %625, %622
  %630 = landingpad { ptr, i32 }
          cleanup
  br label %631

631:                                              ; preds = %627, %629
  %632 = phi { ptr, i32 } [ %630, %629 ], [ %628, %627 ]
  call void @_ZN6dealii13ExceptionBaseD2Ev(ptr noundef nonnull align 8 dereferenceable(60) %32) #20
  br label %1220

633:                                              ; preds = %612
  invoke void @_ZN6dealii6GridInILi3ELi3EE16skip_empty_linesERSi(ptr noundef nonnull align 8 dereferenceable(16) %1)
          to label %634 unwind label %597

634:                                              ; preds = %633
  %635 = load ptr, ptr %1, align 8, !tbaa !13
  %636 = getelementptr i8, ptr %635, i64 -24
  %637 = load i64, ptr %636, align 8
  %638 = getelementptr inbounds i8, ptr %1, i64 %637
  %639 = getelementptr inbounds %"class.std::basic_ios", ptr %638, i64 0, i32 5
  %640 = load ptr, ptr %639, align 8, !tbaa !28
  %641 = icmp eq ptr %640, null
  br i1 %641, label %777, label %642

642:                                              ; preds = %634
  %643 = getelementptr inbounds %"class.std::ctype", ptr %640, i64 0, i32 8
  %644 = load i8, ptr %643, align 8, !tbaa !31
  %645 = icmp eq i8 %644, 0
  br i1 %645, label %649, label %646

646:                                              ; preds = %642
  %647 = getelementptr inbounds %"class.std::ctype", ptr %640, i64 0, i32 9, i64 10
  %648 = load i8, ptr %647, align 1, !tbaa !27
  br label %655

649:                                              ; preds = %642
  invoke void @_ZNKSt5ctypeIcE13_M_widen_initEv(ptr noundef nonnull align 8 dereferenceable(570) %640)
          to label %650 unwind label %597

650:                                              ; preds = %649
  %651 = load ptr, ptr %640, align 8, !tbaa !13
  %652 = getelementptr inbounds ptr, ptr %651, i64 6
  %653 = load ptr, ptr %652, align 8
  %654 = invoke noundef signext i8 %653(ptr noundef nonnull align 8 dereferenceable(570) %640, i8 noundef signext 10)
          to label %655 unwind label %597

655:                                              ; preds = %650, %646
  %656 = phi i8 [ %648, %646 ], [ %654, %650 ]
  %657 = invoke noundef nonnull align 8 dereferenceable(16) ptr @_ZSt7getlineIcSt11char_traitsIcESaIcEERSt13basic_istreamIT_T0_ES7_RNSt7__cxx1112basic_stringIS4_S5_T1_EES4_(ptr noundef nonnull align 8 dereferenceable(16) %1, ptr noundef nonnull align 8 dereferenceable(32) %16, i8 noundef signext %656)
          to label %658 unwind label %597

658:                                              ; preds = %655
  %659 = load i64, ptr %80, align 8, !tbaa !25
  %660 = icmp eq i64 %659, 12
  %661 = load ptr, ptr %16, align 8, !tbaa !34
  br i1 %660, label %662, label %667

662:                                              ; preds = %658
  %663 = call i32 @bcmp(ptr noundef nonnull dereferenceable(12) %661, ptr noundef nonnull dereferenceable(12) @.str.26, i64 12)
  %664 = icmp eq i32 %663, 0
  br i1 %664, label %729, label %665

665:                                              ; preds = %662
  %666 = getelementptr inbounds %"class.std::__cxx11::basic_string", ptr %34, i64 0, i32 2
  store ptr %666, ptr %34, align 8, !tbaa !23
  call void @llvm.lifetime.start.p0(i64 8, ptr nonnull %6) #20
  store i64 %659, ptr %6, align 8, !tbaa !35
  br label %678

667:                                              ; preds = %658
  %668 = getelementptr inbounds %"class.std::__cxx11::basic_string", ptr %34, i64 0, i32 2
  store ptr %668, ptr %34, align 8, !tbaa !23
  call void @llvm.lifetime.start.p0(i64 8, ptr nonnull %6) #20
  store i64 %659, ptr %6, align 8, !tbaa !35
  %669 = icmp ugt i64 %659, 15
  br i1 %669, label %670, label %674

670:                                              ; preds = %667
  %671 = invoke noundef ptr @_ZNSt7__cxx1112basic_stringIcSt11char_traitsIcESaIcEE9_M_createERmm(ptr noundef nonnull align 8 dereferenceable(32) %34, ptr noundef nonnull align 8 dereferenceable(8) %6, i64 noundef 0)
          to label %672 unwind label %597

672:                                              ; preds = %670
  store ptr %671, ptr %34, align 8, !tbaa !34
  %673 = load i64, ptr %6, align 8, !tbaa !35
  store i64 %673, ptr %668, align 8, !tbaa !27
  br label %674

674:                                              ; preds = %672, %667
  %675 = phi ptr [ %671, %672 ], [ %668, %667 ]
  switch i64 %659, label %678 [
    i64 1, label %676
    i64 0, label %681
  ]

676:                                              ; preds = %674
  %677 = load i8, ptr %661, align 1, !tbaa !27
  store i8 %677, ptr %675, align 1, !tbaa !27
  br label %681

678:                                              ; preds = %665, %674
  %679 = phi ptr [ %666, %665 ], [ %675, %674 ]
  %680 = phi ptr [ %666, %665 ], [ %668, %674 ]
  call void @llvm.memcpy.p0.p0.i64(ptr align 1 %679, ptr align 1 %661, i64 %659, i1 false)
  br label %681

681:                                              ; preds = %678, %676, %674
  %682 = phi ptr [ %680, %678 ], [ %668, %676 ], [ %668, %674 ]
  %683 = load i64, ptr %6, align 8, !tbaa !35
  %684 = getelementptr inbounds %"class.std::__cxx11::basic_string", ptr %34, i64 0, i32 1
  store i64 %683, ptr %684, align 8, !tbaa !25
  %685 = load ptr, ptr %34, align 8, !tbaa !34
  %686 = getelementptr inbounds i8, ptr %685, i64 %683
  store i8 0, ptr %686, align 1, !tbaa !27
  call void @llvm.lifetime.end.p0(i64 8, ptr nonnull %6) #20
  invoke void @_ZN6dealii13ExceptionBaseC2Ev(ptr noundef nonnull align 8 dereferenceable(60) %33)
          to label %687 unwind label %715

687:                                              ; preds = %681
  store ptr getelementptr inbounds ({ [6 x ptr] }, ptr @_ZTVN6dealii6GridInILi3ELi3EE21ExcInvalidDBMESHInputE, i64 0, inrange i32 0, i64 2), ptr %33, align 8, !tbaa !13
  %688 = getelementptr inbounds %"class.dealii::GridIn<3>::ExcInvalidDBMESHInput", ptr %33, i64 0, i32 1
  %689 = getelementptr inbounds %"class.dealii::GridIn<3>::ExcInvalidDBMESHInput", ptr %33, i64 0, i32 1, i32 2
  store ptr %689, ptr %688, align 8, !tbaa !23
  %690 = load ptr, ptr %34, align 8, !tbaa !34
  %691 = load i64, ptr %684, align 8, !tbaa !25
  call void @llvm.lifetime.start.p0(i64 8, ptr nonnull %5) #20
  store i64 %691, ptr %5, align 8, !tbaa !35
  %692 = icmp ugt i64 %691, 15
  br i1 %692, label %693, label %697

693:                                              ; preds = %687
  %694 = invoke noundef ptr @_ZNSt7__cxx1112basic_stringIcSt11char_traitsIcESaIcEE9_M_createERmm(ptr noundef nonnull align 8 dereferenceable(32) %688, ptr noundef nonnull align 8 dereferenceable(8) %5, i64 noundef 0)
          to label %695 unwind label %702

695:                                              ; preds = %693
  store ptr %694, ptr %688, align 8, !tbaa !34
  %696 = load i64, ptr %5, align 8, !tbaa !35
  store i64 %696, ptr %689, align 8, !tbaa !27
  br label %697

697:                                              ; preds = %695, %687
  %698 = phi ptr [ %694, %695 ], [ %689, %687 ]
  switch i64 %691, label %701 [
    i64 1, label %699
    i64 0, label %704
  ]

699:                                              ; preds = %697
  %700 = load i8, ptr %690, align 1, !tbaa !27
  store i8 %700, ptr %698, align 1, !tbaa !27
  br label %704

701:                                              ; preds = %697
  call void @llvm.memcpy.p0.p0.i64(ptr align 1 %698, ptr align 1 %690, i64 %691, i1 false)
  br label %704

702:                                              ; preds = %693
  %703 = landingpad { ptr, i32 }
          cleanup
  call void @_ZN6dealii13ExceptionBaseD2Ev(ptr noundef nonnull align 8 dereferenceable(60) %33) #20
  br label %721

704:                                              ; preds = %701, %699, %697
  %705 = load i64, ptr %5, align 8, !tbaa !35
  %706 = getelementptr inbounds %"class.dealii::GridIn<3>::ExcInvalidDBMESHInput", ptr %33, i64 0, i32 1, i32 1
  store i64 %705, ptr %706, align 8, !tbaa !25
  %707 = load ptr, ptr %688, align 8, !tbaa !34
  %708 = getelementptr inbounds i8, ptr %707, i64 %705
  store i8 0, ptr %708, align 1, !tbaa !27
  call void @llvm.lifetime.end.p0(i64 8, ptr nonnull %5) #20
  invoke void @_ZN6dealii13ExceptionBase10set_fieldsEPKciS2_S2_S2_(ptr noundef nonnull align 8 dereferenceable(60) %33, ptr noundef nonnull @.str.2, i32 noundef 307, ptr noundef nonnull @.str.3, ptr noundef nonnull @.str.27, ptr noundef nonnull @.str.15)
          to label %709 unwind label %717

709:                                              ; preds = %704
  %710 = call ptr @__cxa_allocate_exception(i64 96) #20
  invoke void @_ZN6dealii6GridInILi3ELi3EE21ExcInvalidDBMESHInputC2ERKS2_(ptr noundef nonnull align 8 dereferenceable(96) %710, ptr noundef nonnull align 8 dereferenceable(96) %33)
          to label %711 unwind label %713

711:                                              ; preds = %709
  invoke void @__cxa_throw(ptr nonnull %710, ptr nonnull @_ZTIN6dealii6GridInILi3ELi3EE21ExcInvalidDBMESHInputE, ptr nonnull @_ZN6dealii6GridInILi3ELi3EE21ExcInvalidDBMESHInputD2Ev) #21
          to label %712 unwind label %717

712:                                              ; preds = %711
  unreachable

713:                                              ; preds = %709
  %714 = landingpad { ptr, i32 }
          cleanup
  call void @__cxa_free_exception(ptr %710) #20
  br label %719

715:                                              ; preds = %681
  %716 = landingpad { ptr, i32 }
          cleanup
  br label %721

717:                                              ; preds = %711, %704
  %718 = landingpad { ptr, i32 }
          cleanup
  br label %719

719:                                              ; preds = %713, %717
  %720 = phi { ptr, i32 } [ %718, %717 ], [ %714, %713 ]
  call void @_ZN6dealii6GridInILi3ELi3EE21ExcInvalidDBMESHInputD2Ev(ptr noundef nonnull align 8 dereferenceable(96) %33) #20
  br label %721

721:                                              ; preds = %715, %702, %719
  %722 = phi { ptr, i32 } [ %720, %719 ], [ %716, %715 ], [ %703, %702 ]
  %723 = load ptr, ptr %34, align 8, !tbaa !34
  %724 = icmp eq ptr %723, %682
  br i1 %724, label %725, label %728

725:                                              ; preds = %721
  %726 = load i64, ptr %684, align 8, !tbaa !25
  %727 = icmp ult i64 %726, 16
  call void @llvm.assume(i1 %727)
  br label %1220

728:                                              ; preds = %721
  call void @_ZdlPv(ptr noundef %723) #22
  br label %1220

729:                                              ; preds = %662
  %730 = invoke noundef nonnull align 8 dereferenceable(16) ptr @_ZNSi10_M_extractIjEERSiRT_(ptr noundef nonnull align 8 dereferenceable(16) %1, ptr noundef nonnull align 4 dereferenceable(4) %31)
          to label %731 unwind label %597

731:                                              ; preds = %729
  %732 = load i32, ptr %31, align 4, !tbaa !36
  %733 = icmp eq i32 %732, 0
  br i1 %733, label %747, label %734

734:                                              ; preds = %731, %741
  %735 = phi i32 [ %742, %741 ], [ 0, %731 ]
  %736 = invoke noundef nonnull align 8 dereferenceable(16) ptr @_ZNSi10_M_extractIdEERSiRT_(ptr noundef nonnull align 8 dereferenceable(16) %1, ptr noundef nonnull align 8 dereferenceable(8) %26)
          to label %737 unwind label %745

737:                                              ; preds = %734
  %738 = invoke noundef nonnull align 8 dereferenceable(16) ptr @_ZNSi10_M_extractIdEERSiRT_(ptr noundef nonnull align 8 dereferenceable(16) %736, ptr noundef nonnull align 8 dereferenceable(8) %26)
          to label %739 unwind label %745

739:                                              ; preds = %737
  %740 = invoke noundef nonnull align 8 dereferenceable(16) ptr @_ZNSi10_M_extractIdEERSiRT_(ptr noundef nonnull align 8 dereferenceable(16) %1, ptr noundef nonnull align 8 dereferenceable(8) %26)
          to label %741 unwind label %745

741:                                              ; preds = %739
  %742 = add nuw i32 %735, 1
  %743 = load i32, ptr %31, align 4, !tbaa !36
  %744 = icmp ult i32 %742, %743
  br i1 %744, label %734, label %747

745:                                              ; preds = %739, %737, %734
  %746 = landingpad { ptr, i32 }
          cleanup
  br label %1220

747:                                              ; preds = %741, %731
  %748 = load ptr, ptr %1, align 8, !tbaa !13
  %749 = getelementptr i8, ptr %748, i64 -24
  %750 = load i64, ptr %749, align 8
  %751 = getelementptr inbounds i8, ptr %1, i64 %750
  %752 = getelementptr inbounds %"class.std::ios_base", ptr %751, i64 0, i32 5
  %753 = load i32, ptr %752, align 8, !tbaa !15
  %754 = and i32 %753, 5
  %755 = icmp eq i32 %754, 0
  br i1 %755, label %768, label %756

756:                                              ; preds = %747
  call void @llvm.memset.p0.i64(ptr noundef nonnull align 8 dereferenceable(64) %35, i8 0, i64 64, i1 false)
  invoke void @_ZN6dealii13ExceptionBaseC2Ev(ptr noundef nonnull align 8 dereferenceable(60) %35)
          to label %757 unwind label %597

757:                                              ; preds = %756
  store ptr getelementptr inbounds ({ [6 x ptr] }, ptr @_ZTVN6dealii6GridInILi3ELi3EE22ExcInvalidDBMeshFormatE, i64 0, inrange i32 0, i64 2), ptr %35, align 8, !tbaa !13
  invoke void @_ZN6dealii13ExceptionBase10set_fieldsEPKciS2_S2_S2_(ptr noundef nonnull align 8 dereferenceable(60) %35, ptr noundef nonnull @.str.2, i32 noundef 317, ptr noundef nonnull @.str.3, ptr noundef nonnull @.str.4, ptr noundef nonnull @.str.23)
          to label %758 unwind label %764

758:                                              ; preds = %757
  %759 = call ptr @__cxa_allocate_exception(i64 64) #20
  invoke void @_ZN6dealii13ExceptionBaseC2ERKS0_(ptr noundef nonnull align 8 dereferenceable(60) %759, ptr noundef nonnull align 8 dereferenceable(60) %35)
          to label %760 unwind label %762

760:                                              ; preds = %758
  store ptr getelementptr inbounds ({ [6 x ptr] }, ptr @_ZTVN6dealii6GridInILi3ELi3EE22ExcInvalidDBMeshFormatE, i64 0, inrange i32 0, i64 2), ptr %759, align 8, !tbaa !13
  invoke void @__cxa_throw(ptr nonnull %759, ptr nonnull @_ZTIN6dealii6GridInILi3ELi3EE22ExcInvalidDBMeshFormatE, ptr nonnull @_ZN6dealii13ExceptionBaseD2Ev) #21
          to label %761 unwind label %764

761:                                              ; preds = %760
  unreachable

762:                                              ; preds = %758
  %763 = landingpad { ptr, i32 }
          cleanup
  call void @__cxa_free_exception(ptr %759) #20
  br label %766

764:                                              ; preds = %760, %757
  %765 = landingpad { ptr, i32 }
          cleanup
  br label %766

766:                                              ; preds = %762, %764
  %767 = phi { ptr, i32 } [ %765, %764 ], [ %763, %762 ]
  call void @_ZN6dealii13ExceptionBaseD2Ev(ptr noundef nonnull align 8 dereferenceable(60) %35) #20
  br label %1220

768:                                              ; preds = %747
  invoke void @_ZN6dealii6GridInILi3ELi3EE16skip_empty_linesERSi(ptr noundef nonnull align 8 dereferenceable(16) %1)
          to label %769 unwind label %597

769:                                              ; preds = %768
  %770 = load ptr, ptr %1, align 8, !tbaa !13
  %771 = getelementptr i8, ptr %770, i64 -24
  %772 = load i64, ptr %771, align 8
  %773 = getelementptr inbounds i8, ptr %1, i64 %772
  %774 = getelementptr inbounds %"class.std::basic_ios", ptr %773, i64 0, i32 5
  %775 = load ptr, ptr %774, align 8, !tbaa !28
  %776 = icmp eq ptr %775, null
  br i1 %776, label %777, label %779

777:                                              ; preds = %769, %634
  invoke void @_ZSt16__throw_bad_castv() #21
          to label %778 unwind label %597

778:                                              ; preds = %777
  unreachable

779:                                              ; preds = %769
  %780 = getelementptr inbounds %"class.std::ctype", ptr %775, i64 0, i32 8
  %781 = load i8, ptr %780, align 8, !tbaa !31
  %782 = icmp eq i8 %781, 0
  br i1 %782, label %786, label %783

783:                                              ; preds = %779
  %784 = getelementptr inbounds %"class.std::ctype", ptr %775, i64 0, i32 9, i64 10
  %785 = load i8, ptr %784, align 1, !tbaa !27
  br label %792

786:                                              ; preds = %779
  invoke void @_ZNKSt5ctypeIcE13_M_widen_initEv(ptr noundef nonnull align 8 dereferenceable(570) %775)
          to label %787 unwind label %597

787:                                              ; preds = %786
  %788 = load ptr, ptr %775, align 8, !tbaa !13
  %789 = getelementptr inbounds ptr, ptr %788, i64 6
  %790 = load ptr, ptr %789, align 8
  %791 = invoke noundef signext i8 %790(ptr noundef nonnull align 8 dereferenceable(570) %775, i8 noundef signext 10)
          to label %792 unwind label %597

792:                                              ; preds = %787, %783
  %793 = phi i8 [ %785, %783 ], [ %791, %787 ]
  %794 = invoke noundef nonnull align 8 dereferenceable(16) ptr @_ZSt7getlineIcSt11char_traitsIcESaIcEERSt13basic_istreamIT_T0_ES7_RNSt7__cxx1112basic_stringIS4_S5_T1_EES4_(ptr noundef nonnull align 8 dereferenceable(16) %1, ptr noundef nonnull align 8 dereferenceable(32) %16, i8 noundef signext %793)
          to label %795 unwind label %597

795:                                              ; preds = %792
  %796 = load i64, ptr %80, align 8, !tbaa !25
  %797 = icmp eq i64 %796, 14
  %798 = load ptr, ptr %16, align 8, !tbaa !34
  br i1 %797, label %799, label %804

799:                                              ; preds = %795
  %800 = call i32 @bcmp(ptr noundef nonnull dereferenceable(14) %798, ptr noundef nonnull dereferenceable(14) @.str.28, i64 14)
  %801 = icmp eq i32 %800, 0
  br i1 %801, label %866, label %802

802:                                              ; preds = %799
  %803 = getelementptr inbounds %"class.std::__cxx11::basic_string", ptr %37, i64 0, i32 2
  store ptr %803, ptr %37, align 8, !tbaa !23
  call void @llvm.lifetime.start.p0(i64 8, ptr nonnull %4) #20
  store i64 %796, ptr %4, align 8, !tbaa !35
  br label %815

804:                                              ; preds = %795
  %805 = getelementptr inbounds %"class.std::__cxx11::basic_string", ptr %37, i64 0, i32 2
  store ptr %805, ptr %37, align 8, !tbaa !23
  call void @llvm.lifetime.start.p0(i64 8, ptr nonnull %4) #20
  store i64 %796, ptr %4, align 8, !tbaa !35
  %806 = icmp ugt i64 %796, 15
  br i1 %806, label %807, label %811

807:                                              ; preds = %804
  %808 = invoke noundef ptr @_ZNSt7__cxx1112basic_stringIcSt11char_traitsIcESaIcEE9_M_createERmm(ptr noundef nonnull align 8 dereferenceable(32) %37, ptr noundef nonnull align 8 dereferenceable(8) %4, i64 noundef 0)
          to label %809 unwind label %597

809:                                              ; preds = %807
  store ptr %808, ptr %37, align 8, !tbaa !34
  %810 = load i64, ptr %4, align 8, !tbaa !35
  store i64 %810, ptr %805, align 8, !tbaa !27
  br label %811

811:                                              ; preds = %809, %804
  %812 = phi ptr [ %808, %809 ], [ %805, %804 ]
  switch i64 %796, label %815 [
    i64 1, label %813
    i64 0, label %818
  ]

813:                                              ; preds = %811
  %814 = load i8, ptr %798, align 1, !tbaa !27
  store i8 %814, ptr %812, align 1, !tbaa !27
  br label %818

815:                                              ; preds = %802, %811
  %816 = phi ptr [ %803, %802 ], [ %812, %811 ]
  %817 = phi ptr [ %803, %802 ], [ %805, %811 ]
  call void @llvm.memcpy.p0.p0.i64(ptr align 1 %816, ptr align 1 %798, i64 %796, i1 false)
  br label %818

818:                                              ; preds = %815, %813, %811
  %819 = phi ptr [ %817, %815 ], [ %805, %813 ], [ %805, %811 ]
  %820 = load i64, ptr %4, align 8, !tbaa !35
  %821 = getelementptr inbounds %"class.std::__cxx11::basic_string", ptr %37, i64 0, i32 1
  store i64 %820, ptr %821, align 8, !tbaa !25
  %822 = load ptr, ptr %37, align 8, !tbaa !34
  %823 = getelementptr inbounds i8, ptr %822, i64 %820
  store i8 0, ptr %823, align 1, !tbaa !27
  call void @llvm.lifetime.end.p0(i64 8, ptr nonnull %4) #20
  invoke void @_ZN6dealii13ExceptionBaseC2Ev(ptr noundef nonnull align 8 dereferenceable(60) %36)
          to label %824 unwind label %852

824:                                              ; preds = %818
  store ptr getelementptr inbounds ({ [6 x ptr] }, ptr @_ZTVN6dealii6GridInILi3ELi3EE21ExcInvalidDBMESHInputE, i64 0, inrange i32 0, i64 2), ptr %36, align 8, !tbaa !13
  %825 = getelementptr inbounds %"class.dealii::GridIn<3>::ExcInvalidDBMESHInput", ptr %36, i64 0, i32 1
  %826 = getelementptr inbounds %"class.dealii::GridIn<3>::ExcInvalidDBMESHInput", ptr %36, i64 0, i32 1, i32 2
  store ptr %826, ptr %825, align 8, !tbaa !23
  %827 = load ptr, ptr %37, align 8, !tbaa !34
  %828 = load i64, ptr %821, align 8, !tbaa !25
  call void @llvm.lifetime.start.p0(i64 8, ptr nonnull %3) #20
  store i64 %828, ptr %3, align 8, !tbaa !35
  %829 = icmp ugt i64 %828, 15
  br i1 %829, label %830, label %834

830:                                              ; preds = %824
  %831 = invoke noundef ptr @_ZNSt7__cxx1112basic_stringIcSt11char_traitsIcESaIcEE9_M_createERmm(ptr noundef nonnull align 8 dereferenceable(32) %825, ptr noundef nonnull align 8 dereferenceable(8) %3, i64 noundef 0)
          to label %832 unwind label %839

832:                                              ; preds = %830
  store ptr %831, ptr %825, align 8, !tbaa !34
  %833 = load i64, ptr %3, align 8, !tbaa !35
  store i64 %833, ptr %826, align 8, !tbaa !27
  br label %834

834:                                              ; preds = %832, %824
  %835 = phi ptr [ %831, %832 ], [ %826, %824 ]
  switch i64 %828, label %838 [
    i64 1, label %836
    i64 0, label %841
  ]

836:                                              ; preds = %834
  %837 = load i8, ptr %827, align 1, !tbaa !27
  store i8 %837, ptr %835, align 1, !tbaa !27
  br label %841

838:                                              ; preds = %834
  call void @llvm.memcpy.p0.p0.i64(ptr align 1 %835, ptr align 1 %827, i64 %828, i1 false)
  br label %841

839:                                              ; preds = %830
  %840 = landingpad { ptr, i32 }
          cleanup
  call void @_ZN6dealii13ExceptionBaseD2Ev(ptr noundef nonnull align 8 dereferenceable(60) %36) #20
  br label %858

841:                                              ; preds = %838, %836, %834
  %842 = load i64, ptr %3, align 8, !tbaa !35
  %843 = getelementptr inbounds %"class.dealii::GridIn<3>::ExcInvalidDBMESHInput", ptr %36, i64 0, i32 1, i32 1
  store i64 %842, ptr %843, align 8, !tbaa !25
  %844 = load ptr, ptr %825, align 8, !tbaa !34
  %845 = getelementptr inbounds i8, ptr %844, i64 %842
  store i8 0, ptr %845, align 1, !tbaa !27
  call void @llvm.lifetime.end.p0(i64 8, ptr nonnull %3) #20
  invoke void @_ZN6dealii13ExceptionBase10set_fieldsEPKciS2_S2_S2_(ptr noundef nonnull align 8 dereferenceable(60) %36, ptr noundef nonnull @.str.2, i32 noundef 325, ptr noundef nonnull @.str.3, ptr noundef nonnull @.str.29, ptr noundef nonnull @.str.15)
          to label %846 unwind label %854

846:                                              ; preds = %841
  %847 = call ptr @__cxa_allocate_exception(i64 96) #20
  invoke void @_ZN6dealii6GridInILi3ELi3EE21ExcInvalidDBMESHInputC2ERKS2_(ptr noundef nonnull align 8 dereferenceable(96) %847, ptr noundef nonnull align 8 dereferenceable(96) %36)
          to label %848 unwind label %850

848:                                              ; preds = %846
  invoke void @__cxa_throw(ptr nonnull %847, ptr nonnull @_ZTIN6dealii6GridInILi3ELi3EE21ExcInvalidDBMESHInputE, ptr nonnull @_ZN6dealii6GridInILi3ELi3EE21ExcInvalidDBMESHInputD2Ev) #21
          to label %849 unwind label %854

849:                                              ; preds = %848
  unreachable

850:                                              ; preds = %846
  %851 = landingpad { ptr, i32 }
          cleanup
  call void @__cxa_free_exception(ptr %847) #20
  br label %856

852:                                              ; preds = %818
  %853 = landingpad { ptr, i32 }
          cleanup
  br label %858

854:                                              ; preds = %848, %841
  %855 = landingpad { ptr, i32 }
          cleanup
  br label %856

856:                                              ; preds = %850, %854
  %857 = phi { ptr, i32 } [ %855, %854 ], [ %851, %850 ]
  call void @_ZN6dealii6GridInILi3ELi3EE21ExcInvalidDBMESHInputD2Ev(ptr noundef nonnull align 8 dereferenceable(96) %36) #20
  br label %858

858:                                              ; preds = %852, %839, %856
  %859 = phi { ptr, i32 } [ %857, %856 ], [ %853, %852 ], [ %840, %839 ]
  %860 = load ptr, ptr %37, align 8, !tbaa !34
  %861 = icmp eq ptr %860, %819
  br i1 %861, label %862, label %865

862:                                              ; preds = %858
  %863 = load i64, ptr %821, align 8, !tbaa !25
  %864 = icmp ult i64 %863, 16
  call void @llvm.assume(i1 %864)
  br label %1220

865:                                              ; preds = %858
  call void @_ZdlPv(ptr noundef %860) #22
  br label %1220

866:                                              ; preds = %799
  call void @llvm.lifetime.start.p0(i64 24, ptr nonnull %38) #20
  call void @llvm.memset.p0.i64(ptr noundef nonnull align 8 dereferenceable(24) %38, i8 0, i64 24, i1 false)
  call void @llvm.lifetime.start.p0(i64 48, ptr nonnull %39) #20
  call void @llvm.memset.p0.i64(ptr noundef nonnull align 8 dereferenceable(48) %39, i8 0, i64 48, i1 false)
  call void @llvm.lifetime.start.p0(i64 4, ptr nonnull %40) #20
  %867 = invoke noundef nonnull align 8 dereferenceable(16) ptr @_ZNSi10_M_extractIjEERSiRT_(ptr noundef nonnull align 8 dereferenceable(16) %1, ptr noundef nonnull align 4 dereferenceable(4) %40)
          to label %868 unwind label %876

868:                                              ; preds = %866
  %869 = load i32, ptr %40, align 4, !tbaa !36
  %870 = icmp eq i32 %869, 0
  br i1 %870, label %1100, label %871

871:                                              ; preds = %868
  %872 = getelementptr inbounds %"struct.std::_Vector_base<dealii::CellData<3>, std::allocator<dealii::CellData<3> > >::_Vector_impl_data", ptr %38, i64 0, i32 1
  %873 = getelementptr inbounds %"struct.std::_Vector_base<dealii::CellData<3>, std::allocator<dealii::CellData<3> > >::_Vector_impl_data", ptr %38, i64 0, i32 2
  br label %878

874:                                              ; preds = %1141, %1142, %1147, %1150
  %875 = landingpad { ptr, i32 }
          cleanup
  br label %1213

876:                                              ; preds = %1121, %1180, %1181, %1182, %1183, %866, %1109, %1132, %1168
  %877 = landingpad { ptr, i32 }
          cleanup
  br label %1213

878:                                              ; preds = %871, %1094
  %879 = phi i32 [ 0, %871 ], [ %1095, %1094 ]
  %880 = load ptr, ptr %872, align 8, !tbaa !47
  %881 = load ptr, ptr %873, align 8, !tbaa !48
  %882 = icmp eq ptr %880, %881
  br i1 %882, label %885, label %883

883:                                              ; preds = %878
  call void @llvm.memset.p0.i64(ptr noundef nonnull align 4 dereferenceable(36) %880, i8 0, i64 36, i1 false)
  %884 = getelementptr inbounds %"struct.dealii::CellData", ptr %880, i64 1
  store ptr %884, ptr %872, align 8, !tbaa !50
  br label %922

885:                                              ; preds = %878
  %886 = load ptr, ptr %38, align 8, !tbaa !47
  %887 = ptrtoint ptr %880 to i64
  %888 = ptrtoint ptr %886 to i64
  %889 = sub i64 %887, %888
  %890 = icmp eq i64 %889, 9223372036854775800
  br i1 %890, label %891, label %893

891:                                              ; preds = %885
  invoke void @_ZSt20__throw_length_errorPKc(ptr noundef nonnull @.str.144) #21
          to label %892 unwind label %928

892:                                              ; preds = %891
  unreachable

893:                                              ; preds = %885
  %894 = sdiv exact i64 %889, 36
  %895 = call i64 @llvm.umax.i64(i64 %894, i64 1)
  %896 = add i64 %895, %894
  %897 = icmp ult i64 %896, %894
  %898 = icmp ugt i64 %896, 256204778801521550
  %899 = or i1 %897, %898
  %900 = select i1 %899, i64 256204778801521550, i64 %896
  %901 = icmp eq i64 %900, 0
  br i1 %901, label %905, label %902

902:                                              ; preds = %893
  %903 = mul nuw nsw i64 %900, 36
  %904 = invoke noalias noundef nonnull ptr @_Znwm(i64 noundef %903) #23
          to label %905 unwind label %926

905:                                              ; preds = %902, %893
  %906 = phi ptr [ null, %893 ], [ %904, %902 ]
  %907 = getelementptr inbounds %"struct.dealii::CellData", ptr %906, i64 %894
  call void @llvm.memset.p0.i64(ptr noundef nonnull align 4 dereferenceable(36) %907, i8 0, i64 36, i1 false)
  %908 = icmp sgt i64 %889, 36
  br i1 %908, label %909, label %910, !prof !51

909:                                              ; preds = %905
  call void @llvm.memmove.p0.p0.i64(ptr nonnull align 4 %906, ptr align 4 %886, i64 %889, i1 false)
  br label %914

910:                                              ; preds = %905
  %911 = icmp eq i64 %889, 36
  br i1 %911, label %912, label %914

912:                                              ; preds = %910
  call void @llvm.memcpy.p0.p0.i64(ptr noundef nonnull align 4 dereferenceable(36) %906, ptr noundef nonnull align 4 dereferenceable(36) %886, i64 36, i1 false), !tbaa.struct !52
  %913 = getelementptr inbounds %"struct.dealii::CellData", ptr %907, i64 1
  br label %917

914:                                              ; preds = %910, %909
  %915 = getelementptr inbounds %"struct.dealii::CellData", ptr %907, i64 1
  %916 = icmp eq ptr %886, null
  br i1 %916, label %919, label %917

917:                                              ; preds = %912, %914
  %918 = phi ptr [ %913, %912 ], [ %915, %914 ]
  call void @_ZdlPv(ptr noundef nonnull %886) #22
  br label %919

919:                                              ; preds = %917, %914
  %920 = phi ptr [ %915, %914 ], [ %918, %917 ]
  store ptr %906, ptr %38, align 8, !tbaa !53
  store ptr %920, ptr %872, align 8, !tbaa !50
  %921 = getelementptr inbounds %"struct.dealii::CellData", ptr %906, i64 %900
  store ptr %921, ptr %873, align 8, !tbaa !48
  br label %922

922:                                              ; preds = %919, %883
  %923 = phi ptr [ %920, %919 ], [ %884, %883 ]
  %924 = getelementptr inbounds %"struct.dealii::CellData", ptr %923, i64 -1
  %925 = invoke noundef nonnull align 8 dereferenceable(16) ptr @_ZNSi10_M_extractIjEERSiRT_(ptr noundef nonnull align 8 dereferenceable(16) %1, ptr noundef nonnull align 4 dereferenceable(4) %924)
          to label %930 unwind label %957

926:                                              ; preds = %902
  %927 = landingpad { ptr, i32 }
          cleanup
  br label %1213

928:                                              ; preds = %891
  %929 = landingpad { ptr, i32 }
          cleanup
  br label %1213

930:                                              ; preds = %922
  %931 = load ptr, ptr %872, align 8, !tbaa !47
  %932 = getelementptr inbounds %"struct.dealii::CellData", ptr %931, i64 -1
  %933 = load i32, ptr %932, align 4, !tbaa !36
  %934 = icmp eq i32 %933, 0
  br i1 %934, label %944, label %935

935:                                              ; preds = %930
  %936 = zext i32 %933 to i64
  %937 = load ptr, ptr %471, align 8, !tbaa !46
  %938 = load ptr, ptr %27, align 8, !tbaa !41
  %939 = ptrtoint ptr %937 to i64
  %940 = ptrtoint ptr %938 to i64
  %941 = sub i64 %939, %940
  %942 = sdiv exact i64 %941, 24
  %943 = icmp ult i64 %942, %936
  br i1 %943, label %944, label %965

944:                                              ; preds = %1082, %1077, %1064, %1059, %1046, %1041, %1028, %1023, %1010, %1005, %992, %987, %974, %969, %930, %935
  %945 = phi i32 [ 0, %930 ], [ %933, %935 ], [ 0, %969 ], [ %972, %974 ], [ 0, %987 ], [ %990, %992 ], [ 0, %1005 ], [ %1008, %1010 ], [ 0, %1023 ], [ %1026, %1028 ], [ 0, %1041 ], [ %1044, %1046 ], [ 0, %1059 ], [ %1062, %1064 ], [ 0, %1077 ], [ %1080, %1082 ]
  invoke void @_ZN6dealii13ExceptionBaseC2Ev(ptr noundef nonnull align 8 dereferenceable(60) %41)
          to label %946 unwind label %959

946:                                              ; preds = %944
  store ptr getelementptr inbounds ({ [6 x ptr] }, ptr @_ZTVN6dealii6GridInILi3ELi3EE21ExcInvalidVertexIndexE, i64 0, inrange i32 0, i64 2), ptr %41, align 8, !tbaa !13
  %947 = getelementptr inbounds %"class.dealii::GridIn<3>::ExcInvalidVertexIndex", ptr %41, i64 0, i32 1
  store i32 %879, ptr %947, align 4, !tbaa !54
  %948 = getelementptr inbounds %"class.dealii::GridIn<3>::ExcInvalidVertexIndex", ptr %41, i64 0, i32 2
  store i32 %945, ptr %948, align 8, !tbaa !56
  invoke void @_ZN6dealii13ExceptionBase10set_fieldsEPKciS2_S2_S2_(ptr noundef nonnull align 8 dereferenceable(60) %41, ptr noundef nonnull @.str.2, i32 noundef 343, ptr noundef nonnull @.str.3, ptr noundef nonnull @.str.30, ptr noundef nonnull @.str.10)
          to label %949 unwind label %961

949:                                              ; preds = %946
  %950 = call ptr @__cxa_allocate_exception(i64 72) #20
  invoke void @_ZN6dealii13ExceptionBaseC2ERKS0_(ptr noundef nonnull align 8 dereferenceable(60) %950, ptr noundef nonnull align 8 dereferenceable(60) %41)
          to label %951 unwind label %955

951:                                              ; preds = %949
  store ptr getelementptr inbounds ({ [6 x ptr] }, ptr @_ZTVN6dealii6GridInILi3ELi3EE21ExcInvalidVertexIndexE, i64 0, inrange i32 0, i64 2), ptr %950, align 8, !tbaa !13
  %952 = getelementptr inbounds %"class.dealii::GridIn<3>::ExcInvalidVertexIndex", ptr %950, i64 0, i32 1
  %953 = load i64, ptr %947, align 4
  store i64 %953, ptr %952, align 4
  invoke void @__cxa_throw(ptr nonnull %950, ptr nonnull @_ZTIN6dealii6GridInILi3ELi3EE21ExcInvalidVertexIndexE, ptr nonnull @_ZN6dealii6GridInILi3ELi3EE21ExcInvalidVertexIndexD2Ev) #21
          to label %954 unwind label %961

954:                                              ; preds = %951
  unreachable

955:                                              ; preds = %949
  %956 = landingpad { ptr, i32 }
          cleanup
  call void @__cxa_free_exception(ptr %950) #20
  br label %963

957:                                              ; preds = %1073, %1055, %1037, %1019, %1001, %983, %965, %922
  %958 = landingpad { ptr, i32 }
          cleanup
  br label %1213

959:                                              ; preds = %944
  %960 = landingpad { ptr, i32 }
          cleanup
  br label %1213

961:                                              ; preds = %951, %946
  %962 = landingpad { ptr, i32 }
          cleanup
  br label %963

963:                                              ; preds = %955, %961
  %964 = phi { ptr, i32 } [ %962, %961 ], [ %956, %955 ]
  call void @_ZN6dealii13ExceptionBaseD2Ev(ptr noundef nonnull align 8 dereferenceable(60) %41) #20
  br label %1213

965:                                              ; preds = %935
  %966 = add i32 %933, -1
  store i32 %966, ptr %932, align 4, !tbaa !36
  %967 = getelementptr %"struct.dealii::CellData", ptr %931, i64 -1, i32 0, i64 1
  %968 = invoke noundef nonnull align 8 dereferenceable(16) ptr @_ZNSi10_M_extractIjEERSiRT_(ptr noundef nonnull align 8 dereferenceable(16) %1, ptr noundef nonnull align 4 dereferenceable(4) %967)
          to label %969 unwind label %957

969:                                              ; preds = %965
  %970 = load ptr, ptr %872, align 8, !tbaa !47
  %971 = getelementptr %"struct.dealii::CellData", ptr %970, i64 -1, i32 0, i64 1
  %972 = load i32, ptr %971, align 4, !tbaa !36
  %973 = icmp eq i32 %972, 0
  br i1 %973, label %944, label %974

974:                                              ; preds = %969
  %975 = zext i32 %972 to i64
  %976 = load ptr, ptr %471, align 8, !tbaa !46
  %977 = load ptr, ptr %27, align 8, !tbaa !41
  %978 = ptrtoint ptr %976 to i64
  %979 = ptrtoint ptr %977 to i64
  %980 = sub i64 %978, %979
  %981 = sdiv exact i64 %980, 24
  %982 = icmp ult i64 %981, %975
  br i1 %982, label %944, label %983

983:                                              ; preds = %974
  %984 = add i32 %972, -1
  store i32 %984, ptr %971, align 4, !tbaa !36
  %985 = getelementptr %"struct.dealii::CellData", ptr %970, i64 -1, i32 0, i64 2
  %986 = invoke noundef nonnull align 8 dereferenceable(16) ptr @_ZNSi10_M_extractIjEERSiRT_(ptr noundef nonnull align 8 dereferenceable(16) %1, ptr noundef nonnull align 4 dereferenceable(4) %985)
          to label %987 unwind label %957

987:                                              ; preds = %983
  %988 = load ptr, ptr %872, align 8, !tbaa !47
  %989 = getelementptr %"struct.dealii::CellData", ptr %988, i64 -1, i32 0, i64 2
  %990 = load i32, ptr %989, align 4, !tbaa !36
  %991 = icmp eq i32 %990, 0
  br i1 %991, label %944, label %992

992:                                              ; preds = %987
  %993 = zext i32 %990 to i64
  %994 = load ptr, ptr %471, align 8, !tbaa !46
  %995 = load ptr, ptr %27, align 8, !tbaa !41
  %996 = ptrtoint ptr %994 to i64
  %997 = ptrtoint ptr %995 to i64
  %998 = sub i64 %996, %997
  %999 = sdiv exact i64 %998, 24
  %1000 = icmp ult i64 %999, %993
  br i1 %1000, label %944, label %1001

1001:                                             ; preds = %992
  %1002 = add i32 %990, -1
  store i32 %1002, ptr %989, align 4, !tbaa !36
  %1003 = getelementptr %"struct.dealii::CellData", ptr %988, i64 -1, i32 0, i64 3
  %1004 = invoke noundef nonnull align 8 dereferenceable(16) ptr @_ZNSi10_M_extractIjEERSiRT_(ptr noundef nonnull align 8 dereferenceable(16) %1, ptr noundef nonnull align 4 dereferenceable(4) %1003)
          to label %1005 unwind label %957

1005:                                             ; preds = %1001
  %1006 = load ptr, ptr %872, align 8, !tbaa !47
  %1007 = getelementptr %"struct.dealii::CellData", ptr %1006, i64 -1, i32 0, i64 3
  %1008 = load i32, ptr %1007, align 4, !tbaa !36
  %1009 = icmp eq i32 %1008, 0
  br i1 %1009, label %944, label %1010

1010:                                             ; preds = %1005
  %1011 = zext i32 %1008 to i64
  %1012 = load ptr, ptr %471, align 8, !tbaa !46
  %1013 = load ptr, ptr %27, align 8, !tbaa !41
  %1014 = ptrtoint ptr %1012 to i64
  %1015 = ptrtoint ptr %1013 to i64
  %1016 = sub i64 %1014, %1015
  %1017 = sdiv exact i64 %1016, 24
  %1018 = icmp ult i64 %1017, %1011
  br i1 %1018, label %944, label %1019

1019:                                             ; preds = %1010
  %1020 = add i32 %1008, -1
  store i32 %1020, ptr %1007, align 4, !tbaa !36
  %1021 = getelementptr %"struct.dealii::CellData", ptr %1006, i64 -1, i32 0, i64 4
  %1022 = invoke noundef nonnull align 8 dereferenceable(16) ptr @_ZNSi10_M_extractIjEERSiRT_(ptr noundef nonnull align 8 dereferenceable(16) %1, ptr noundef nonnull align 4 dereferenceable(4) %1021)
          to label %1023 unwind label %957

1023:                                             ; preds = %1019
  %1024 = load ptr, ptr %872, align 8, !tbaa !47
  %1025 = getelementptr %"struct.dealii::CellData", ptr %1024, i64 -1, i32 0, i64 4
  %1026 = load i32, ptr %1025, align 4, !tbaa !36
  %1027 = icmp eq i32 %1026, 0
  br i1 %1027, label %944, label %1028

1028:                                             ; preds = %1023
  %1029 = zext i32 %1026 to i64
  %1030 = load ptr, ptr %471, align 8, !tbaa !46
  %1031 = load ptr, ptr %27, align 8, !tbaa !41
  %1032 = ptrtoint ptr %1030 to i64
  %1033 = ptrtoint ptr %1031 to i64
  %1034 = sub i64 %1032, %1033
  %1035 = sdiv exact i64 %1034, 24
  %1036 = icmp ult i64 %1035, %1029
  br i1 %1036, label %944, label %1037

1037:                                             ; preds = %1028
  %1038 = add i32 %1026, -1
  store i32 %1038, ptr %1025, align 4, !tbaa !36
  %1039 = getelementptr %"struct.dealii::CellData", ptr %1024, i64 -1, i32 0, i64 5
  %1040 = invoke noundef nonnull align 8 dereferenceable(16) ptr @_ZNSi10_M_extractIjEERSiRT_(ptr noundef nonnull align 8 dereferenceable(16) %1, ptr noundef nonnull align 4 dereferenceable(4) %1039)
          to label %1041 unwind label %957

1041:                                             ; preds = %1037
  %1042 = load ptr, ptr %872, align 8, !tbaa !47
  %1043 = getelementptr %"struct.dealii::CellData", ptr %1042, i64 -1, i32 0, i64 5
  %1044 = load i32, ptr %1043, align 4, !tbaa !36
  %1045 = icmp eq i32 %1044, 0
  br i1 %1045, label %944, label %1046

1046:                                             ; preds = %1041
  %1047 = zext i32 %1044 to i64
  %1048 = load ptr, ptr %471, align 8, !tbaa !46
  %1049 = load ptr, ptr %27, align 8, !tbaa !41
  %1050 = ptrtoint ptr %1048 to i64
  %1051 = ptrtoint ptr %1049 to i64
  %1052 = sub i64 %1050, %1051
  %1053 = sdiv exact i64 %1052, 24
  %1054 = icmp ult i64 %1053, %1047
  br i1 %1054, label %944, label %1055

1055:                                             ; preds = %1046
  %1056 = add i32 %1044, -1
  store i32 %1056, ptr %1043, align 4, !tbaa !36
  %1057 = getelementptr %"struct.dealii::CellData", ptr %1042, i64 -1, i32 0, i64 6
  %1058 = invoke noundef nonnull align 8 dereferenceable(16) ptr @_ZNSi10_M_extractIjEERSiRT_(ptr noundef nonnull align 8 dereferenceable(16) %1, ptr noundef nonnull align 4 dereferenceable(4) %1057)
          to label %1059 unwind label %957

1059:                                             ; preds = %1055
  %1060 = load ptr, ptr %872, align 8, !tbaa !47
  %1061 = getelementptr %"struct.dealii::CellData", ptr %1060, i64 -1, i32 0, i64 6
  %1062 = load i32, ptr %1061, align 4, !tbaa !36
  %1063 = icmp eq i32 %1062, 0
  br i1 %1063, label %944, label %1064

1064:                                             ; preds = %1059
  %1065 = zext i32 %1062 to i64
  %1066 = load ptr, ptr %471, align 8, !tbaa !46
  %1067 = load ptr, ptr %27, align 8, !tbaa !41
  %1068 = ptrtoint ptr %1066 to i64
  %1069 = ptrtoint ptr %1067 to i64
  %1070 = sub i64 %1068, %1069
  %1071 = sdiv exact i64 %1070, 24
  %1072 = icmp ult i64 %1071, %1065
  br i1 %1072, label %944, label %1073

1073:                                             ; preds = %1064
  %1074 = add i32 %1062, -1
  store i32 %1074, ptr %1061, align 4, !tbaa !36
  %1075 = getelementptr %"struct.dealii::CellData", ptr %1060, i64 -1, i32 0, i64 7
  %1076 = invoke noundef nonnull align 8 dereferenceable(16) ptr @_ZNSi10_M_extractIjEERSiRT_(ptr noundef nonnull align 8 dereferenceable(16) %1, ptr noundef nonnull align 4 dereferenceable(4) %1075)
          to label %1077 unwind label %957

1077:                                             ; preds = %1073
  %1078 = load ptr, ptr %872, align 8, !tbaa !47
  %1079 = getelementptr %"struct.dealii::CellData", ptr %1078, i64 -1, i32 0, i64 7
  %1080 = load i32, ptr %1079, align 4, !tbaa !36
  %1081 = icmp eq i32 %1080, 0
  br i1 %1081, label %944, label %1082

1082:                                             ; preds = %1077
  %1083 = zext i32 %1080 to i64
  %1084 = load ptr, ptr %471, align 8, !tbaa !46
  %1085 = load ptr, ptr %27, align 8, !tbaa !41
  %1086 = ptrtoint ptr %1084 to i64
  %1087 = ptrtoint ptr %1085 to i64
  %1088 = sub i64 %1086, %1087
  %1089 = sdiv exact i64 %1088, 24
  %1090 = icmp ult i64 %1089, %1083
  br i1 %1090, label %944, label %1091

1091:                                             ; preds = %1082
  %1092 = add i32 %1080, -1
  store i32 %1092, ptr %1079, align 4, !tbaa !36
  %1093 = invoke noundef nonnull align 8 dereferenceable(16) ptr @_ZNSi10_M_extractIdEERSiRT_(ptr noundef nonnull align 8 dereferenceable(16) %1, ptr noundef nonnull align 8 dereferenceable(8) %26)
          to label %1094 unwind label %1098

1094:                                             ; preds = %1091
  %1095 = add nuw i32 %879, 1
  %1096 = load i32, ptr %40, align 4, !tbaa !36
  %1097 = icmp ult i32 %1095, %1096
  br i1 %1097, label %878, label %1100

1098:                                             ; preds = %1091
  %1099 = landingpad { ptr, i32 }
          cleanup
  br label %1213

1100:                                             ; preds = %1094, %868
  %1101 = load ptr, ptr %1, align 8, !tbaa !13
  %1102 = getelementptr i8, ptr %1101, i64 -24
  %1103 = load i64, ptr %1102, align 8
  %1104 = getelementptr inbounds i8, ptr %1, i64 %1103
  %1105 = getelementptr inbounds %"class.std::ios_base", ptr %1104, i64 0, i32 5
  %1106 = load i32, ptr %1105, align 8, !tbaa !15
  %1107 = and i32 %1106, 5
  %1108 = icmp eq i32 %1107, 0
  br i1 %1108, label %1121, label %1109

1109:                                             ; preds = %1100
  call void @llvm.memset.p0.i64(ptr noundef nonnull align 8 dereferenceable(64) %42, i8 0, i64 64, i1 false)
  invoke void @_ZN6dealii13ExceptionBaseC2Ev(ptr noundef nonnull align 8 dereferenceable(60) %42)
          to label %1110 unwind label %876

1110:                                             ; preds = %1109
  store ptr getelementptr inbounds ({ [6 x ptr] }, ptr @_ZTVN6dealii6GridInILi3ELi3EE22ExcInvalidDBMeshFormatE, i64 0, inrange i32 0, i64 2), ptr %42, align 8, !tbaa !13
  invoke void @_ZN6dealii13ExceptionBase10set_fieldsEPKciS2_S2_S2_(ptr noundef nonnull align 8 dereferenceable(60) %42, ptr noundef nonnull @.str.2, i32 noundef 351, ptr noundef nonnull @.str.3, ptr noundef nonnull @.str.4, ptr noundef nonnull @.str.23)
          to label %1111 unwind label %1117

1111:                                             ; preds = %1110
  %1112 = call ptr @__cxa_allocate_exception(i64 64) #20
  invoke void @_ZN6dealii13ExceptionBaseC2ERKS0_(ptr noundef nonnull align 8 dereferenceable(60) %1112, ptr noundef nonnull align 8 dereferenceable(60) %42)
          to label %1113 unwind label %1115

1113:                                             ; preds = %1111
  store ptr getelementptr inbounds ({ [6 x ptr] }, ptr @_ZTVN6dealii6GridInILi3ELi3EE22ExcInvalidDBMeshFormatE, i64 0, inrange i32 0, i64 2), ptr %1112, align 8, !tbaa !13
  invoke void @__cxa_throw(ptr nonnull %1112, ptr nonnull @_ZTIN6dealii6GridInILi3ELi3EE22ExcInvalidDBMeshFormatE, ptr nonnull @_ZN6dealii13ExceptionBaseD2Ev) #21
          to label %1114 unwind label %1117

1114:                                             ; preds = %1113
  unreachable

1115:                                             ; preds = %1111
  %1116 = landingpad { ptr, i32 }
          cleanup
  call void @__cxa_free_exception(ptr %1112) #20
  br label %1119

1117:                                             ; preds = %1113, %1110
  %1118 = landingpad { ptr, i32 }
          cleanup
  br label %1119

1119:                                             ; preds = %1115, %1117
  %1120 = phi { ptr, i32 } [ %1118, %1117 ], [ %1116, %1115 ]
  call void @_ZN6dealii13ExceptionBaseD2Ev(ptr noundef nonnull align 8 dereferenceable(60) %42) #20
  br label %1213

1121:                                             ; preds = %1100
  invoke void @_ZN6dealii6GridInILi3ELi3EE16skip_empty_linesERSi(ptr noundef nonnull align 8 dereferenceable(16) %1)
          to label %1122 unwind label %876

1122:                                             ; preds = %1121
  %1123 = getelementptr %"class.std::ios_base", ptr %1, i64 0, i32 5
  %1124 = load ptr, ptr %1, align 8, !tbaa !13
  %1125 = getelementptr i8, ptr %1124, i64 -24
  %1126 = load i64, ptr %1125, align 8
  br label %1127

1127:                                             ; preds = %1122, %1157
  %1128 = phi i64 [ %1126, %1122 ], [ %1156, %1157 ]
  %1129 = getelementptr i8, ptr %300, i64 %1128
  %1130 = load ptr, ptr %1129, align 8, !tbaa !28
  %1131 = icmp eq ptr %1130, null
  br i1 %1131, label %1132, label %1134

1132:                                             ; preds = %1127
  invoke void @_ZSt16__throw_bad_castv() #21
          to label %1133 unwind label %876

1133:                                             ; preds = %1132
  unreachable

1134:                                             ; preds = %1127
  %1135 = getelementptr inbounds %"class.std::ctype", ptr %1130, i64 0, i32 8
  %1136 = load i8, ptr %1135, align 8, !tbaa !31
  %1137 = icmp eq i8 %1136, 0
  br i1 %1137, label %1141, label %1138

1138:                                             ; preds = %1134
  %1139 = getelementptr inbounds %"class.std::ctype", ptr %1130, i64 0, i32 9, i64 10
  %1140 = load i8, ptr %1139, align 1, !tbaa !27
  br label %1147

1141:                                             ; preds = %1134
  invoke void @_ZNKSt5ctypeIcE13_M_widen_initEv(ptr noundef nonnull align 8 dereferenceable(570) %1130)
          to label %1142 unwind label %874

1142:                                             ; preds = %1141
  %1143 = load ptr, ptr %1130, align 8, !tbaa !13
  %1144 = getelementptr inbounds ptr, ptr %1143, i64 6
  %1145 = load ptr, ptr %1144, align 8
  %1146 = invoke noundef signext i8 %1145(ptr noundef nonnull align 8 dereferenceable(570) %1130, i8 noundef signext 10)
          to label %1147 unwind label %874

1147:                                             ; preds = %1142, %1138
  %1148 = phi i8 [ %1140, %1138 ], [ %1146, %1142 ]
  %1149 = invoke noundef nonnull align 8 dereferenceable(16) ptr @_ZSt7getlineIcSt11char_traitsIcESaIcEERSt13basic_istreamIT_T0_ES7_RNSt7__cxx1112basic_stringIS4_S5_T1_EES4_(ptr noundef nonnull align 8 dereferenceable(16) %1, ptr noundef nonnull align 8 dereferenceable(32) %16, i8 noundef signext %1148)
          to label %1150 unwind label %874

1150:                                             ; preds = %1147
  %1151 = invoke noundef i64 @_ZNKSt7__cxx1112basic_stringIcSt11char_traitsIcESaIcEE4findEPKcmm(ptr noundef nonnull align 8 dereferenceable(32) %16, ptr noundef nonnull @.str.31, i64 noundef 0, i64 noundef 3)
          to label %1152 unwind label %874

1152:                                             ; preds = %1150
  %1153 = icmp eq i64 %1151, -1
  %1154 = load ptr, ptr %1, align 8, !tbaa !13
  %1155 = getelementptr i8, ptr %1154, i64 -24
  %1156 = load i64, ptr %1155, align 8
  br i1 %1153, label %1157, label %1162

1157:                                             ; preds = %1152
  %1158 = getelementptr i8, ptr %1123, i64 %1156
  %1159 = load i32, ptr %1158, align 8, !tbaa !15
  %1160 = and i32 %1159, 5
  %1161 = icmp eq i32 %1160, 0
  br i1 %1161, label %1127, label %1162

1162:                                             ; preds = %1157, %1152
  %1163 = getelementptr inbounds i8, ptr %1, i64 %1156
  %1164 = getelementptr inbounds %"class.std::ios_base", ptr %1163, i64 0, i32 5
  %1165 = load i32, ptr %1164, align 8, !tbaa !15
  %1166 = and i32 %1165, 5
  %1167 = icmp eq i32 %1166, 0
  br i1 %1167, label %1180, label %1168

1168:                                             ; preds = %1162
  call void @llvm.memset.p0.i64(ptr noundef nonnull align 8 dereferenceable(64) %43, i8 0, i64 64, i1 false)
  invoke void @_ZN6dealii13ExceptionBaseC2Ev(ptr noundef nonnull align 8 dereferenceable(60) %43)
          to label %1169 unwind label %876

1169:                                             ; preds = %1168
  store ptr getelementptr inbounds ({ [6 x ptr] }, ptr @_ZTVN6dealii18StandardExceptions5ExcIOE, i64 0, inrange i32 0, i64 2), ptr %43, align 8, !tbaa !13
  invoke void @_ZN6dealii13ExceptionBase10set_fieldsEPKciS2_S2_S2_(ptr noundef nonnull align 8 dereferenceable(60) %43, ptr noundef nonnull @.str.2, i32 noundef 370, ptr noundef nonnull @.str.3, ptr noundef nonnull @.str.4, ptr noundef nonnull @.str.5)
          to label %1170 unwind label %1176

1170:                                             ; preds = %1169
  %1171 = call ptr @__cxa_allocate_exception(i64 64) #20
  invoke void @_ZN6dealii13ExceptionBaseC2ERKS0_(ptr noundef nonnull align 8 dereferenceable(60) %1171, ptr noundef nonnull align 8 dereferenceable(60) %43)
          to label %1172 unwind label %1174

1172:                                             ; preds = %1170
  store ptr getelementptr inbounds ({ [6 x ptr] }, ptr @_ZTVN6dealii18StandardExceptions5ExcIOE, i64 0, inrange i32 0, i64 2), ptr %1171, align 8, !tbaa !13
  invoke void @__cxa_throw(ptr nonnull %1171, ptr nonnull @_ZTIN6dealii18StandardExceptions5ExcIOE, ptr nonnull @_ZN6dealii13ExceptionBaseD2Ev) #21
          to label %1173 unwind label %1176

1173:                                             ; preds = %1172
  unreachable

1174:                                             ; preds = %1170
  %1175 = landingpad { ptr, i32 }
          cleanup
  call void @__cxa_free_exception(ptr %1171) #20
  br label %1178

1176:                                             ; preds = %1172, %1169
  %1177 = landingpad { ptr, i32 }
          cleanup
  br label %1178

1178:                                             ; preds = %1174, %1176
  %1179 = phi { ptr, i32 } [ %1177, %1176 ], [ %1175, %1174 ]
  call void @_ZN6dealii13ExceptionBaseD2Ev(ptr noundef nonnull align 8 dereferenceable(60) %43) #20
  br label %1213

1180:                                             ; preds = %1162
  invoke void @_ZN6dealii9GridTools22delete_unused_verticesILi3ELi3EEEvRSt6vectorINS_5PointIXT0_EEESaIS4_EERS2_INS_8CellDataIXT_EEESaIS9_EERNS_11SubCellDataE(ptr noundef nonnull align 8 dereferenceable(24) %27, ptr noundef nonnull align 8 dereferenceable(24) %38, ptr noundef nonnull align 8 dereferenceable(48) %39)
          to label %1181 unwind label %876

1181:                                             ; preds = %1180
  invoke void @_ZN6dealii14GridReorderingILi3ELi3EE33invert_all_cells_of_negative_gridERKSt6vectorINS_5PointILi3EEESaIS4_EERS2_INS_8CellDataILi3EEESaISA_EE(ptr noundef nonnull align 8 dereferenceable(24) %27, ptr noundef nonnull align 8 dereferenceable(24) %38)
          to label %1182 unwind label %876

1182:                                             ; preds = %1181
  invoke void @_ZN6dealii14GridReorderingILi3ELi3EE13reorder_cellsERSt6vectorINS_8CellDataILi3EEESaIS4_EE(ptr noundef nonnull align 8 dereferenceable(24) %38)
          to label %1183 unwind label %876

1183:                                             ; preds = %1182
  %1184 = load ptr, ptr %0, align 8, !tbaa !12
  %1185 = load ptr, ptr %1184, align 8, !tbaa !13
  %1186 = getelementptr inbounds ptr, ptr %1185, i64 4
  %1187 = load ptr, ptr %1186, align 8
  invoke void %1187(ptr noundef nonnull align 8 dereferenceable(8552) %1184, ptr noundef nonnull align 8 dereferenceable(24) %27, ptr noundef nonnull align 8 dereferenceable(24) %38, ptr noundef nonnull align 8 dereferenceable(48) %39)
          to label %1188 unwind label %876

1188:                                             ; preds = %1183
  call void @llvm.lifetime.end.p0(i64 4, ptr nonnull %40) #20
  %1189 = getelementptr inbounds %"struct.dealii::SubCellData", ptr %39, i64 0, i32 1
  %1190 = load ptr, ptr %1189, align 8, !tbaa !57
  %1191 = icmp eq ptr %1190, null
  br i1 %1191, label %1193, label %1192

1192:                                             ; preds = %1188
  call void @_ZdlPv(ptr noundef nonnull %1190) #22
  br label %1193

1193:                                             ; preds = %1192, %1188
  %1194 = load ptr, ptr %39, align 8, !tbaa !59
  %1195 = icmp eq ptr %1194, null
  br i1 %1195, label %1197, label %1196

1196:                                             ; preds = %1193
  call void @_ZdlPv(ptr noundef nonnull %1194) #22
  br label %1197

1197:                                             ; preds = %1196, %1193
  call void @llvm.lifetime.end.p0(i64 48, ptr nonnull %39) #20
  %1198 = load ptr, ptr %38, align 8, !tbaa !53
  %1199 = icmp eq ptr %1198, null
  br i1 %1199, label %1201, label %1200

1200:                                             ; preds = %1197
  call void @_ZdlPv(ptr noundef nonnull %1198) #22
  br label %1201

1201:                                             ; preds = %1200, %1197
  call void @llvm.lifetime.end.p0(i64 24, ptr nonnull %38) #20
  call void @llvm.lifetime.end.p0(i64 4, ptr nonnull %31) #20
  %1202 = load ptr, ptr %27, align 8, !tbaa !41
  %1203 = icmp eq ptr %1202, null
  br i1 %1203, label %1205, label %1204

1204:                                             ; preds = %1201
  call void @_ZdlPv(ptr noundef nonnull %1202) #22
  br label %1205

1205:                                             ; preds = %1204, %1201
  call void @llvm.lifetime.end.p0(i64 24, ptr nonnull %27) #20
  call void @llvm.lifetime.end.p0(i64 8, ptr nonnull %26) #20
  call void @llvm.lifetime.end.p0(i64 4, ptr nonnull %25) #20
  call void @llvm.lifetime.end.p0(i64 4, ptr nonnull %21) #20
  %1206 = load ptr, ptr %16, align 8, !tbaa !34
  %1207 = icmp eq ptr %1206, %79
  br i1 %1207, label %1208, label %1211

1208:                                             ; preds = %1205
  %1209 = load i64, ptr %80, align 8, !tbaa !25
  %1210 = icmp ult i64 %1209, 16
  call void @llvm.assume(i1 %1210)
  br label %1212

1211:                                             ; preds = %1205
  call void @_ZdlPv(ptr noundef %1206) #22
  br label %1212

1212:                                             ; preds = %1208, %1211
  call void @llvm.lifetime.end.p0(i64 32, ptr nonnull %16) #20
  ret void

1213:                                             ; preds = %926, %928, %957, %959, %874, %876, %1098, %963, %1178, %1119
  %1214 = phi { ptr, i32 } [ %1179, %1178 ], [ %1120, %1119 ], [ %1099, %1098 ], [ %964, %963 ], [ %875, %874 ], [ %877, %876 ], [ %958, %957 ], [ %960, %959 ], [ %927, %926 ], [ %929, %928 ]
  call void @llvm.lifetime.end.p0(i64 4, ptr nonnull %40) #20
  invoke void @_ZN6dealii11SubCellDataD2Ev(ptr noundef nonnull align 8 dereferenceable(48) %39)
          to label %1215 unwind label %1244

1215:                                             ; preds = %1213
  call void @llvm.lifetime.end.p0(i64 48, ptr nonnull %39) #20
  %1216 = load ptr, ptr %38, align 8, !tbaa !53
  %1217 = icmp eq ptr %1216, null
  br i1 %1217, label %1219, label %1218

1218:                                             ; preds = %1215
  call void @_ZdlPv(ptr noundef nonnull %1216) #22
  br label %1219

1219:                                             ; preds = %1218, %1215
  call void @llvm.lifetime.end.p0(i64 24, ptr nonnull %38) #20
  br label %1220

1220:                                             ; preds = %865, %862, %728, %725, %1219, %766, %745, %631, %610, %597
  %1221 = phi { ptr, i32 } [ %611, %610 ], [ %746, %745 ], [ %1214, %1219 ], [ %598, %597 ], [ %767, %766 ], [ %632, %631 ], [ %722, %725 ], [ %722, %728 ], [ %859, %862 ], [ %859, %865 ]
  call void @llvm.lifetime.end.p0(i64 4, ptr nonnull %31) #20
  br label %1222

1222:                                             ; preds = %591, %588, %461, %468, %1220, %492, %488
  %1223 = phi { ptr, i32 } [ %1221, %1220 ], [ %489, %488 ], [ %493, %492 ], [ %462, %461 ], [ %469, %468 ], [ %585, %588 ], [ %585, %591 ]
  %1224 = load ptr, ptr %27, align 8, !tbaa !41
  %1225 = icmp eq ptr %1224, null
  br i1 %1225, label %1227, label %1226

1226:                                             ; preds = %1222
  call void @_ZdlPv(ptr noundef nonnull %1224) #22
  br label %1227

1227:                                             ; preds = %1226, %1222, %449
  %1228 = phi { ptr, i32 } [ %450, %449 ], [ %1223, %1222 ], [ %1223, %1226 ]
  call void @llvm.lifetime.end.p0(i64 24, ptr nonnull %27) #20
  br label %1229

1229:                                             ; preds = %1227, %447
  %1230 = phi { ptr, i32 } [ %1228, %1227 ], [ %448, %447 ]
  call void @llvm.lifetime.end.p0(i64 8, ptr nonnull %26) #20
  call void @llvm.lifetime.end.p0(i64 4, ptr nonnull %25) #20
  br label %1231

1231:                                             ; preds = %290, %292, %425, %422, %1229, %296
  %1232 = phi { ptr, i32 } [ %1230, %1229 ], [ %297, %296 ], [ %419, %422 ], [ %419, %425 ], [ %291, %290 ], [ %293, %292 ]
  call void @llvm.lifetime.end.p0(i64 4, ptr nonnull %21) #20
  br label %1233

1233:                                             ; preds = %273, %270, %175, %172, %1231, %160
  %1234 = phi { ptr, i32 } [ %1232, %1231 ], [ %161, %160 ], [ %169, %172 ], [ %169, %175 ], [ %267, %270 ], [ %267, %273 ]
  %1235 = load ptr, ptr %16, align 8, !tbaa !34
  %1236 = icmp eq ptr %1235, %79
  br i1 %1236, label %1237, label %1240

1237:                                             ; preds = %1233
  %1238 = load i64, ptr %80, align 8, !tbaa !25
  %1239 = icmp ult i64 %1238, 16
  call void @llvm.assume(i1 %1239)
  br label %1241

1240:                                             ; preds = %1233
  call void @_ZdlPv(ptr noundef %1235) #22
  br label %1241

1241:                                             ; preds = %1240, %1237
  call void @llvm.lifetime.end.p0(i64 32, ptr nonnull %16) #20
  br label %1242

1242:                                             ; preds = %1241, %61
  %1243 = phi { ptr, i32 } [ %1234, %1241 ], [ %62, %61 ]
  resume { ptr, i32 } %1243

1244:                                             ; preds = %1213
  %1245 = landingpad { ptr, i32 }
          catch ptr null
  %1246 = extractvalue { ptr, i32 } %1245, 0
  call void @__clang_call_terminate(ptr %1246) #24
  unreachable
}

; Function Attrs: sspstrong uwtable
define weak_odr dso_local void @_ZN6dealii6GridInILi3ELi3EE8read_mshERSi(ptr noundef nonnull align 8 dereferenceable(20) %0, ptr noundef nonnull align 8 dereferenceable(16) %1) local_unnamed_addr #0 comdat align 2 personality ptr @__gxx_personality_v0 {
  %3 = alloca i64, align 8
  %4 = alloca i64, align 8
  %5 = alloca %"struct.std::pair.58", align 8
  %6 = alloca %"struct.std::pair.58", align 8
  %7 = alloca %"struct.std::pair.58", align 8
  %8 = alloca i64, align 8
  %9 = alloca i64, align 8
  %10 = alloca i64, align 8
  %11 = alloca i64, align 8
  %12 = alloca i64, align 8
  %13 = alloca i64, align 8
  %14 = alloca i64, align 8
  %15 = alloca i64, align 8
  %16 = alloca i64, align 8
  %17 = alloca i64, align 8
  %18 = alloca %"class.dealii::StandardExceptions::ExcIO", align 8
  %19 = alloca i32, align 4
  %20 = alloca i32, align 4
  %21 = alloca i32, align 4
  %22 = alloca %"class.std::__cxx11::basic_string", align 8
  %23 = alloca %"class.dealii::GridIn<3>::ExcInvalidGMSHInput", align 8
  %24 = alloca %"class.std::__cxx11::basic_string", align 8
  %25 = alloca double, align 8
  %26 = alloca i32, align 4
  %27 = alloca i32, align 4
  %28 = alloca %"class.dealii::GridIn<3>::ExcInvalidGMSHInput", align 8
  %29 = alloca %"class.std::__cxx11::basic_string", align 8
  %30 = alloca %"class.dealii::GridIn<3>::ExcInvalidGMSHInput", align 8
  %31 = alloca %"class.std::__cxx11::basic_string", align 8
  %32 = alloca %"class.std::vector.3", align 8
  %33 = alloca %"class.std::map.27", align 8
  %34 = alloca i32, align 4
  %35 = alloca [3 x double], align 16
  %36 = alloca %"class.std::allocator.23", align 1
  %37 = alloca %"class.std::allocator.23", align 1
  %38 = alloca %"class.dealii::GridIn<3>::ExcInvalidGMSHInput", align 8
  %39 = alloca %"class.std::__cxx11::basic_string", align 8
  %40 = alloca %"class.std::allocator.23", align 1
  %41 = alloca %"class.std::allocator.23", align 1
  %42 = alloca %"class.dealii::GridIn<3>::ExcInvalidGMSHInput", align 8
  %43 = alloca %"class.std::__cxx11::basic_string", align 8
  %44 = alloca %"class.std::vector.35", align 8
  %45 = alloca %"struct.dealii::SubCellData", align 8
  %46 = alloca %"class.dealii::StandardExceptions::ExcIO", align 8
  %47 = alloca i32, align 4
  %48 = alloca i32, align 4
  %49 = alloca i32, align 4
  %50 = alloca i32, align 4
  %51 = alloca %"class.dealii::StandardExceptions::ExcNotImplemented", align 8
  %52 = alloca %"class.dealii::StandardExceptions::ExcMessage", align 8
  %53 = alloca %"class.dealii::GridIn<3>::ExcInvalidVertexIndex", align 8
  %54 = alloca %"class.dealii::GridIn<3>::ExcInvalidVertexIndex", align 8
  %55 = alloca %"class.dealii::GridIn<3>::ExcGmshUnsupportedGeometry", align 8
  %56 = alloca %"class.std::allocator.23", align 1
  %57 = alloca %"class.std::allocator.23", align 1
  %58 = alloca %"class.dealii::GridIn<3>::ExcInvalidGMSHInput", align 8
  %59 = alloca %"class.std::__cxx11::basic_string", align 8
  %60 = alloca %"class.dealii::StandardExceptions::ExcIO", align 8
  %61 = load ptr, ptr %1, align 8, !tbaa !13
  %62 = getelementptr i8, ptr %61, i64 -24
  %63 = load i64, ptr %62, align 8
  %64 = getelementptr inbounds i8, ptr %1, i64 %63
  %65 = getelementptr inbounds %"class.std::ios_base", ptr %64, i64 0, i32 5
  %66 = load i32, ptr %65, align 8, !tbaa !15
  %67 = and i32 %66, 5
  %68 = icmp eq i32 %67, 0
  br i1 %68, label %80, label %69

69:                                               ; preds = %2
  call void @llvm.memset.p0.i64(ptr noundef nonnull align 8 dereferenceable(64) %18, i8 0, i64 64, i1 false)
  call void @_ZN6dealii13ExceptionBaseC2Ev(ptr noundef nonnull align 8 dereferenceable(60) %18)
  store ptr getelementptr inbounds ({ [6 x ptr] }, ptr @_ZTVN6dealii18StandardExceptions5ExcIOE, i64 0, inrange i32 0, i64 2), ptr %18, align 8, !tbaa !13
  invoke void @_ZN6dealii13ExceptionBase10set_fieldsEPKciS2_S2_S2_(ptr noundef nonnull align 8 dereferenceable(60) %18, ptr noundef nonnull @.str.2, i32 noundef 553, ptr noundef nonnull @.str.3, ptr noundef nonnull @.str.4, ptr noundef nonnull @.str.5)
          to label %70 unwind label %76

70:                                               ; preds = %69
  %71 = call ptr @__cxa_allocate_exception(i64 64) #20
  invoke void @_ZN6dealii13ExceptionBaseC2ERKS0_(ptr noundef nonnull align 8 dereferenceable(60) %71, ptr noundef nonnull align 8 dereferenceable(60) %18)
          to label %72 unwind label %74

72:                                               ; preds = %70
  store ptr getelementptr inbounds ({ [6 x ptr] }, ptr @_ZTVN6dealii18StandardExceptions5ExcIOE, i64 0, inrange i32 0, i64 2), ptr %71, align 8, !tbaa !13
  invoke void @__cxa_throw(ptr nonnull %71, ptr nonnull @_ZTIN6dealii18StandardExceptions5ExcIOE, ptr nonnull @_ZN6dealii13ExceptionBaseD2Ev) #21
          to label %73 unwind label %76

73:                                               ; preds = %72
  unreachable

74:                                               ; preds = %70
  %75 = landingpad { ptr, i32 }
          cleanup
  call void @__cxa_free_exception(ptr %71) #20
  br label %78

76:                                               ; preds = %72, %69
  %77 = landingpad { ptr, i32 }
          cleanup
  br label %78

78:                                               ; preds = %74, %76
  %79 = phi { ptr, i32 } [ %77, %76 ], [ %75, %74 ]
  call void @_ZN6dealii13ExceptionBaseD2Ev(ptr noundef nonnull align 8 dereferenceable(60) %18) #20
  br label %1741

80:                                               ; preds = %2
  call void @llvm.lifetime.start.p0(i64 4, ptr nonnull %19) #20
  call void @llvm.lifetime.start.p0(i64 4, ptr nonnull %20) #20
  call void @llvm.lifetime.start.p0(i64 4, ptr nonnull %21) #20
  call void @llvm.lifetime.start.p0(i64 32, ptr nonnull %22) #20
  %81 = getelementptr inbounds %"class.std::__cxx11::basic_string", ptr %22, i64 0, i32 2
  store ptr %81, ptr %22, align 8, !tbaa !23
  %82 = getelementptr inbounds %"class.std::__cxx11::basic_string", ptr %22, i64 0, i32 1
  store i64 0, ptr %82, align 8, !tbaa !25
  store i8 0, ptr %81, align 8, !tbaa !27
  %83 = invoke noundef nonnull align 8 dereferenceable(16) ptr @_ZStrsIcSt11char_traitsIcESaIcEERSt13basic_istreamIT_T0_ES7_RNSt7__cxx1112basic_stringIS4_S5_T1_EE(ptr noundef nonnull align 8 dereferenceable(16) %1, ptr noundef nonnull align 8 dereferenceable(32) %22)
          to label %84 unwind label %90

84:                                               ; preds = %80
  %85 = load i64, ptr %82, align 8, !tbaa !25
  switch i64 %85, label %101 [
    i64 4, label %86
    i64 11, label %94
  ]

86:                                               ; preds = %84
  %87 = load ptr, ptr %22, align 8, !tbaa !34
  %88 = call i32 @bcmp(ptr noundef nonnull dereferenceable(4) %87, ptr noundef nonnull dereferenceable(4) @.str.32, i64 4)
  %89 = icmp eq i32 %88, 0
  br i1 %89, label %320, label %98

90:                                               ; preds = %80
  %91 = landingpad { ptr, i32 }
          cleanup
  br label %1732

92:                                               ; preds = %320, %105
  %93 = landingpad { ptr, i32 }
          cleanup
  br label %1732

94:                                               ; preds = %84
  %95 = load ptr, ptr %22, align 8, !tbaa !34
  %96 = call i32 @bcmp(ptr %95, ptr nonnull @.str.33, i64 %85)
  %97 = icmp eq i32 %96, 0
  br i1 %97, label %163, label %98

98:                                               ; preds = %86, %94
  %99 = phi ptr [ %87, %86 ], [ %95, %94 ]
  %100 = getelementptr inbounds %"class.std::__cxx11::basic_string", ptr %24, i64 0, i32 2
  store ptr %100, ptr %24, align 8, !tbaa !23
  call void @llvm.lifetime.start.p0(i64 8, ptr nonnull %17) #20
  store i64 %85, ptr %17, align 8, !tbaa !35
  br label %109

101:                                              ; preds = %84
  %102 = load ptr, ptr %22, align 8, !tbaa !34
  %103 = getelementptr inbounds %"class.std::__cxx11::basic_string", ptr %24, i64 0, i32 2
  store ptr %103, ptr %24, align 8, !tbaa !23
  call void @llvm.lifetime.start.p0(i64 8, ptr nonnull %17) #20
  store i64 %85, ptr %17, align 8, !tbaa !35
  %104 = icmp ugt i64 %85, 15
  br i1 %104, label %105, label %109

105:                                              ; preds = %101
  %106 = invoke noundef ptr @_ZNSt7__cxx1112basic_stringIcSt11char_traitsIcESaIcEE9_M_createERmm(ptr noundef nonnull align 8 dereferenceable(32) %24, ptr noundef nonnull align 8 dereferenceable(8) %17, i64 noundef 0)
          to label %107 unwind label %92

107:                                              ; preds = %105
  store ptr %106, ptr %24, align 8, !tbaa !34
  %108 = load i64, ptr %17, align 8, !tbaa !35
  store i64 %108, ptr %103, align 8, !tbaa !27
  br label %109

109:                                              ; preds = %98, %107, %101
  %110 = phi ptr [ %103, %107 ], [ %103, %101 ], [ %100, %98 ]
  %111 = phi ptr [ %102, %107 ], [ %102, %101 ], [ %99, %98 ]
  %112 = phi ptr [ %106, %107 ], [ %103, %101 ], [ %100, %98 ]
  switch i64 %85, label %115 [
    i64 1, label %113
    i64 0, label %116
  ]

113:                                              ; preds = %109
  %114 = load i8, ptr %111, align 1, !tbaa !27
  store i8 %114, ptr %112, align 1, !tbaa !27
  br label %116

115:                                              ; preds = %109
  call void @llvm.memcpy.p0.p0.i64(ptr align 1 %112, ptr align 1 %111, i64 %85, i1 false)
  br label %116

116:                                              ; preds = %115, %113, %109
  %117 = load i64, ptr %17, align 8, !tbaa !35
  %118 = getelementptr inbounds %"class.std::__cxx11::basic_string", ptr %24, i64 0, i32 1
  store i64 %117, ptr %118, align 8, !tbaa !25
  %119 = load ptr, ptr %24, align 8, !tbaa !34
  %120 = getelementptr inbounds i8, ptr %119, i64 %117
  store i8 0, ptr %120, align 1, !tbaa !27
  call void @llvm.lifetime.end.p0(i64 8, ptr nonnull %17) #20
  invoke void @_ZN6dealii13ExceptionBaseC2Ev(ptr noundef nonnull align 8 dereferenceable(60) %23)
          to label %121 unwind label %149

121:                                              ; preds = %116
  store ptr getelementptr inbounds ({ [6 x ptr] }, ptr @_ZTVN6dealii6GridInILi3ELi3EE19ExcInvalidGMSHInputE, i64 0, inrange i32 0, i64 2), ptr %23, align 8, !tbaa !13
  %122 = getelementptr inbounds %"class.dealii::GridIn<3>::ExcInvalidGMSHInput", ptr %23, i64 0, i32 1
  %123 = getelementptr inbounds %"class.dealii::GridIn<3>::ExcInvalidGMSHInput", ptr %23, i64 0, i32 1, i32 2
  store ptr %123, ptr %122, align 8, !tbaa !23
  %124 = load ptr, ptr %24, align 8, !tbaa !34
  %125 = load i64, ptr %118, align 8, !tbaa !25
  call void @llvm.lifetime.start.p0(i64 8, ptr nonnull %16) #20
  store i64 %125, ptr %16, align 8, !tbaa !35
  %126 = icmp ugt i64 %125, 15
  br i1 %126, label %127, label %131

127:                                              ; preds = %121
  %128 = invoke noundef ptr @_ZNSt7__cxx1112basic_stringIcSt11char_traitsIcESaIcEE9_M_createERmm(ptr noundef nonnull align 8 dereferenceable(32) %122, ptr noundef nonnull align 8 dereferenceable(8) %16, i64 noundef 0)
          to label %129 unwind label %136

129:                                              ; preds = %127
  store ptr %128, ptr %122, align 8, !tbaa !34
  %130 = load i64, ptr %16, align 8, !tbaa !35
  store i64 %130, ptr %123, align 8, !tbaa !27
  br label %131

131:                                              ; preds = %129, %121
  %132 = phi ptr [ %128, %129 ], [ %123, %121 ]
  switch i64 %125, label %135 [
    i64 1, label %133
    i64 0, label %138
  ]

133:                                              ; preds = %131
  %134 = load i8, ptr %124, align 1, !tbaa !27
  store i8 %134, ptr %132, align 1, !tbaa !27
  br label %138

135:                                              ; preds = %131
  call void @llvm.memcpy.p0.p0.i64(ptr align 1 %132, ptr align 1 %124, i64 %125, i1 false)
  br label %138

136:                                              ; preds = %127
  %137 = landingpad { ptr, i32 }
          cleanup
  call void @_ZN6dealii13ExceptionBaseD2Ev(ptr noundef nonnull align 8 dereferenceable(60) %23) #20
  br label %155

138:                                              ; preds = %135, %133, %131
  %139 = load i64, ptr %16, align 8, !tbaa !35
  %140 = getelementptr inbounds %"class.dealii::GridIn<3>::ExcInvalidGMSHInput", ptr %23, i64 0, i32 1, i32 1
  store i64 %139, ptr %140, align 8, !tbaa !25
  %141 = load ptr, ptr %122, align 8, !tbaa !34
  %142 = getelementptr inbounds i8, ptr %141, i64 %139
  store i8 0, ptr %142, align 1, !tbaa !27
  call void @llvm.lifetime.end.p0(i64 8, ptr nonnull %16) #20
  invoke void @_ZN6dealii13ExceptionBase10set_fieldsEPKciS2_S2_S2_(ptr noundef nonnull align 8 dereferenceable(60) %23, ptr noundef nonnull @.str.2, i32 noundef 569, ptr noundef nonnull @.str.3, ptr noundef nonnull @.str.9, ptr noundef nonnull @.str.34)
          to label %143 unwind label %151

143:                                              ; preds = %138
  %144 = call ptr @__cxa_allocate_exception(i64 96) #20
  invoke void @_ZN6dealii6GridInILi3ELi3EE19ExcInvalidGMSHInputC2ERKS2_(ptr noundef nonnull align 8 dereferenceable(96) %144, ptr noundef nonnull align 8 dereferenceable(96) %23)
          to label %145 unwind label %147

145:                                              ; preds = %143
  invoke void @__cxa_throw(ptr nonnull %144, ptr nonnull @_ZTIN6dealii6GridInILi3ELi3EE19ExcInvalidGMSHInputE, ptr nonnull @_ZN6dealii6GridInILi3ELi3EE19ExcInvalidGMSHInputD2Ev) #21
          to label %146 unwind label %151

146:                                              ; preds = %145
  unreachable

147:                                              ; preds = %143
  %148 = landingpad { ptr, i32 }
          cleanup
  call void @__cxa_free_exception(ptr %144) #20
  br label %153

149:                                              ; preds = %116
  %150 = landingpad { ptr, i32 }
          cleanup
  br label %155

151:                                              ; preds = %145, %138
  %152 = landingpad { ptr, i32 }
          cleanup
  br label %153

153:                                              ; preds = %147, %151
  %154 = phi { ptr, i32 } [ %152, %151 ], [ %148, %147 ]
  call void @_ZN6dealii6GridInILi3ELi3EE19ExcInvalidGMSHInputD2Ev(ptr noundef nonnull align 8 dereferenceable(96) %23) #20
  br label %155

155:                                              ; preds = %149, %136, %153
  %156 = phi { ptr, i32 } [ %154, %153 ], [ %150, %149 ], [ %137, %136 ]
  %157 = load ptr, ptr %24, align 8, !tbaa !34
  %158 = icmp eq ptr %157, %110
  br i1 %158, label %159, label %162

159:                                              ; preds = %155
  %160 = load i64, ptr %118, align 8, !tbaa !25
  %161 = icmp ult i64 %160, 16
  call void @llvm.assume(i1 %161)
  br label %1732

162:                                              ; preds = %155
  call void @_ZdlPv(ptr noundef %157) #22
  br label %1732

163:                                              ; preds = %94
  call void @llvm.lifetime.start.p0(i64 8, ptr nonnull %25) #20
  call void @llvm.lifetime.start.p0(i64 4, ptr nonnull %26) #20
  call void @llvm.lifetime.start.p0(i64 4, ptr nonnull %27) #20
  %164 = invoke noundef nonnull align 8 dereferenceable(16) ptr @_ZNSi10_M_extractIdEERSiRT_(ptr noundef nonnull align 8 dereferenceable(16) %1, ptr noundef nonnull align 8 dereferenceable(8) %25)
          to label %165 unwind label %228

165:                                              ; preds = %163
  %166 = invoke noundef nonnull align 8 dereferenceable(16) ptr @_ZNSi10_M_extractIjEERSiRT_(ptr noundef nonnull align 8 dereferenceable(16) %164, ptr noundef nonnull align 4 dereferenceable(4) %26)
          to label %167 unwind label %228

167:                                              ; preds = %165
  %168 = invoke noundef nonnull align 8 dereferenceable(16) ptr @_ZNSi10_M_extractIjEERSiRT_(ptr noundef nonnull align 8 dereferenceable(16) %166, ptr noundef nonnull align 4 dereferenceable(4) %27)
          to label %169 unwind label %228

169:                                              ; preds = %167
  %170 = invoke noundef nonnull align 8 dereferenceable(16) ptr @_ZStrsIcSt11char_traitsIcESaIcEERSt13basic_istreamIT_T0_ES7_RNSt7__cxx1112basic_stringIS4_S5_T1_EE(ptr noundef nonnull align 8 dereferenceable(16) %1, ptr noundef nonnull align 8 dereferenceable(32) %22)
          to label %171 unwind label %228

171:                                              ; preds = %169
  %172 = load i64, ptr %82, align 8, !tbaa !25
  %173 = icmp eq i64 %172, 14
  %174 = load ptr, ptr %22, align 8, !tbaa !34
  br i1 %173, label %175, label %180

175:                                              ; preds = %171
  %176 = call i32 @bcmp(ptr noundef nonnull dereferenceable(14) %174, ptr noundef nonnull dereferenceable(14) @.str.35, i64 14)
  %177 = icmp eq i32 %176, 0
  br i1 %177, label %244, label %178

178:                                              ; preds = %175
  %179 = getelementptr inbounds %"class.std::__cxx11::basic_string", ptr %29, i64 0, i32 2
  store ptr %179, ptr %29, align 8, !tbaa !23
  call void @llvm.lifetime.start.p0(i64 8, ptr nonnull %15) #20
  store i64 %172, ptr %15, align 8, !tbaa !35
  br label %191

180:                                              ; preds = %171
  %181 = getelementptr inbounds %"class.std::__cxx11::basic_string", ptr %29, i64 0, i32 2
  store ptr %181, ptr %29, align 8, !tbaa !23
  call void @llvm.lifetime.start.p0(i64 8, ptr nonnull %15) #20
  store i64 %172, ptr %15, align 8, !tbaa !35
  %182 = icmp ugt i64 %172, 15
  br i1 %182, label %183, label %187

183:                                              ; preds = %180
  %184 = invoke noundef ptr @_ZNSt7__cxx1112basic_stringIcSt11char_traitsIcESaIcEE9_M_createERmm(ptr noundef nonnull align 8 dereferenceable(32) %29, ptr noundef nonnull align 8 dereferenceable(8) %15, i64 noundef 0)
          to label %185 unwind label %228

185:                                              ; preds = %183
  store ptr %184, ptr %29, align 8, !tbaa !34
  %186 = load i64, ptr %15, align 8, !tbaa !35
  store i64 %186, ptr %181, align 8, !tbaa !27
  br label %187

187:                                              ; preds = %185, %180
  %188 = phi ptr [ %184, %185 ], [ %181, %180 ]
  switch i64 %172, label %191 [
    i64 1, label %189
    i64 0, label %194
  ]

189:                                              ; preds = %187
  %190 = load i8, ptr %174, align 1, !tbaa !27
  store i8 %190, ptr %188, align 1, !tbaa !27
  br label %194

191:                                              ; preds = %178, %187
  %192 = phi ptr [ %179, %178 ], [ %188, %187 ]
  %193 = phi ptr [ %179, %178 ], [ %181, %187 ]
  call void @llvm.memcpy.p0.p0.i64(ptr align 1 %192, ptr align 1 %174, i64 %172, i1 false)
  br label %194

194:                                              ; preds = %191, %189, %187
  %195 = phi ptr [ %193, %191 ], [ %181, %189 ], [ %181, %187 ]
  %196 = load i64, ptr %15, align 8, !tbaa !35
  %197 = getelementptr inbounds %"class.std::__cxx11::basic_string", ptr %29, i64 0, i32 1
  store i64 %196, ptr %197, align 8, !tbaa !25
  %198 = load ptr, ptr %29, align 8, !tbaa !34
  %199 = getelementptr inbounds i8, ptr %198, i64 %196
  store i8 0, ptr %199, align 1, !tbaa !27
  call void @llvm.lifetime.end.p0(i64 8, ptr nonnull %15) #20
  invoke void @_ZN6dealii13ExceptionBaseC2Ev(ptr noundef nonnull align 8 dereferenceable(60) %28)
          to label %200 unwind label %230

200:                                              ; preds = %194
  store ptr getelementptr inbounds ({ [6 x ptr] }, ptr @_ZTVN6dealii6GridInILi3ELi3EE19ExcInvalidGMSHInputE, i64 0, inrange i32 0, i64 2), ptr %28, align 8, !tbaa !13
  %201 = getelementptr inbounds %"class.dealii::GridIn<3>::ExcInvalidGMSHInput", ptr %28, i64 0, i32 1
  %202 = getelementptr inbounds %"class.dealii::GridIn<3>::ExcInvalidGMSHInput", ptr %28, i64 0, i32 1, i32 2
  store ptr %202, ptr %201, align 8, !tbaa !23
  %203 = load ptr, ptr %29, align 8, !tbaa !34
  %204 = load i64, ptr %197, align 8, !tbaa !25
  call void @llvm.lifetime.start.p0(i64 8, ptr nonnull %14) #20
  store i64 %204, ptr %14, align 8, !tbaa !35
  %205 = icmp ugt i64 %204, 15
  br i1 %205, label %206, label %210

206:                                              ; preds = %200
  %207 = invoke noundef ptr @_ZNSt7__cxx1112basic_stringIcSt11char_traitsIcESaIcEE9_M_createERmm(ptr noundef nonnull align 8 dereferenceable(32) %201, ptr noundef nonnull align 8 dereferenceable(8) %14, i64 noundef 0)
          to label %208 unwind label %215

208:                                              ; preds = %206
  store ptr %207, ptr %201, align 8, !tbaa !34
  %209 = load i64, ptr %14, align 8, !tbaa !35
  store i64 %209, ptr %202, align 8, !tbaa !27
  br label %210

210:                                              ; preds = %208, %200
  %211 = phi ptr [ %207, %208 ], [ %202, %200 ]
  switch i64 %204, label %214 [
    i64 1, label %212
    i64 0, label %217
  ]

212:                                              ; preds = %210
  %213 = load i8, ptr %203, align 1, !tbaa !27
  store i8 %213, ptr %211, align 1, !tbaa !27
  br label %217

214:                                              ; preds = %210
  call void @llvm.memcpy.p0.p0.i64(ptr align 1 %211, ptr align 1 %203, i64 %204, i1 false)
  br label %217

215:                                              ; preds = %206
  %216 = landingpad { ptr, i32 }
          cleanup
  call void @_ZN6dealii13ExceptionBaseD2Ev(ptr noundef nonnull align 8 dereferenceable(60) %28) #20
  br label %236

217:                                              ; preds = %214, %212, %210
  %218 = load i64, ptr %14, align 8, !tbaa !35
  %219 = getelementptr inbounds %"class.dealii::GridIn<3>::ExcInvalidGMSHInput", ptr %28, i64 0, i32 1, i32 1
  store i64 %218, ptr %219, align 8, !tbaa !25
  %220 = load ptr, ptr %201, align 8, !tbaa !34
  %221 = getelementptr inbounds i8, ptr %220, i64 %218
  store i8 0, ptr %221, align 1, !tbaa !27
  call void @llvm.lifetime.end.p0(i64 8, ptr nonnull %14) #20
  invoke void @_ZN6dealii13ExceptionBase10set_fieldsEPKciS2_S2_S2_(ptr noundef nonnull align 8 dereferenceable(60) %28, ptr noundef nonnull @.str.2, i32 noundef 592, ptr noundef nonnull @.str.3, ptr noundef nonnull @.str.36, ptr noundef nonnull @.str.34)
          to label %222 unwind label %232

222:                                              ; preds = %217
  %223 = call ptr @__cxa_allocate_exception(i64 96) #20
  invoke void @_ZN6dealii6GridInILi3ELi3EE19ExcInvalidGMSHInputC2ERKS2_(ptr noundef nonnull align 8 dereferenceable(96) %223, ptr noundef nonnull align 8 dereferenceable(96) %28)
          to label %224 unwind label %226

224:                                              ; preds = %222
  invoke void @__cxa_throw(ptr nonnull %223, ptr nonnull @_ZTIN6dealii6GridInILi3ELi3EE19ExcInvalidGMSHInputE, ptr nonnull @_ZN6dealii6GridInILi3ELi3EE19ExcInvalidGMSHInputD2Ev) #21
          to label %225 unwind label %232

225:                                              ; preds = %224
  unreachable

226:                                              ; preds = %222
  %227 = landingpad { ptr, i32 }
          cleanup
  call void @__cxa_free_exception(ptr %223) #20
  br label %234

228:                                              ; preds = %258, %183, %167, %165, %163, %244, %169
  %229 = landingpad { ptr, i32 }
          cleanup
  br label %318

230:                                              ; preds = %194
  %231 = landingpad { ptr, i32 }
          cleanup
  br label %236

232:                                              ; preds = %224, %217
  %233 = landingpad { ptr, i32 }
          cleanup
  br label %234

234:                                              ; preds = %226, %232
  %235 = phi { ptr, i32 } [ %233, %232 ], [ %227, %226 ]
  call void @_ZN6dealii6GridInILi3ELi3EE19ExcInvalidGMSHInputD2Ev(ptr noundef nonnull align 8 dereferenceable(96) %28) #20
  br label %236

236:                                              ; preds = %230, %215, %234
  %237 = phi { ptr, i32 } [ %235, %234 ], [ %231, %230 ], [ %216, %215 ]
  %238 = load ptr, ptr %29, align 8, !tbaa !34
  %239 = icmp eq ptr %238, %195
  br i1 %239, label %240, label %243

240:                                              ; preds = %236
  %241 = load i64, ptr %197, align 8, !tbaa !25
  %242 = icmp ult i64 %241, 16
  call void @llvm.assume(i1 %242)
  br label %318

243:                                              ; preds = %236
  call void @_ZdlPv(ptr noundef %238) #22
  br label %318

244:                                              ; preds = %175
  %245 = invoke noundef nonnull align 8 dereferenceable(16) ptr @_ZStrsIcSt11char_traitsIcESaIcEERSt13basic_istreamIT_T0_ES7_RNSt7__cxx1112basic_stringIS4_S5_T1_EE(ptr noundef nonnull align 8 dereferenceable(16) %1, ptr noundef nonnull align 8 dereferenceable(32) %22)
          to label %246 unwind label %228

246:                                              ; preds = %244
  %247 = load i64, ptr %82, align 8, !tbaa !25
  %248 = icmp eq i64 %247, 6
  %249 = load ptr, ptr %22, align 8, !tbaa !34
  br i1 %248, label %250, label %255

250:                                              ; preds = %246
  %251 = call i32 @bcmp(ptr noundef nonnull dereferenceable(6) %249, ptr noundef nonnull dereferenceable(6) @.str.37, i64 6)
  %252 = icmp eq i32 %251, 0
  br i1 %252, label %317, label %253

253:                                              ; preds = %250
  %254 = getelementptr inbounds %"class.std::__cxx11::basic_string", ptr %31, i64 0, i32 2
  store ptr %254, ptr %31, align 8, !tbaa !23
  call void @llvm.lifetime.start.p0(i64 8, ptr nonnull %13) #20
  store i64 %247, ptr %13, align 8, !tbaa !35
  br label %266

255:                                              ; preds = %246
  %256 = getelementptr inbounds %"class.std::__cxx11::basic_string", ptr %31, i64 0, i32 2
  store ptr %256, ptr %31, align 8, !tbaa !23
  call void @llvm.lifetime.start.p0(i64 8, ptr nonnull %13) #20
  store i64 %247, ptr %13, align 8, !tbaa !35
  %257 = icmp ugt i64 %247, 15
  br i1 %257, label %258, label %262

258:                                              ; preds = %255
  %259 = invoke noundef ptr @_ZNSt7__cxx1112basic_stringIcSt11char_traitsIcESaIcEE9_M_createERmm(ptr noundef nonnull align 8 dereferenceable(32) %31, ptr noundef nonnull align 8 dereferenceable(8) %13, i64 noundef 0)
          to label %260 unwind label %228

260:                                              ; preds = %258
  store ptr %259, ptr %31, align 8, !tbaa !34
  %261 = load i64, ptr %13, align 8, !tbaa !35
  store i64 %261, ptr %256, align 8, !tbaa !27
  br label %262

262:                                              ; preds = %260, %255
  %263 = phi ptr [ %259, %260 ], [ %256, %255 ]
  switch i64 %247, label %266 [
    i64 1, label %264
    i64 0, label %269
  ]

264:                                              ; preds = %262
  %265 = load i8, ptr %249, align 1, !tbaa !27
  store i8 %265, ptr %263, align 1, !tbaa !27
  br label %269

266:                                              ; preds = %253, %262
  %267 = phi ptr [ %254, %253 ], [ %263, %262 ]
  %268 = phi ptr [ %254, %253 ], [ %256, %262 ]
  call void @llvm.memcpy.p0.p0.i64(ptr align 1 %267, ptr align 1 %249, i64 %247, i1 false)
  br label %269

269:                                              ; preds = %266, %264, %262
  %270 = phi ptr [ %268, %266 ], [ %256, %264 ], [ %256, %262 ]
  %271 = load i64, ptr %13, align 8, !tbaa !35
  %272 = getelementptr inbounds %"class.std::__cxx11::basic_string", ptr %31, i64 0, i32 1
  store i64 %271, ptr %272, align 8, !tbaa !25
  %273 = load ptr, ptr %31, align 8, !tbaa !34
  %274 = getelementptr inbounds i8, ptr %273, i64 %271
  store i8 0, ptr %274, align 1, !tbaa !27
  call void @llvm.lifetime.end.p0(i64 8, ptr nonnull %13) #20
  invoke void @_ZN6dealii13ExceptionBaseC2Ev(ptr noundef nonnull align 8 dereferenceable(60) %30)
          to label %275 unwind label %303

275:                                              ; preds = %269
  store ptr getelementptr inbounds ({ [6 x ptr] }, ptr @_ZTVN6dealii6GridInILi3ELi3EE19ExcInvalidGMSHInputE, i64 0, inrange i32 0, i64 2), ptr %30, align 8, !tbaa !13
  %276 = getelementptr inbounds %"class.dealii::GridIn<3>::ExcInvalidGMSHInput", ptr %30, i64 0, i32 1
  %277 = getelementptr inbounds %"class.dealii::GridIn<3>::ExcInvalidGMSHInput", ptr %30, i64 0, i32 1, i32 2
  store ptr %277, ptr %276, align 8, !tbaa !23
  %278 = load ptr, ptr %31, align 8, !tbaa !34
  %279 = load i64, ptr %272, align 8, !tbaa !25
  call void @llvm.lifetime.start.p0(i64 8, ptr nonnull %12) #20
  store i64 %279, ptr %12, align 8, !tbaa !35
  %280 = icmp ugt i64 %279, 15
  br i1 %280, label %281, label %285

281:                                              ; preds = %275
  %282 = invoke noundef ptr @_ZNSt7__cxx1112basic_stringIcSt11char_traitsIcESaIcEE9_M_createERmm(ptr noundef nonnull align 8 dereferenceable(32) %276, ptr noundef nonnull align 8 dereferenceable(8) %12, i64 noundef 0)
          to label %283 unwind label %290

283:                                              ; preds = %281
  store ptr %282, ptr %276, align 8, !tbaa !34
  %284 = load i64, ptr %12, align 8, !tbaa !35
  store i64 %284, ptr %277, align 8, !tbaa !27
  br label %285

285:                                              ; preds = %283, %275
  %286 = phi ptr [ %282, %283 ], [ %277, %275 ]
  switch i64 %279, label %289 [
    i64 1, label %287
    i64 0, label %292
  ]

287:                                              ; preds = %285
  %288 = load i8, ptr %278, align 1, !tbaa !27
  store i8 %288, ptr %286, align 1, !tbaa !27
  br label %292

289:                                              ; preds = %285
  call void @llvm.memcpy.p0.p0.i64(ptr align 1 %286, ptr align 1 %278, i64 %279, i1 false)
  br label %292

290:                                              ; preds = %281
  %291 = landingpad { ptr, i32 }
          cleanup
  call void @_ZN6dealii13ExceptionBaseD2Ev(ptr noundef nonnull align 8 dereferenceable(60) %30) #20
  br label %309

292:                                              ; preds = %289, %287, %285
  %293 = load i64, ptr %12, align 8, !tbaa !35
  %294 = getelementptr inbounds %"class.dealii::GridIn<3>::ExcInvalidGMSHInput", ptr %30, i64 0, i32 1, i32 1
  store i64 %293, ptr %294, align 8, !tbaa !25
  %295 = load ptr, ptr %276, align 8, !tbaa !34
  %296 = getelementptr inbounds i8, ptr %295, i64 %293
  store i8 0, ptr %296, align 1, !tbaa !27
  call void @llvm.lifetime.end.p0(i64 8, ptr nonnull %12) #20
  invoke void @_ZN6dealii13ExceptionBase10set_fieldsEPKciS2_S2_S2_(ptr noundef nonnull align 8 dereferenceable(60) %30, ptr noundef nonnull @.str.2, i32 noundef 596, ptr noundef nonnull @.str.3, ptr noundef nonnull @.str.38, ptr noundef nonnull @.str.34)
          to label %297 unwind label %305

297:                                              ; preds = %292
  %298 = call ptr @__cxa_allocate_exception(i64 96) #20
  invoke void @_ZN6dealii6GridInILi3ELi3EE19ExcInvalidGMSHInputC2ERKS2_(ptr noundef nonnull align 8 dereferenceable(96) %298, ptr noundef nonnull align 8 dereferenceable(96) %30)
          to label %299 unwind label %301

299:                                              ; preds = %297
  invoke void @__cxa_throw(ptr nonnull %298, ptr nonnull @_ZTIN6dealii6GridInILi3ELi3EE19ExcInvalidGMSHInputE, ptr nonnull @_ZN6dealii6GridInILi3ELi3EE19ExcInvalidGMSHInputD2Ev) #21
          to label %300 unwind label %305

300:                                              ; preds = %299
  unreachable

301:                                              ; preds = %297
  %302 = landingpad { ptr, i32 }
          cleanup
  call void @__cxa_free_exception(ptr %298) #20
  br label %307

303:                                              ; preds = %269
  %304 = landingpad { ptr, i32 }
          cleanup
  br label %309

305:                                              ; preds = %299, %292
  %306 = landingpad { ptr, i32 }
          cleanup
  br label %307

307:                                              ; preds = %301, %305
  %308 = phi { ptr, i32 } [ %306, %305 ], [ %302, %301 ]
  call void @_ZN6dealii6GridInILi3ELi3EE19ExcInvalidGMSHInputD2Ev(ptr noundef nonnull align 8 dereferenceable(96) %30) #20
  br label %309

309:                                              ; preds = %303, %290, %307
  %310 = phi { ptr, i32 } [ %308, %307 ], [ %304, %303 ], [ %291, %290 ]
  %311 = load ptr, ptr %31, align 8, !tbaa !34
  %312 = icmp eq ptr %311, %270
  br i1 %312, label %313, label %316

313:                                              ; preds = %309
  %314 = load i64, ptr %272, align 8, !tbaa !25
  %315 = icmp ult i64 %314, 16
  call void @llvm.assume(i1 %315)
  br label %318

316:                                              ; preds = %309
  call void @_ZdlPv(ptr noundef %311) #22
  br label %318

317:                                              ; preds = %250
  call void @llvm.lifetime.end.p0(i64 4, ptr nonnull %27) #20
  call void @llvm.lifetime.end.p0(i64 4, ptr nonnull %26) #20
  call void @llvm.lifetime.end.p0(i64 8, ptr nonnull %25) #20
  br label %320

318:                                              ; preds = %316, %313, %243, %240, %228
  %319 = phi { ptr, i32 } [ %229, %228 ], [ %237, %240 ], [ %237, %243 ], [ %310, %313 ], [ %310, %316 ]
  call void @llvm.lifetime.end.p0(i64 4, ptr nonnull %27) #20
  call void @llvm.lifetime.end.p0(i64 4, ptr nonnull %26) #20
  call void @llvm.lifetime.end.p0(i64 8, ptr nonnull %25) #20
  br label %1732

320:                                              ; preds = %86, %317
  %321 = phi i32 [ 2, %317 ], [ 1, %86 ]
  %322 = invoke noundef nonnull align 8 dereferenceable(16) ptr @_ZNSi10_M_extractIjEERSiRT_(ptr noundef nonnull align 8 dereferenceable(16) %1, ptr noundef nonnull align 4 dereferenceable(4) %19)
          to label %323 unwind label %92

323:                                              ; preds = %320
  call void @llvm.lifetime.start.p0(i64 24, ptr nonnull %32) #20
  %324 = load i32, ptr %19, align 4, !tbaa !36
  %325 = zext i32 %324 to i64
  %326 = icmp eq i32 %324, 0
  br i1 %326, label %327, label %333

327:                                              ; preds = %323
  call void @llvm.memset.p0.i64(ptr noundef nonnull align 8 dereferenceable(24) %32, i8 0, i64 24, i1 false)
  call void @llvm.lifetime.start.p0(i64 48, ptr nonnull %33) #20
  %328 = getelementptr inbounds i8, ptr %33, i64 8
  store i32 0, ptr %328, align 8, !tbaa !61
  %329 = getelementptr inbounds i8, ptr %33, i64 16
  store ptr null, ptr %329, align 8, !tbaa !65
  %330 = getelementptr inbounds i8, ptr %33, i64 24
  store ptr %328, ptr %330, align 8, !tbaa !66
  %331 = getelementptr inbounds i8, ptr %33, i64 32
  store ptr %328, ptr %331, align 8, !tbaa !67
  %332 = getelementptr inbounds i8, ptr %33, i64 40
  store i64 0, ptr %332, align 8, !tbaa !68
  br label %348

333:                                              ; preds = %323
  %334 = mul nuw nsw i64 %325, 24
  %335 = invoke noalias noundef nonnull ptr @_Znwm(i64 noundef %334) #23
          to label %336 unwind label %353

336:                                              ; preds = %333
  store ptr %335, ptr %32, align 8, !tbaa !41
  %337 = getelementptr inbounds %"class.dealii::Point", ptr %335, i64 %325
  %338 = getelementptr inbounds %"struct.std::_Vector_base<dealii::Point<3>, std::allocator<dealii::Point<3> > >::_Vector_impl_data", ptr %32, i64 0, i32 2
  store ptr %337, ptr %338, align 8, !tbaa !43
  call void @llvm.memset.p0.i64(ptr nonnull align 8 %335, i8 0, i64 %334, i1 false), !tbaa !44
  %339 = getelementptr i8, ptr %335, i64 %334
  %340 = getelementptr inbounds %"struct.std::_Vector_base<dealii::Point<3>, std::allocator<dealii::Point<3> > >::_Vector_impl_data", ptr %32, i64 0, i32 1
  store ptr %339, ptr %340, align 8, !tbaa !46
  call void @llvm.lifetime.start.p0(i64 48, ptr nonnull %33) #20
  %341 = getelementptr inbounds i8, ptr %33, i64 8
  store i32 0, ptr %341, align 8, !tbaa !61
  %342 = getelementptr inbounds i8, ptr %33, i64 16
  store ptr null, ptr %342, align 8, !tbaa !65
  %343 = getelementptr inbounds i8, ptr %33, i64 24
  store ptr %341, ptr %343, align 8, !tbaa !66
  %344 = getelementptr inbounds i8, ptr %33, i64 32
  store ptr %341, ptr %344, align 8, !tbaa !67
  %345 = getelementptr inbounds i8, ptr %33, i64 40
  store i64 0, ptr %345, align 8, !tbaa !68
  %346 = getelementptr inbounds [3 x double], ptr %35, i64 0, i64 1
  %347 = getelementptr inbounds [3 x double], ptr %35, i64 0, i64 2
  br label %357

348:                                              ; preds = %377, %327
  %349 = phi ptr [ %332, %327 ], [ %345, %377 ]
  %350 = phi ptr [ %329, %327 ], [ %342, %377 ]
  %351 = phi ptr [ %328, %327 ], [ %341, %377 ]
  %352 = invoke noundef nonnull align 8 dereferenceable(16) ptr @_ZStrsIcSt11char_traitsIcESaIcEERSt13basic_istreamIT_T0_ES7_RNSt7__cxx1112basic_stringIS4_S5_T1_EE(ptr noundef nonnull align 8 dereferenceable(16) %1, ptr noundef nonnull align 8 dereferenceable(32) %22)
          to label %383 unwind label %456

353:                                              ; preds = %333
  %354 = landingpad { ptr, i32 }
          cleanup
  br label %1730

355:                                              ; preds = %1700
  %356 = landingpad { ptr, i32 }
          cleanup
  br label %1725

357:                                              ; preds = %336, %377
  %358 = phi i64 [ 0, %336 ], [ %379, %377 ]
  call void @llvm.lifetime.start.p0(i64 4, ptr nonnull %34) #20
  call void @llvm.lifetime.start.p0(i64 24, ptr nonnull %35) #20
  %359 = invoke noundef nonnull align 8 dereferenceable(16) ptr @_ZNSirsERi(ptr noundef nonnull align 8 dereferenceable(16) %1, ptr noundef nonnull align 4 dereferenceable(4) %34)
          to label %360 unwind label %375

360:                                              ; preds = %357
  %361 = invoke noundef nonnull align 8 dereferenceable(16) ptr @_ZNSi10_M_extractIdEERSiRT_(ptr noundef nonnull align 8 dereferenceable(16) %359, ptr noundef nonnull align 8 dereferenceable(8) %35)
          to label %362 unwind label %375

362:                                              ; preds = %360
  %363 = invoke noundef nonnull align 8 dereferenceable(16) ptr @_ZNSi10_M_extractIdEERSiRT_(ptr noundef nonnull align 8 dereferenceable(16) %361, ptr noundef nonnull align 8 dereferenceable(8) %346)
          to label %364 unwind label %375

364:                                              ; preds = %362
  %365 = invoke noundef nonnull align 8 dereferenceable(16) ptr @_ZNSi10_M_extractIdEERSiRT_(ptr noundef nonnull align 8 dereferenceable(16) %363, ptr noundef nonnull align 8 dereferenceable(8) %347)
          to label %366 unwind label %375

366:                                              ; preds = %364
  %367 = load ptr, ptr %32, align 8, !tbaa !41
  %368 = getelementptr inbounds %"class.dealii::Point", ptr %367, i64 %358
  %369 = load double, ptr %35, align 16, !tbaa !44
  store double %369, ptr %368, align 8, !tbaa !44
  %370 = load double, ptr %346, align 8, !tbaa !44
  %371 = getelementptr inbounds [3 x double], ptr %368, i64 0, i64 1
  store double %370, ptr %371, align 8, !tbaa !44
  %372 = load double, ptr %347, align 16, !tbaa !44
  %373 = getelementptr inbounds [3 x double], ptr %368, i64 0, i64 2
  store double %372, ptr %373, align 8, !tbaa !44
  %374 = invoke noundef nonnull align 4 dereferenceable(4) ptr @_ZNSt3mapIiiSt4lessIiESaISt4pairIKiiEEEixERS3_(ptr noundef nonnull align 8 dereferenceable(48) %33, ptr noundef nonnull align 4 dereferenceable(4) %34)
          to label %377 unwind label %375

375:                                              ; preds = %364, %362, %360, %366, %357
  %376 = landingpad { ptr, i32 }
          cleanup
  call void @llvm.lifetime.end.p0(i64 24, ptr nonnull %35) #20
  call void @llvm.lifetime.end.p0(i64 4, ptr nonnull %34) #20
  br label %1721

377:                                              ; preds = %366
  %378 = trunc i64 %358 to i32
  store i32 %378, ptr %374, align 4, !tbaa !36
  call void @llvm.lifetime.end.p0(i64 24, ptr nonnull %35) #20
  call void @llvm.lifetime.end.p0(i64 4, ptr nonnull %34) #20
  %379 = add nuw nsw i64 %358, 1
  %380 = load i32, ptr %19, align 4, !tbaa !36
  %381 = zext i32 %380 to i64
  %382 = icmp ult i64 %379, %381
  br i1 %382, label %357, label %348

383:                                              ; preds = %348
  %384 = load atomic i8, ptr @_ZGVZN6dealii6GridInILi3ELi3EE8read_mshERSiE16end_nodes_markerB5cxx11 acquire, align 8
  %385 = icmp eq i8 %384, 0
  br i1 %385, label %386, label %393, !prof !69

386:                                              ; preds = %383
  %387 = call i32 @__cxa_guard_acquire(ptr nonnull @_ZGVZN6dealii6GridInILi3ELi3EE8read_mshERSiE16end_nodes_markerB5cxx11) #20
  %388 = icmp eq i32 %387, 0
  br i1 %388, label %393, label %389

389:                                              ; preds = %386
  call void @llvm.lifetime.start.p0(i64 1, ptr nonnull %36) #20
  invoke void @_ZNSt7__cxx1112basic_stringIcSt11char_traitsIcESaIcEEC2EPKcRKS3_(ptr noundef nonnull align 8 dereferenceable(32) @_ZZN6dealii6GridInILi3ELi3EE8read_mshERSiE16end_nodes_markerB5cxx11, ptr noundef nonnull @.str.39, ptr noundef nonnull align 1 dereferenceable(1) %36)
          to label %390 unwind label %458

390:                                              ; preds = %389
  call void @llvm.lifetime.start.p0(i64 1, ptr nonnull %37) #20
  invoke void @_ZNSt7__cxx1112basic_stringIcSt11char_traitsIcESaIcEEC2EPKcRKS3_(ptr noundef nonnull align 8 dereferenceable(32) getelementptr inbounds ([2 x %"class.std::__cxx11::basic_string"], ptr @_ZZN6dealii6GridInILi3ELi3EE8read_mshERSiE16end_nodes_markerB5cxx11, i64 0, i64 1), ptr noundef nonnull @.str.40, ptr noundef nonnull align 1 dereferenceable(1) %37)
          to label %391 unwind label %460

391:                                              ; preds = %390
  call void @llvm.lifetime.end.p0(i64 1, ptr nonnull %37) #20
  call void @llvm.lifetime.end.p0(i64 1, ptr nonnull %36) #20
  %392 = call i32 @__cxa_atexit(ptr nonnull @__cxx_global_array_dtor, ptr null, ptr nonnull @__dso_handle) #20
  call void @__cxa_guard_release(ptr nonnull @_ZGVZN6dealii6GridInILi3ELi3EE8read_mshERSiE16end_nodes_markerB5cxx11) #20
  br label %393

393:                                              ; preds = %391, %386, %383
  %394 = add nsw i32 %321, -1
  %395 = zext i32 %394 to i64
  %396 = getelementptr inbounds [2 x %"class.std::__cxx11::basic_string"], ptr @_ZZN6dealii6GridInILi3ELi3EE8read_mshERSiE16end_nodes_markerB5cxx11, i64 0, i64 %395
  %397 = load i64, ptr %82, align 8, !tbaa !25
  %398 = getelementptr inbounds [2 x %"class.std::__cxx11::basic_string"], ptr @_ZZN6dealii6GridInILi3ELi3EE8read_mshERSiE16end_nodes_markerB5cxx11, i64 0, i64 %395, i32 1
  %399 = load i64, ptr %398, align 8, !tbaa !25
  %400 = icmp eq i64 %397, %399
  br i1 %400, label %403, label %401

401:                                              ; preds = %393
  %402 = load ptr, ptr %22, align 8, !tbaa !34
  br label %410

403:                                              ; preds = %393
  %404 = icmp eq i64 %397, 0
  br i1 %404, label %484, label %405

405:                                              ; preds = %403
  %406 = load ptr, ptr %396, align 16, !tbaa !34
  %407 = load ptr, ptr %22, align 8, !tbaa !34
  %408 = call i32 @bcmp(ptr %407, ptr %406, i64 %397)
  %409 = icmp eq i32 %408, 0
  br i1 %409, label %484, label %410

410:                                              ; preds = %401, %405
  %411 = phi ptr [ %402, %401 ], [ %407, %405 ]
  %412 = getelementptr inbounds %"class.std::__cxx11::basic_string", ptr %39, i64 0, i32 2
  store ptr %412, ptr %39, align 8, !tbaa !23
  call void @llvm.lifetime.start.p0(i64 8, ptr nonnull %11) #20
  store i64 %397, ptr %11, align 8, !tbaa !35
  %413 = icmp ugt i64 %397, 15
  br i1 %413, label %414, label %418

414:                                              ; preds = %410
  %415 = invoke noundef ptr @_ZNSt7__cxx1112basic_stringIcSt11char_traitsIcESaIcEE9_M_createERmm(ptr noundef nonnull align 8 dereferenceable(32) %39, ptr noundef nonnull align 8 dereferenceable(8) %11, i64 noundef 0)
          to label %416 unwind label %456

416:                                              ; preds = %414
  store ptr %415, ptr %39, align 8, !tbaa !34
  %417 = load i64, ptr %11, align 8, !tbaa !35
  store i64 %417, ptr %412, align 8, !tbaa !27
  br label %418

418:                                              ; preds = %416, %410
  %419 = phi ptr [ %415, %416 ], [ %412, %410 ]
  switch i64 %397, label %422 [
    i64 1, label %420
    i64 0, label %423
  ]

420:                                              ; preds = %418
  %421 = load i8, ptr %411, align 1, !tbaa !27
  store i8 %421, ptr %419, align 1, !tbaa !27
  br label %423

422:                                              ; preds = %418
  call void @llvm.memcpy.p0.p0.i64(ptr align 1 %419, ptr align 1 %411, i64 %397, i1 false)
  br label %423

423:                                              ; preds = %422, %420, %418
  %424 = load i64, ptr %11, align 8, !tbaa !35
  %425 = getelementptr inbounds %"class.std::__cxx11::basic_string", ptr %39, i64 0, i32 1
  store i64 %424, ptr %425, align 8, !tbaa !25
  %426 = load ptr, ptr %39, align 8, !tbaa !34
  %427 = getelementptr inbounds i8, ptr %426, i64 %424
  store i8 0, ptr %427, align 1, !tbaa !27
  call void @llvm.lifetime.end.p0(i64 8, ptr nonnull %11) #20
  invoke void @_ZN6dealii13ExceptionBaseC2Ev(ptr noundef nonnull align 8 dereferenceable(60) %38)
          to label %428 unwind label %470

428:                                              ; preds = %423
  store ptr getelementptr inbounds ({ [6 x ptr] }, ptr @_ZTVN6dealii6GridInILi3ELi3EE19ExcInvalidGMSHInputE, i64 0, inrange i32 0, i64 2), ptr %38, align 8, !tbaa !13
  %429 = getelementptr inbounds %"class.dealii::GridIn<3>::ExcInvalidGMSHInput", ptr %38, i64 0, i32 1
  %430 = getelementptr inbounds %"class.dealii::GridIn<3>::ExcInvalidGMSHInput", ptr %38, i64 0, i32 1, i32 2
  store ptr %430, ptr %429, align 8, !tbaa !23
  %431 = load ptr, ptr %39, align 8, !tbaa !34
  %432 = load i64, ptr %425, align 8, !tbaa !25
  call void @llvm.lifetime.start.p0(i64 8, ptr nonnull %10) #20
  store i64 %432, ptr %10, align 8, !tbaa !35
  %433 = icmp ugt i64 %432, 15
  br i1 %433, label %434, label %438

434:                                              ; preds = %428
  %435 = invoke noundef ptr @_ZNSt7__cxx1112basic_stringIcSt11char_traitsIcESaIcEE9_M_createERmm(ptr noundef nonnull align 8 dereferenceable(32) %429, ptr noundef nonnull align 8 dereferenceable(8) %10, i64 noundef 0)
          to label %436 unwind label %443

436:                                              ; preds = %434
  store ptr %435, ptr %429, align 8, !tbaa !34
  %437 = load i64, ptr %10, align 8, !tbaa !35
  store i64 %437, ptr %430, align 8, !tbaa !27
  br label %438

438:                                              ; preds = %436, %428
  %439 = phi ptr [ %435, %436 ], [ %430, %428 ]
  switch i64 %432, label %442 [
    i64 1, label %440
    i64 0, label %445
  ]

440:                                              ; preds = %438
  %441 = load i8, ptr %431, align 1, !tbaa !27
  store i8 %441, ptr %439, align 1, !tbaa !27
  br label %445

442:                                              ; preds = %438
  call void @llvm.memcpy.p0.p0.i64(ptr align 1 %439, ptr align 1 %431, i64 %432, i1 false)
  br label %445

443:                                              ; preds = %434
  %444 = landingpad { ptr, i32 }
          cleanup
  call void @_ZN6dealii13ExceptionBaseD2Ev(ptr noundef nonnull align 8 dereferenceable(60) %38) #20
  br label %476

445:                                              ; preds = %442, %440, %438
  %446 = load i64, ptr %10, align 8, !tbaa !35
  %447 = getelementptr inbounds %"class.dealii::GridIn<3>::ExcInvalidGMSHInput", ptr %38, i64 0, i32 1, i32 1
  store i64 %446, ptr %447, align 8, !tbaa !25
  %448 = load ptr, ptr %429, align 8, !tbaa !34
  %449 = getelementptr inbounds i8, ptr %448, i64 %446
  store i8 0, ptr %449, align 1, !tbaa !27
  call void @llvm.lifetime.end.p0(i64 8, ptr nonnull %10) #20
  invoke void @_ZN6dealii13ExceptionBase10set_fieldsEPKciS2_S2_S2_(ptr noundef nonnull align 8 dereferenceable(60) %38, ptr noundef nonnull @.str.2, i32 noundef 626, ptr noundef nonnull @.str.3, ptr noundef nonnull @.str.41, ptr noundef nonnull @.str.34)
          to label %450 unwind label %472

450:                                              ; preds = %445
  %451 = call ptr @__cxa_allocate_exception(i64 96) #20
  invoke void @_ZN6dealii6GridInILi3ELi3EE19ExcInvalidGMSHInputC2ERKS2_(ptr noundef nonnull align 8 dereferenceable(96) %451, ptr noundef nonnull align 8 dereferenceable(96) %38)
          to label %452 unwind label %454

452:                                              ; preds = %450
  invoke void @__cxa_throw(ptr nonnull %451, ptr nonnull @_ZTIN6dealii6GridInILi3ELi3EE19ExcInvalidGMSHInputE, ptr nonnull @_ZN6dealii6GridInILi3ELi3EE19ExcInvalidGMSHInputD2Ev) #21
          to label %453 unwind label %472

453:                                              ; preds = %452
  unreachable

454:                                              ; preds = %450
  %455 = landingpad { ptr, i32 }
          cleanup
  call void @__cxa_free_exception(ptr %451) #20
  br label %474

456:                                              ; preds = %583, %515, %414, %484, %348
  %457 = landingpad { ptr, i32 }
          cleanup
  br label %1721

458:                                              ; preds = %389
  %459 = landingpad { ptr, i32 }
          cleanup
  call void @llvm.lifetime.end.p0(i64 1, ptr nonnull %36) #20
  br label %468

460:                                              ; preds = %390
  %461 = landingpad { ptr, i32 }
          cleanup
  call void @llvm.lifetime.end.p0(i64 1, ptr nonnull %37) #20
  call void @llvm.lifetime.end.p0(i64 1, ptr nonnull %36) #20
  %462 = load ptr, ptr @_ZZN6dealii6GridInILi3ELi3EE8read_mshERSiE16end_nodes_markerB5cxx11, align 16, !tbaa !34
  %463 = icmp eq ptr %462, getelementptr inbounds ([2 x %"class.std::__cxx11::basic_string"], ptr @_ZZN6dealii6GridInILi3ELi3EE8read_mshERSiE16end_nodes_markerB5cxx11, i64 0, i64 0, i32 2)
  br i1 %463, label %464, label %467

464:                                              ; preds = %460
  %465 = load i64, ptr getelementptr inbounds ([2 x %"class.std::__cxx11::basic_string"], ptr @_ZZN6dealii6GridInILi3ELi3EE8read_mshERSiE16end_nodes_markerB5cxx11, i64 0, i64 0, i32 1), align 8, !tbaa !25
  %466 = icmp ult i64 %465, 16
  call void @llvm.assume(i1 %466)
  br label %468

467:                                              ; preds = %460
  call void @_ZdlPv(ptr noundef %462) #22
  br label %468

468:                                              ; preds = %464, %467, %458
  %469 = phi { ptr, i32 } [ %459, %458 ], [ %461, %467 ], [ %461, %464 ]
  call void @__cxa_guard_abort(ptr nonnull @_ZGVZN6dealii6GridInILi3ELi3EE8read_mshERSiE16end_nodes_markerB5cxx11) #20
  br label %1721

470:                                              ; preds = %423
  %471 = landingpad { ptr, i32 }
          cleanup
  br label %476

472:                                              ; preds = %452, %445
  %473 = landingpad { ptr, i32 }
          cleanup
  br label %474

474:                                              ; preds = %454, %472
  %475 = phi { ptr, i32 } [ %473, %472 ], [ %455, %454 ]
  call void @_ZN6dealii6GridInILi3ELi3EE19ExcInvalidGMSHInputD2Ev(ptr noundef nonnull align 8 dereferenceable(96) %38) #20
  br label %476

476:                                              ; preds = %470, %443, %474
  %477 = phi { ptr, i32 } [ %475, %474 ], [ %471, %470 ], [ %444, %443 ]
  %478 = load ptr, ptr %39, align 8, !tbaa !34
  %479 = icmp eq ptr %478, %412
  br i1 %479, label %480, label %483

480:                                              ; preds = %476
  %481 = load i64, ptr %425, align 8, !tbaa !25
  %482 = icmp ult i64 %481, 16
  call void @llvm.assume(i1 %482)
  br label %1721

483:                                              ; preds = %476
  call void @_ZdlPv(ptr noundef %478) #22
  br label %1721

484:                                              ; preds = %403, %405
  %485 = invoke noundef nonnull align 8 dereferenceable(16) ptr @_ZStrsIcSt11char_traitsIcESaIcEERSt13basic_istreamIT_T0_ES7_RNSt7__cxx1112basic_stringIS4_S5_T1_EE(ptr noundef nonnull align 8 dereferenceable(16) %1, ptr noundef nonnull align 8 dereferenceable(32) %22)
          to label %486 unwind label %456

486:                                              ; preds = %484
  %487 = load atomic i8, ptr @_ZGVZN6dealii6GridInILi3ELi3EE8read_mshERSiE21begin_elements_markerB5cxx11 acquire, align 8
  %488 = icmp eq i8 %487, 0
  br i1 %488, label %489, label %496, !prof !69

489:                                              ; preds = %486
  %490 = call i32 @__cxa_guard_acquire(ptr nonnull @_ZGVZN6dealii6GridInILi3ELi3EE8read_mshERSiE21begin_elements_markerB5cxx11) #20
  %491 = icmp eq i32 %490, 0
  br i1 %491, label %496, label %492

492:                                              ; preds = %489
  call void @llvm.lifetime.start.p0(i64 1, ptr nonnull %40) #20
  invoke void @_ZNSt7__cxx1112basic_stringIcSt11char_traitsIcESaIcEEC2EPKcRKS3_(ptr noundef nonnull align 8 dereferenceable(32) @_ZZN6dealii6GridInILi3ELi3EE8read_mshERSiE21begin_elements_markerB5cxx11, ptr noundef nonnull @.str.42, ptr noundef nonnull align 1 dereferenceable(1) %40)
          to label %493 unwind label %557

493:                                              ; preds = %492
  call void @llvm.lifetime.start.p0(i64 1, ptr nonnull %41) #20
  invoke void @_ZNSt7__cxx1112basic_stringIcSt11char_traitsIcESaIcEEC2EPKcRKS3_(ptr noundef nonnull align 8 dereferenceable(32) getelementptr inbounds ([2 x %"class.std::__cxx11::basic_string"], ptr @_ZZN6dealii6GridInILi3ELi3EE8read_mshERSiE21begin_elements_markerB5cxx11, i64 0, i64 1), ptr noundef nonnull @.str.43, ptr noundef nonnull align 1 dereferenceable(1) %41)
          to label %494 unwind label %559

494:                                              ; preds = %493
  call void @llvm.lifetime.end.p0(i64 1, ptr nonnull %41) #20
  call void @llvm.lifetime.end.p0(i64 1, ptr nonnull %40) #20
  %495 = call i32 @__cxa_atexit(ptr nonnull @__cxx_global_array_dtor.44, ptr null, ptr nonnull @__dso_handle) #20
  call void @__cxa_guard_release(ptr nonnull @_ZGVZN6dealii6GridInILi3ELi3EE8read_mshERSiE21begin_elements_markerB5cxx11) #20
  br label %496

496:                                              ; preds = %494, %489, %486
  %497 = getelementptr inbounds [2 x %"class.std::__cxx11::basic_string"], ptr @_ZZN6dealii6GridInILi3ELi3EE8read_mshERSiE21begin_elements_markerB5cxx11, i64 0, i64 %395
  %498 = load i64, ptr %82, align 8, !tbaa !25
  %499 = getelementptr inbounds [2 x %"class.std::__cxx11::basic_string"], ptr @_ZZN6dealii6GridInILi3ELi3EE8read_mshERSiE21begin_elements_markerB5cxx11, i64 0, i64 %395, i32 1
  %500 = load i64, ptr %499, align 8, !tbaa !25
  %501 = icmp eq i64 %498, %500
  br i1 %501, label %504, label %502

502:                                              ; preds = %496
  %503 = load ptr, ptr %22, align 8, !tbaa !34
  br label %511

504:                                              ; preds = %496
  %505 = icmp eq i64 %498, 0
  br i1 %505, label %583, label %506

506:                                              ; preds = %504
  %507 = load ptr, ptr %497, align 16, !tbaa !34
  %508 = load ptr, ptr %22, align 8, !tbaa !34
  %509 = call i32 @bcmp(ptr %508, ptr %507, i64 %498)
  %510 = icmp eq i32 %509, 0
  br i1 %510, label %583, label %511

511:                                              ; preds = %502, %506
  %512 = phi ptr [ %503, %502 ], [ %508, %506 ]
  %513 = getelementptr inbounds %"class.std::__cxx11::basic_string", ptr %43, i64 0, i32 2
  store ptr %513, ptr %43, align 8, !tbaa !23
  call void @llvm.lifetime.start.p0(i64 8, ptr nonnull %9) #20
  store i64 %498, ptr %9, align 8, !tbaa !35
  %514 = icmp ugt i64 %498, 15
  br i1 %514, label %515, label %519

515:                                              ; preds = %511
  %516 = invoke noundef ptr @_ZNSt7__cxx1112basic_stringIcSt11char_traitsIcESaIcEE9_M_createERmm(ptr noundef nonnull align 8 dereferenceable(32) %43, ptr noundef nonnull align 8 dereferenceable(8) %9, i64 noundef 0)
          to label %517 unwind label %456

517:                                              ; preds = %515
  store ptr %516, ptr %43, align 8, !tbaa !34
  %518 = load i64, ptr %9, align 8, !tbaa !35
  store i64 %518, ptr %513, align 8, !tbaa !27
  br label %519

519:                                              ; preds = %517, %511
  %520 = phi ptr [ %516, %517 ], [ %513, %511 ]
  switch i64 %498, label %523 [
    i64 1, label %521
    i64 0, label %524
  ]

521:                                              ; preds = %519
  %522 = load i8, ptr %512, align 1, !tbaa !27
  store i8 %522, ptr %520, align 1, !tbaa !27
  br label %524

523:                                              ; preds = %519
  call void @llvm.memcpy.p0.p0.i64(ptr align 1 %520, ptr align 1 %512, i64 %498, i1 false)
  br label %524

524:                                              ; preds = %523, %521, %519
  %525 = load i64, ptr %9, align 8, !tbaa !35
  %526 = getelementptr inbounds %"class.std::__cxx11::basic_string", ptr %43, i64 0, i32 1
  store i64 %525, ptr %526, align 8, !tbaa !25
  %527 = load ptr, ptr %43, align 8, !tbaa !34
  %528 = getelementptr inbounds i8, ptr %527, i64 %525
  store i8 0, ptr %528, align 1, !tbaa !27
  call void @llvm.lifetime.end.p0(i64 8, ptr nonnull %9) #20
  invoke void @_ZN6dealii13ExceptionBaseC2Ev(ptr noundef nonnull align 8 dereferenceable(60) %42)
          to label %529 unwind label %569

529:                                              ; preds = %524
  store ptr getelementptr inbounds ({ [6 x ptr] }, ptr @_ZTVN6dealii6GridInILi3ELi3EE19ExcInvalidGMSHInputE, i64 0, inrange i32 0, i64 2), ptr %42, align 8, !tbaa !13
  %530 = getelementptr inbounds %"class.dealii::GridIn<3>::ExcInvalidGMSHInput", ptr %42, i64 0, i32 1
  %531 = getelementptr inbounds %"class.dealii::GridIn<3>::ExcInvalidGMSHInput", ptr %42, i64 0, i32 1, i32 2
  store ptr %531, ptr %530, align 8, !tbaa !23
  %532 = load ptr, ptr %43, align 8, !tbaa !34
  %533 = load i64, ptr %526, align 8, !tbaa !25
  call void @llvm.lifetime.start.p0(i64 8, ptr nonnull %8) #20
  store i64 %533, ptr %8, align 8, !tbaa !35
  %534 = icmp ugt i64 %533, 15
  br i1 %534, label %535, label %539

535:                                              ; preds = %529
  %536 = invoke noundef ptr @_ZNSt7__cxx1112basic_stringIcSt11char_traitsIcESaIcEE9_M_createERmm(ptr noundef nonnull align 8 dereferenceable(32) %530, ptr noundef nonnull align 8 dereferenceable(8) %8, i64 noundef 0)
          to label %537 unwind label %544

537:                                              ; preds = %535
  store ptr %536, ptr %530, align 8, !tbaa !34
  %538 = load i64, ptr %8, align 8, !tbaa !35
  store i64 %538, ptr %531, align 8, !tbaa !27
  br label %539

539:                                              ; preds = %537, %529
  %540 = phi ptr [ %536, %537 ], [ %531, %529 ]
  switch i64 %533, label %543 [
    i64 1, label %541
    i64 0, label %546
  ]

541:                                              ; preds = %539
  %542 = load i8, ptr %532, align 1, !tbaa !27
  store i8 %542, ptr %540, align 1, !tbaa !27
  br label %546

543:                                              ; preds = %539
  call void @llvm.memcpy.p0.p0.i64(ptr align 1 %540, ptr align 1 %532, i64 %533, i1 false)
  br label %546

544:                                              ; preds = %535
  %545 = landingpad { ptr, i32 }
          cleanup
  call void @_ZN6dealii13ExceptionBaseD2Ev(ptr noundef nonnull align 8 dereferenceable(60) %42) #20
  br label %575

546:                                              ; preds = %543, %541, %539
  %547 = load i64, ptr %8, align 8, !tbaa !35
  %548 = getelementptr inbounds %"class.dealii::GridIn<3>::ExcInvalidGMSHInput", ptr %42, i64 0, i32 1, i32 1
  store i64 %547, ptr %548, align 8, !tbaa !25
  %549 = load ptr, ptr %530, align 8, !tbaa !34
  %550 = getelementptr inbounds i8, ptr %549, i64 %547
  store i8 0, ptr %550, align 1, !tbaa !27
  call void @llvm.lifetime.end.p0(i64 8, ptr nonnull %8) #20
  invoke void @_ZN6dealii13ExceptionBase10set_fieldsEPKciS2_S2_S2_(ptr noundef nonnull align 8 dereferenceable(60) %42, ptr noundef nonnull @.str.2, i32 noundef 632, ptr noundef nonnull @.str.3, ptr noundef nonnull @.str.45, ptr noundef nonnull @.str.34)
          to label %551 unwind label %571

551:                                              ; preds = %546
  %552 = call ptr @__cxa_allocate_exception(i64 96) #20
  invoke void @_ZN6dealii6GridInILi3ELi3EE19ExcInvalidGMSHInputC2ERKS2_(ptr noundef nonnull align 8 dereferenceable(96) %552, ptr noundef nonnull align 8 dereferenceable(96) %42)
          to label %553 unwind label %555

553:                                              ; preds = %551
  invoke void @__cxa_throw(ptr nonnull %552, ptr nonnull @_ZTIN6dealii6GridInILi3ELi3EE19ExcInvalidGMSHInputE, ptr nonnull @_ZN6dealii6GridInILi3ELi3EE19ExcInvalidGMSHInputD2Ev) #21
          to label %554 unwind label %571

554:                                              ; preds = %553
  unreachable

555:                                              ; preds = %551
  %556 = landingpad { ptr, i32 }
          cleanup
  call void @__cxa_free_exception(ptr %552) #20
  br label %573

557:                                              ; preds = %492
  %558 = landingpad { ptr, i32 }
          cleanup
  call void @llvm.lifetime.end.p0(i64 1, ptr nonnull %40) #20
  br label %567

559:                                              ; preds = %493
  %560 = landingpad { ptr, i32 }
          cleanup
  call void @llvm.lifetime.end.p0(i64 1, ptr nonnull %41) #20
  call void @llvm.lifetime.end.p0(i64 1, ptr nonnull %40) #20
  %561 = load ptr, ptr @_ZZN6dealii6GridInILi3ELi3EE8read_mshERSiE21begin_elements_markerB5cxx11, align 16, !tbaa !34
  %562 = icmp eq ptr %561, getelementptr inbounds ([2 x %"class.std::__cxx11::basic_string"], ptr @_ZZN6dealii6GridInILi3ELi3EE8read_mshERSiE21begin_elements_markerB5cxx11, i64 0, i64 0, i32 2)
  br i1 %562, label %563, label %566

563:                                              ; preds = %559
  %564 = load i64, ptr getelementptr inbounds ([2 x %"class.std::__cxx11::basic_string"], ptr @_ZZN6dealii6GridInILi3ELi3EE8read_mshERSiE21begin_elements_markerB5cxx11, i64 0, i64 0, i32 1), align 8, !tbaa !25
  %565 = icmp ult i64 %564, 16
  call void @llvm.assume(i1 %565)
  br label %567

566:                                              ; preds = %559
  call void @_ZdlPv(ptr noundef %561) #22
  br label %567

567:                                              ; preds = %563, %566, %557
  %568 = phi { ptr, i32 } [ %558, %557 ], [ %560, %566 ], [ %560, %563 ]
  call void @__cxa_guard_abort(ptr nonnull @_ZGVZN6dealii6GridInILi3ELi3EE8read_mshERSiE21begin_elements_markerB5cxx11) #20
  br label %1721

569:                                              ; preds = %524
  %570 = landingpad { ptr, i32 }
          cleanup
  br label %575

571:                                              ; preds = %553, %546
  %572 = landingpad { ptr, i32 }
          cleanup
  br label %573

573:                                              ; preds = %555, %571
  %574 = phi { ptr, i32 } [ %572, %571 ], [ %556, %555 ]
  call void @_ZN6dealii6GridInILi3ELi3EE19ExcInvalidGMSHInputD2Ev(ptr noundef nonnull align 8 dereferenceable(96) %42) #20
  br label %575

575:                                              ; preds = %569, %544, %573
  %576 = phi { ptr, i32 } [ %574, %573 ], [ %570, %569 ], [ %545, %544 ]
  %577 = load ptr, ptr %43, align 8, !tbaa !34
  %578 = icmp eq ptr %577, %513
  br i1 %578, label %579, label %582

579:                                              ; preds = %575
  %580 = load i64, ptr %526, align 8, !tbaa !25
  %581 = icmp ult i64 %580, 16
  call void @llvm.assume(i1 %581)
  br label %1721

582:                                              ; preds = %575
  call void @_ZdlPv(ptr noundef %577) #22
  br label %1721

583:                                              ; preds = %504, %506
  %584 = invoke noundef nonnull align 8 dereferenceable(16) ptr @_ZNSi10_M_extractIjEERSiRT_(ptr noundef nonnull align 8 dereferenceable(16) %1, ptr noundef nonnull align 4 dereferenceable(4) %20)
          to label %585 unwind label %456

585:                                              ; preds = %583
  call void @llvm.lifetime.start.p0(i64 24, ptr nonnull %44) #20
  call void @llvm.memset.p0.i64(ptr noundef nonnull align 8 dereferenceable(24) %44, i8 0, i64 24, i1 false)
  call void @llvm.lifetime.start.p0(i64 48, ptr nonnull %45) #20
  call void @llvm.memset.p0.i64(ptr noundef nonnull align 8 dereferenceable(48) %45, i8 0, i64 48, i1 false)
  %586 = getelementptr %"class.std::ios_base", ptr %1, i64 0, i32 5
  %587 = load i32, ptr %20, align 4, !tbaa !36
  %588 = icmp eq i32 %587, 0
  br i1 %588, label %600, label %589

589:                                              ; preds = %585
  %590 = getelementptr inbounds %"struct.dealii::SubCellData", ptr %45, i64 0, i32 1
  %591 = getelementptr inbounds %"struct.dealii::SubCellData", ptr %45, i64 0, i32 1, i32 0, i32 0, i32 0, i32 1
  %592 = getelementptr inbounds %"struct.dealii::SubCellData", ptr %45, i64 0, i32 1, i32 0, i32 0, i32 0, i32 2
  %593 = getelementptr inbounds %"struct.std::pair.58", ptr %5, i64 0, i32 1
  %594 = getelementptr inbounds %"struct.std::_Vector_base<dealii::CellData<1>, std::allocator<dealii::CellData<1> > >::_Vector_impl_data", ptr %45, i64 0, i32 1
  %595 = getelementptr inbounds %"struct.std::_Vector_base<dealii::CellData<1>, std::allocator<dealii::CellData<1> > >::_Vector_impl_data", ptr %45, i64 0, i32 2
  %596 = getelementptr inbounds %"struct.std::pair.58", ptr %6, i64 0, i32 1
  %597 = getelementptr inbounds %"struct.std::_Vector_base<dealii::CellData<3>, std::allocator<dealii::CellData<3> > >::_Vector_impl_data", ptr %44, i64 0, i32 1
  %598 = getelementptr inbounds %"struct.std::_Vector_base<dealii::CellData<3>, std::allocator<dealii::CellData<3> > >::_Vector_impl_data", ptr %44, i64 0, i32 2
  %599 = getelementptr inbounds %"struct.std::pair.58", ptr %7, i64 0, i32 1
  br label %602

600:                                              ; preds = %1552, %585
  %601 = invoke noundef nonnull align 8 dereferenceable(16) ptr @_ZStrsIcSt11char_traitsIcESaIcEERSt13basic_istreamIT_T0_ES7_RNSt7__cxx1112basic_stringIS4_S5_T1_EE(ptr noundef nonnull align 8 dereferenceable(16) %1, ptr noundef nonnull align 8 dereferenceable(32) %22)
          to label %1559 unwind label %1630

602:                                              ; preds = %589, %1552
  %603 = phi i32 [ 0, %589 ], [ %1554, %1552 ]
  %604 = phi i32 [ %321, %589 ], [ %1553, %1552 ]
  %605 = load ptr, ptr %1, align 8, !tbaa !13
  %606 = getelementptr i8, ptr %605, i64 -24
  %607 = load i64, ptr %606, align 8
  %608 = getelementptr i8, ptr %586, i64 %607
  %609 = load i32, ptr %608, align 8, !tbaa !15
  %610 = and i32 %609, 5
  %611 = icmp eq i32 %610, 0
  br i1 %611, label %626, label %612

612:                                              ; preds = %602
  call void @llvm.memset.p0.i64(ptr noundef nonnull align 8 dereferenceable(64) %46, i8 0, i64 64, i1 false)
  invoke void @_ZN6dealii13ExceptionBaseC2Ev(ptr noundef nonnull align 8 dereferenceable(60) %46)
          to label %613 unwind label %620

613:                                              ; preds = %612
  store ptr getelementptr inbounds ({ [6 x ptr] }, ptr @_ZTVN6dealii18StandardExceptions5ExcIOE, i64 0, inrange i32 0, i64 2), ptr %46, align 8, !tbaa !13
  invoke void @_ZN6dealii13ExceptionBase10set_fieldsEPKciS2_S2_S2_(ptr noundef nonnull align 8 dereferenceable(60) %46, ptr noundef nonnull @.str.2, i32 noundef 646, ptr noundef nonnull @.str.3, ptr noundef nonnull @.str.4, ptr noundef nonnull @.str.5)
          to label %614 unwind label %622

614:                                              ; preds = %613
  %615 = call ptr @__cxa_allocate_exception(i64 64) #20
  invoke void @_ZN6dealii13ExceptionBaseC2ERKS0_(ptr noundef nonnull align 8 dereferenceable(60) %615, ptr noundef nonnull align 8 dereferenceable(60) %46)
          to label %616 unwind label %618

616:                                              ; preds = %614
  store ptr getelementptr inbounds ({ [6 x ptr] }, ptr @_ZTVN6dealii18StandardExceptions5ExcIOE, i64 0, inrange i32 0, i64 2), ptr %615, align 8, !tbaa !13
  invoke void @__cxa_throw(ptr nonnull %615, ptr nonnull @_ZTIN6dealii18StandardExceptions5ExcIOE, ptr nonnull @_ZN6dealii13ExceptionBaseD2Ev) #21
          to label %617 unwind label %622

617:                                              ; preds = %616
  unreachable

618:                                              ; preds = %614
  %619 = landingpad { ptr, i32 }
          cleanup
  call void @__cxa_free_exception(ptr %615) #20
  br label %624

620:                                              ; preds = %612
  %621 = landingpad { ptr, i32 }
          cleanup
  br label %1714

622:                                              ; preds = %616, %613
  %623 = landingpad { ptr, i32 }
          cleanup
  br label %624

624:                                              ; preds = %618, %622
  %625 = phi { ptr, i32 } [ %623, %622 ], [ %619, %618 ]
  call void @_ZN6dealii13ExceptionBaseD2Ev(ptr noundef nonnull align 8 dereferenceable(60) %46) #20
  br label %1714

626:                                              ; preds = %602
  call void @llvm.lifetime.start.p0(i64 4, ptr nonnull %47) #20
  call void @llvm.lifetime.start.p0(i64 4, ptr nonnull %48) #20
  call void @llvm.lifetime.start.p0(i64 4, ptr nonnull %49) #20
  %627 = invoke noundef nonnull align 8 dereferenceable(16) ptr @_ZNSi10_M_extractIjEERSiRT_(ptr noundef nonnull align 8 dereferenceable(16) %1, ptr noundef nonnull align 4 dereferenceable(4) %21)
          to label %628 unwind label %631

628:                                              ; preds = %626
  %629 = invoke noundef nonnull align 8 dereferenceable(16) ptr @_ZNSi10_M_extractIjEERSiRT_(ptr noundef nonnull align 8 dereferenceable(16) %627, ptr noundef nonnull align 4 dereferenceable(4) %47)
          to label %630 unwind label %631

630:                                              ; preds = %628
  switch i32 %604, label %666 [
    i32 1, label %635
    i32 2, label %641
  ]

631:                                              ; preds = %626, %628, %635, %637, %639, %934, %938, %1171, %1175, %1179, %1183, %1535
  %632 = landingpad { ptr, i32 }
          cleanup
  br label %1557

633:                                              ; preds = %666, %681, %1537
  %634 = landingpad { ptr, i32 }
          cleanup
  br label %1557

635:                                              ; preds = %630
  %636 = invoke noundef nonnull align 8 dereferenceable(16) ptr @_ZNSi10_M_extractIjEERSiRT_(ptr noundef nonnull align 8 dereferenceable(16) %1, ptr noundef nonnull align 4 dereferenceable(4) %48)
          to label %637 unwind label %631

637:                                              ; preds = %635
  %638 = invoke noundef nonnull align 8 dereferenceable(16) ptr @_ZNSi10_M_extractIjEERSiRT_(ptr noundef nonnull align 8 dereferenceable(16) %636, ptr noundef nonnull align 4 dereferenceable(4) %21)
          to label %639 unwind label %631

639:                                              ; preds = %637
  %640 = invoke noundef nonnull align 8 dereferenceable(16) ptr @_ZNSi10_M_extractIjEERSiRT_(ptr noundef nonnull align 8 dereferenceable(16) %638, ptr noundef nonnull align 4 dereferenceable(4) %49)
          to label %674 unwind label %631

641:                                              ; preds = %630
  call void @llvm.lifetime.start.p0(i64 4, ptr nonnull %50) #20
  %642 = invoke noundef nonnull align 8 dereferenceable(16) ptr @_ZNSi10_M_extractIjEERSiRT_(ptr noundef nonnull align 8 dereferenceable(16) %1, ptr noundef nonnull align 4 dereferenceable(4) %50)
          to label %643 unwind label %648

643:                                              ; preds = %641
  %644 = load i32, ptr %50, align 4, !tbaa !36
  %645 = icmp eq i32 %644, 0
  br i1 %645, label %650, label %646

646:                                              ; preds = %643
  %647 = invoke noundef nonnull align 8 dereferenceable(16) ptr @_ZNSi10_M_extractIjEERSiRT_(ptr noundef nonnull align 8 dereferenceable(16) %1, ptr noundef nonnull align 4 dereferenceable(4) %48)
          to label %651 unwind label %648

648:                                              ; preds = %646, %641
  %649 = landingpad { ptr, i32 }
          cleanup
  br label %664

650:                                              ; preds = %643
  store i32 0, ptr %48, align 4, !tbaa !36
  br label %654

651:                                              ; preds = %646
  %652 = load i32, ptr %50, align 4, !tbaa !36
  %653 = icmp ugt i32 %652, 1
  br i1 %653, label %655, label %654

654:                                              ; preds = %658, %650, %651
  store i32 8, ptr %49, align 4, !tbaa !36
  call void @llvm.lifetime.end.p0(i64 4, ptr nonnull %50) #20
  br label %674

655:                                              ; preds = %651, %658
  %656 = phi i32 [ %659, %658 ], [ 1, %651 ]
  %657 = invoke noundef nonnull align 8 dereferenceable(16) ptr @_ZNSi10_M_extractIjEERSiRT_(ptr noundef nonnull align 8 dereferenceable(16) %1, ptr noundef nonnull align 4 dereferenceable(4) %21)
          to label %658 unwind label %662

658:                                              ; preds = %655
  %659 = add nuw i32 %656, 1
  %660 = load i32, ptr %50, align 4, !tbaa !36
  %661 = icmp ult i32 %659, %660
  br i1 %661, label %655, label %654

662:                                              ; preds = %655
  %663 = landingpad { ptr, i32 }
          cleanup
  br label %664

664:                                              ; preds = %662, %648
  %665 = phi { ptr, i32 } [ %663, %662 ], [ %649, %648 ]
  call void @llvm.lifetime.end.p0(i64 4, ptr nonnull %50) #20
  br label %1557

666:                                              ; preds = %630
  call void @llvm.memset.p0.i64(ptr noundef nonnull align 8 dereferenceable(64) %51, i8 0, i64 64, i1 false)
  invoke void @_ZN6dealii13ExceptionBaseC2Ev(ptr noundef nonnull align 8 dereferenceable(60) %51)
          to label %667 unwind label %633

667:                                              ; preds = %666
  store ptr getelementptr inbounds ({ [6 x ptr] }, ptr @_ZTVN6dealii18StandardExceptions17ExcNotImplementedE, i64 0, inrange i32 0, i64 2), ptr %51, align 8, !tbaa !13
  invoke void @_ZN6dealii13ExceptionBase10set_fieldsEPKciS2_S2_S2_(ptr noundef nonnull align 8 dereferenceable(60) %51, ptr noundef nonnull @.str.2, i32 noundef 698, ptr noundef nonnull @.str.3, ptr noundef nonnull @.str.9, ptr noundef nonnull @.str.46)
          to label %668 unwind label %692

668:                                              ; preds = %667
  %669 = call ptr @__cxa_allocate_exception(i64 64) #20
  invoke void @_ZN6dealii13ExceptionBaseC2ERKS0_(ptr noundef nonnull align 8 dereferenceable(60) %669, ptr noundef nonnull align 8 dereferenceable(60) %51)
          to label %670 unwind label %672

670:                                              ; preds = %668
  store ptr getelementptr inbounds ({ [6 x ptr] }, ptr @_ZTVN6dealii18StandardExceptions17ExcNotImplementedE, i64 0, inrange i32 0, i64 2), ptr %669, align 8, !tbaa !13
  invoke void @__cxa_throw(ptr nonnull %669, ptr nonnull @_ZTIN6dealii18StandardExceptions17ExcNotImplementedE, ptr nonnull @_ZN6dealii13ExceptionBaseD2Ev) #21
          to label %671 unwind label %692

671:                                              ; preds = %670
  unreachable

672:                                              ; preds = %668
  %673 = landingpad { ptr, i32 }
          cleanup
  call void @__cxa_free_exception(ptr %669) #20
  br label %694

674:                                              ; preds = %639, %654
  %675 = load i32, ptr %47, align 4, !tbaa !36
  %676 = add i32 %675, -1
  %677 = call i32 @llvm.fshl.i32(i32 %676, i32 %676, i32 31)
  switch i32 %677, label %1537 [
    i32 2, label %678
    i32 0, label %890
    i32 1, label %1127
    i32 7, label %1522
  ]

678:                                              ; preds = %674
  %679 = load i32, ptr %49, align 4, !tbaa !36
  %680 = icmp eq i32 %679, 8
  br i1 %680, label %700, label %681

681:                                              ; preds = %678
  invoke void @_ZN6dealii13ExceptionBaseC2Ev(ptr noundef nonnull align 8 dereferenceable(60) %52)
          to label %682 unwind label %633

682:                                              ; preds = %681
  store ptr getelementptr inbounds ({ [6 x ptr] }, ptr @_ZTVN6dealii18StandardExceptions10ExcMessageE, i64 0, inrange i32 0, i64 2), ptr %52, align 8, !tbaa !13
