; ModuleID = 'source/grid/grid_generator.cc'
source_filename = "source/grid/grid_generator.cc"
target datalayout = "e-m:e-p270:32:32-p271:32:32-p272:64:64-i64:64-f80:128-n8:16:32:64-S128"
target triple = "x86_64-pc-linux-gnu"

module asm ".globl _ZSt21ios_base_library_initv"

%"struct.dealii::GrowingVectorMemory<>::Pool" = type { ptr }
%"struct.std::nothrow_t" = type { i8 }
%"class.dealii::LogStream" = type { %"class.std::stack", ptr, ptr, i32, i32, i8, i8, double, double, i8, ptr, %"class.std::map.208" }
%"class.std::stack" = type { %"class.std::deque" }
%"class.std::deque" = type { %"class.std::_Deque_base" }
%"class.std::_Deque_base" = type { %"struct.std::_Deque_base<std::__cxx11::basic_string<char>, std::allocator<std::__cxx11::basic_string<char> > >::_Deque_impl" }
%"struct.std::_Deque_base<std::__cxx11::basic_string<char>, std::allocator<std::__cxx11::basic_string<char> > >::_Deque_impl" = type { %"struct.std::_Deque_base<std::__cxx11::basic_string<char>, std::allocator<std::__cxx11::basic_string<char> > >::_Deque_impl_data" }
%"struct.std::_Deque_base<std::__cxx11::basic_string<char>, std::allocator<std::__cxx11::basic_string<char> > >::_Deque_impl_data" = type { ptr, i64, %"struct.std::_Deque_iterator", %"struct.std::_Deque_iterator" }
%"struct.std::_Deque_iterator" = type { ptr, ptr, ptr, ptr }
%"class.std::map.208" = type { %"class.std::_Rb_tree.209" }
%"class.std::_Rb_tree.209" = type { %"struct.std::_Rb_tree<unsigned int, std::pair<const unsigned int, boost::shared_ptr<std::__cxx11::basic_ostringstream<char> > >, std::_Select1st<std::pair<const unsigned int, boost::shared_ptr<std::__cxx11::basic_ostringstream<char> > > >, std::less<unsigned int> >::_Rb_tree_impl" }
%"struct.std::_Rb_tree<unsigned int, std::pair<const unsigned int, boost::shared_ptr<std::__cxx11::basic_ostringstream<char> > >, std::_Select1st<std::pair<const unsigned int, boost::shared_ptr<std::__cxx11::basic_ostringstream<char> > > >, std::less<unsigned int> >::_Rb_tree_impl" = type { %"struct.std::_Rb_tree_key_compare.142", %"struct.std::_Rb_tree_header" }
%"struct.std::_Rb_tree_key_compare.142" = type { %"struct.std::less.143" }
%"struct.std::less.143" = type { i8 }
%"struct.std::_Rb_tree_header" = type { %"struct.std::_Rb_tree_node_base", i64 }
%"struct.std::_Rb_tree_node_base" = type { i32, ptr, ptr, ptr }
%"struct.boost::detail::function::basic_vtable3" = type { %"struct.boost::detail::function::vtable_base", ptr }
%"struct.boost::detail::function::vtable_base" = type { ptr }
%"struct.boost::detail::function::basic_vtable0" = type { %"struct.boost::detail::function::vtable_base", ptr }
%"class.dealii::Point" = type { %"class.dealii::Tensor" }
%"class.dealii::Tensor" = type { [3 x double] }
%"class.dealii::TriaIterator" = type { %"class.dealii::TriaRawIterator" }
%"class.dealii::TriaRawIterator" = type { %"class.dealii::CellAccessor" }
%"class.dealii::CellAccessor" = type { %"class.dealii::TriaAccessor" }
%"class.dealii::TriaAccessor" = type { %"class.dealii::TriaAccessorBase" }
%"class.dealii::TriaAccessorBase" = type { i32, i32, ptr }
%"class.std::vector.19" = type { %"struct.std::_Vector_base.20" }
%"struct.std::_Vector_base.20" = type { %"struct.std::_Vector_base<dealii::Point<3>, std::allocator<dealii::Point<3> > >::_Vector_impl" }
%"struct.std::_Vector_base<dealii::Point<3>, std::allocator<dealii::Point<3> > >::_Vector_impl" = type { %"struct.std::_Vector_base<dealii::Point<3>, std::allocator<dealii::Point<3> > >::_Vector_impl_data" }
%"struct.std::_Vector_base<dealii::Point<3>, std::allocator<dealii::Point<3> > >::_Vector_impl_data" = type { ptr, ptr, ptr }
%"class.std::vector.38" = type { %"struct.std::_Vector_base.39" }
%"struct.std::_Vector_base.39" = type { %"struct.std::_Vector_base<dealii::CellData<3>, std::allocator<dealii::CellData<3> > >::_Vector_impl" }
%"struct.std::_Vector_base<dealii::CellData<3>, std::allocator<dealii::CellData<3> > >::_Vector_impl" = type { %"struct.std::_Vector_base<dealii::CellData<3>, std::allocator<dealii::CellData<3> > >::_Vector_impl_data" }
%"struct.std::_Vector_base<dealii::CellData<3>, std::allocator<dealii::CellData<3> > >::_Vector_impl_data" = type { ptr, ptr, ptr }
%"struct.dealii::SubCellData" = type { %"class.std::vector.43", %"class.std::vector.48" }
%"class.std::vector.43" = type { %"struct.std::_Vector_base.44" }
%"struct.std::_Vector_base.44" = type { %"struct.std::_Vector_base<dealii::CellData<1>, std::allocator<dealii::CellData<1> > >::_Vector_impl" }
%"struct.std::_Vector_base<dealii::CellData<1>, std::allocator<dealii::CellData<1> > >::_Vector_impl" = type { %"struct.std::_Vector_base<dealii::CellData<1>, std::allocator<dealii::CellData<1> > >::_Vector_impl_data" }
%"struct.std::_Vector_base<dealii::CellData<1>, std::allocator<dealii::CellData<1> > >::_Vector_impl_data" = type { ptr, ptr, ptr }
%"class.std::vector.48" = type { %"struct.std::_Vector_base.49" }
%"struct.std::_Vector_base.49" = type { %"struct.std::_Vector_base<dealii::CellData<2>, std::allocator<dealii::CellData<2> > >::_Vector_impl" }
%"struct.std::_Vector_base<dealii::CellData<2>, std::allocator<dealii::CellData<2> > >::_Vector_impl" = type { %"struct.std::_Vector_base<dealii::CellData<2>, std::allocator<dealii::CellData<2> > >::_Vector_impl_data" }
%"struct.std::_Vector_base<dealii::CellData<2>, std::allocator<dealii::CellData<2> > >::_Vector_impl_data" = type { ptr, ptr, ptr }
%"struct.dealii::CellData" = type { [8 x i32], i8 }
%"class.dealii::Triangulation" = type { %"class.dealii::Subscriptor", %"class.std::vector", ptr, %"class.std::vector.19", %"class.std::vector.24", [255 x %"class.dealii::SmartPointer"], [255 x %"class.dealii::SmartPointer"], i8, i32, %"struct.dealii::internal::Triangulation::NumberCache", %"class.std::__cxx11::list" }
%"class.dealii::Subscriptor" = type { ptr, i32, %"class.std::map", ptr }
%"class.std::map" = type { %"class.std::_Rb_tree" }
%"class.std::_Rb_tree" = type { %"struct.std::_Rb_tree<const char *, std::pair<const char *const, unsigned int>, std::_Select1st<std::pair<const char *const, unsigned int> >, std::less<const char *> >::_Rb_tree_impl" }
%"struct.std::_Rb_tree<const char *, std::pair<const char *const, unsigned int>, std::_Select1st<std::pair<const char *const, unsigned int> >, std::less<const char *> >::_Rb_tree_impl" = type { %"struct.std::_Rb_tree_key_compare", %"struct.std::_Rb_tree_header" }
%"struct.std::_Rb_tree_key_compare" = type { %"struct.std::less" }
%"struct.std::less" = type { i8 }
%"class.std::vector" = type { %"struct.std::_Vector_base" }
%"struct.std::_Vector_base" = type { %"struct.std::_Vector_base<dealii::internal::Triangulation::TriaLevel<3> *, std::allocator<dealii::internal::Triangulation::TriaLevel<3> *> >::_Vector_impl" }
%"struct.std::_Vector_base<dealii::internal::Triangulation::TriaLevel<3> *, std::allocator<dealii::internal::Triangulation::TriaLevel<3> *> >::_Vector_impl" = type { %"struct.std::_Vector_base<dealii::internal::Triangulation::TriaLevel<3> *, std::allocator<dealii::internal::Triangulation::TriaLevel<3> *> >::_Vector_impl_data" }
%"struct.std::_Vector_base<dealii::internal::Triangulation::TriaLevel<3> *, std::allocator<dealii::internal::Triangulation::TriaLevel<3> *> >::_Vector_impl_data" = type { ptr, ptr, ptr }
%"class.std::vector.24" = type { %"struct.std::_Bvector_base" }
%"struct.std::_Bvector_base" = type { %"struct.std::_Bvector_base<std::allocator<bool> >::_Bvector_impl" }
%"struct.std::_Bvector_base<std::allocator<bool> >::_Bvector_impl" = type { %"struct.std::_Bvector_base<std::allocator<bool> >::_Bvector_impl_data" }
%"struct.std::_Bvector_base<std::allocator<bool> >::_Bvector_impl_data" = type { %"struct.std::_Bit_iterator", %"struct.std::_Bit_iterator", ptr }
%"struct.std::_Bit_iterator" = type { %"struct.std::_Bit_iterator_base.base", [4 x i8] }
%"struct.std::_Bit_iterator_base.base" = type <{ ptr, i32 }>
%"class.dealii::SmartPointer" = type { ptr, ptr }
%"struct.dealii::internal::Triangulation::NumberCache" = type { %"struct.dealii::internal::Triangulation::NumberCache.28", i32, %"class.std::vector.30", i32, %"class.std::vector.30" }
%"struct.dealii::internal::Triangulation::NumberCache.28" = type { %"struct.dealii::internal::Triangulation::NumberCache.29", i32, %"class.std::vector.30", i32, %"class.std::vector.30" }
%"struct.dealii::internal::Triangulation::NumberCache.29" = type { i32, %"class.std::vector.30", i32, %"class.std::vector.30" }
%"class.std::vector.30" = type { %"struct.std::_Vector_base.31" }
%"struct.std::_Vector_base.31" = type { %"struct.std::_Vector_base<unsigned int, std::allocator<unsigned int> >::_Vector_impl" }
%"struct.std::_Vector_base<unsigned int, std::allocator<unsigned int> >::_Vector_impl" = type { %"struct.std::_Vector_base<unsigned int, std::allocator<unsigned int> >::_Vector_impl_data" }
%"struct.std::_Vector_base<unsigned int, std::allocator<unsigned int> >::_Vector_impl_data" = type { ptr, ptr, ptr }
%"class.std::__cxx11::list" = type { %"class.std::__cxx11::_List_base" }
%"class.std::__cxx11::_List_base" = type { %"struct.std::__cxx11::_List_base<dealii::Triangulation<3, 3>::RefinementListener *, std::allocator<dealii::Triangulation<3, 3>::RefinementListener *> >::_List_impl" }
%"struct.std::__cxx11::_List_base<dealii::Triangulation<3, 3>::RefinementListener *, std::allocator<dealii::Triangulation<3, 3>::RefinementListener *> >::_List_impl" = type { %"struct.std::__detail::_List_node_header" }
%"struct.std::__detail::_List_node_header" = type { %"struct.std::__detail::_List_node_base", i64 }
%"struct.std::__detail::_List_node_base" = type { ptr, ptr }
%"class.dealii::internal::Triangulation::TriaLevel" = type { %"class.std::vector.213", %"class.std::vector.24", %"class.std::vector.218", %"class.std::vector.30", %"class.dealii::internal::Triangulation::TriaObjectsHex" }
%"class.std::vector.213" = type { %"struct.std::_Vector_base.214" }
%"struct.std::_Vector_base.214" = type { %"struct.std::_Vector_base<unsigned char, std::allocator<unsigned char> >::_Vector_impl" }
%"struct.std::_Vector_base<unsigned char, std::allocator<unsigned char> >::_Vector_impl" = type { %"struct.std::_Vector_base<unsigned char, std::allocator<unsigned char> >::_Vector_impl_data" }
%"struct.std::_Vector_base<unsigned char, std::allocator<unsigned char> >::_Vector_impl_data" = type { ptr, ptr, ptr }
%"class.std::vector.218" = type { %"struct.std::_Vector_base.219" }
%"struct.std::_Vector_base.219" = type { %"struct.std::_Vector_base<std::pair<int, int>, std::allocator<std::pair<int, int> > >::_Vector_impl" }
%"struct.std::_Vector_base<std::pair<int, int>, std::allocator<std::pair<int, int> > >::_Vector_impl" = type { %"struct.std::_Vector_base<std::pair<int, int>, std::allocator<std::pair<int, int> > >::_Vector_impl_data" }
%"struct.std::_Vector_base<std::pair<int, int>, std::allocator<std::pair<int, int> > >::_Vector_impl_data" = type { ptr, ptr, ptr }
%"class.dealii::internal::Triangulation::TriaObjectsHex" = type { %"class.dealii::internal::Triangulation::TriaObjects.base", %"class.std::vector.24", %"class.std::vector.24", %"class.std::vector.24" }
%"class.dealii::internal::Triangulation::TriaObjects.base" = type <{ %"class.std::vector.223", %"class.std::vector.94", %"class.std::vector.228", %"class.std::vector.24", %"class.std::vector.24", %"class.std::vector.213", i32, i32, i8, [7 x i8], %"class.std::vector.233", i32 }>
%"class.std::vector.223" = type { %"struct.std::_Vector_base.224" }
%"struct.std::_Vector_base.224" = type { %"struct.std::_Vector_base<dealii::internal::Triangulation::TriaObject<3>, std::allocator<dealii::internal::Triangulation::TriaObject<3> > >::_Vector_impl" }
%"struct.std::_Vector_base<dealii::internal::Triangulation::TriaObject<3>, std::allocator<dealii::internal::Triangulation::TriaObject<3> > >::_Vector_impl" = type { %"struct.std::_Vector_base<dealii::internal::Triangulation::TriaObject<3>, std::allocator<dealii::internal::Triangulation::TriaObject<3> > >::_Vector_impl_data" }
%"struct.std::_Vector_base<dealii::internal::Triangulation::TriaObject<3>, std::allocator<dealii::internal::Triangulation::TriaObject<3> > >::_Vector_impl_data" = type { ptr, ptr, ptr }
%"class.std::vector.94" = type { %"struct.std::_Vector_base.95" }
%"struct.std::_Vector_base.95" = type { %"struct.std::_Vector_base<int, std::allocator<int> >::_Vector_impl" }
%"struct.std::_Vector_base<int, std::allocator<int> >::_Vector_impl" = type { %"struct.std::_Vector_base<int, std::allocator<int> >::_Vector_impl_data" }
%"struct.std::_Vector_base<int, std::allocator<int> >::_Vector_impl_data" = type { ptr, ptr, ptr }
%"class.std::vector.228" = type { %"struct.std::_Vector_base.229" }
%"struct.std::_Vector_base.229" = type { %"struct.std::_Vector_base<dealii::RefinementCase<3>, std::allocator<dealii::RefinementCase<3> > >::_Vector_impl" }
%"struct.std::_Vector_base<dealii::RefinementCase<3>, std::allocator<dealii::RefinementCase<3> > >::_Vector_impl" = type { %"struct.std::_Vector_base<dealii::RefinementCase<3>, std::allocator<dealii::RefinementCase<3> > >::_Vector_impl_data" }
%"struct.std::_Vector_base<dealii::RefinementCase<3>, std::allocator<dealii::RefinementCase<3> > >::_Vector_impl_data" = type { ptr, ptr, ptr }
%"class.std::vector.233" = type { %"struct.std::_Vector_base.234" }
%"struct.std::_Vector_base.234" = type { %"struct.std::_Vector_base<dealii::internal::Triangulation::TriaObjects<dealii::internal::Triangulation::TriaObject<3> >::UserData, std::allocator<dealii::internal::Triangulation::TriaObjects<dealii::internal::Triangulation::TriaObject<3> >::UserData> >::_Vector_impl" }
%"struct.std::_Vector_base<dealii::internal::Triangulation::TriaObjects<dealii::internal::Triangulation::TriaObject<3> >::UserData, std::allocator<dealii::internal::Triangulation::TriaObjects<dealii::internal::Triangulation::TriaObject<3> >::UserData> >::_Vector_impl" = type { %"struct.std::_Vector_base<dealii::internal::Triangulation::TriaObjects<dealii::internal::Triangulation::TriaObject<3> >::UserData, std::allocator<dealii::internal::Triangulation::TriaObjects<dealii::internal::Triangulation::TriaObject<3> >::UserData> >::_Vector_impl_data" }
%"struct.std::_Vector_base<dealii::internal::Triangulation::TriaObjects<dealii::internal::Triangulation::TriaObject<3> >::UserData, std::allocator<dealii::internal::Triangulation::TriaObjects<dealii::internal::Triangulation::TriaObject<3> >::UserData> >::_Vector_impl_data" = type { ptr, ptr, ptr }
%"class.dealii::internal::Triangulation::TriaObject" = type { [6 x i32] }
%"class.dealii::internal::Triangulation::TriaObjects.239" = type <{ %"class.std::vector.240", %"class.std::vector.94", %"class.std::vector.245", %"class.std::vector.24", %"class.std::vector.24", %"class.std::vector.213", i32, i32, i8, [7 x i8], %"class.std::vector.250", i32, [4 x i8] }>
%"class.std::vector.240" = type { %"struct.std::_Vector_base.241" }
%"struct.std::_Vector_base.241" = type { %"struct.std::_Vector_base<dealii::internal::Triangulation::TriaObject<2>, std::allocator<dealii::internal::Triangulation::TriaObject<2> > >::_Vector_impl" }
%"struct.std::_Vector_base<dealii::internal::Triangulation::TriaObject<2>, std::allocator<dealii::internal::Triangulation::TriaObject<2> > >::_Vector_impl" = type { %"struct.std::_Vector_base<dealii::internal::Triangulation::TriaObject<2>, std::allocator<dealii::internal::Triangulation::TriaObject<2> > >::_Vector_impl_data" }
%"struct.std::_Vector_base<dealii::internal::Triangulation::TriaObject<2>, std::allocator<dealii::internal::Triangulation::TriaObject<2> > >::_Vector_impl_data" = type { ptr, ptr, ptr }
%"class.std::vector.245" = type { %"struct.std::_Vector_base.246" }
%"struct.std::_Vector_base.246" = type { %"struct.std::_Vector_base<dealii::RefinementCase<2>, std::allocator<dealii::RefinementCase<2> > >::_Vector_impl" }
%"struct.std::_Vector_base<dealii::RefinementCase<2>, std::allocator<dealii::RefinementCase<2> > >::_Vector_impl" = type { %"struct.std::_Vector_base<dealii::RefinementCase<2>, std::allocator<dealii::RefinementCase<2> > >::_Vector_impl_data" }
%"struct.std::_Vector_base<dealii::RefinementCase<2>, std::allocator<dealii::RefinementCase<2> > >::_Vector_impl_data" = type { ptr, ptr, ptr }
%"class.std::vector.250" = type { %"struct.std::_Vector_base.251" }
%"struct.std::_Vector_base.251" = type { %"struct.std::_Vector_base<dealii::internal::Triangulation::TriaObjects<dealii::internal::Triangulation::TriaObject<2> >::UserData, std::allocator<dealii::internal::Triangulation::TriaObjects<dealii::internal::Triangulation::TriaObject<2> >::UserData> >::_Vector_impl" }
%"struct.std::_Vector_base<dealii::internal::Triangulation::TriaObjects<dealii::internal::Triangulation::TriaObject<2> >::UserData, std::allocator<dealii::internal::Triangulation::TriaObjects<dealii::internal::Triangulation::TriaObject<2> >::UserData> >::_Vector_impl" = type { %"struct.std::_Vector_base<dealii::internal::Triangulation::TriaObjects<dealii::internal::Triangulation::TriaObject<2> >::UserData, std::allocator<dealii::internal::Triangulation::TriaObjects<dealii::internal::Triangulation::TriaObject<2> >::UserData> >::_Vector_impl_data" }
%"struct.std::_Vector_base<dealii::internal::Triangulation::TriaObjects<dealii::internal::Triangulation::TriaObject<2> >::UserData, std::allocator<dealii::internal::Triangulation::TriaObjects<dealii::internal::Triangulation::TriaObject<2> >::UserData> >::_Vector_impl_data" = type { ptr, ptr, ptr }
%"class.dealii::TriaRawIterator.68" = type { %"class.dealii::TriaAccessor.65" }
%"class.dealii::TriaAccessor.65" = type { %"class.dealii::TriaAccessorBase.66" }
%"class.dealii::TriaAccessorBase.66" = type { i32, ptr }
%"class.dealii::internal::Triangulation::TriaObject.276" = type { [4 x i32] }
%"class.dealii::internal::Triangulation::TriaObjectsQuad3D" = type { %"class.dealii::internal::Triangulation::TriaObjects.base.255", %"class.std::vector.24" }
%"class.dealii::internal::Triangulation::TriaObjects.base.255" = type <{ %"class.std::vector.240", %"class.std::vector.94", %"class.std::vector.245", %"class.std::vector.24", %"class.std::vector.24", %"class.std::vector.213", i32, i32, i8, [7 x i8], %"class.std::vector.250", i32 }>
%"class.dealii::internal::Triangulation::TriaFaces" = type { %"class.dealii::internal::Triangulation::TriaObjectsQuad3D", %"class.dealii::internal::Triangulation::TriaObjects.256" }
%"class.dealii::internal::Triangulation::TriaObjects.256" = type <{ %"class.std::vector.257", %"class.std::vector.94", %"class.std::vector.262", %"class.std::vector.24", %"class.std::vector.24", %"class.std::vector.213", i32, i32, i8, [7 x i8], %"class.std::vector.267", i32, [4 x i8] }>
%"class.std::vector.257" = type { %"struct.std::_Vector_base.258" }
%"struct.std::_Vector_base.258" = type { %"struct.std::_Vector_base<dealii::internal::Triangulation::TriaObject<1>, std::allocator<dealii::internal::Triangulation::TriaObject<1> > >::_Vector_impl" }
%"struct.std::_Vector_base<dealii::internal::Triangulation::TriaObject<1>, std::allocator<dealii::internal::Triangulation::TriaObject<1> > >::_Vector_impl" = type { %"struct.std::_Vector_base<dealii::internal::Triangulation::TriaObject<1>, std::allocator<dealii::internal::Triangulation::TriaObject<1> > >::_Vector_impl_data" }
%"struct.std::_Vector_base<dealii::internal::Triangulation::TriaObject<1>, std::allocator<dealii::internal::Triangulation::TriaObject<1> > >::_Vector_impl_data" = type { ptr, ptr, ptr }
%"class.std::vector.262" = type { %"struct.std::_Vector_base.263" }
%"struct.std::_Vector_base.263" = type { %"struct.std::_Vector_base<dealii::RefinementCase<1>, std::allocator<dealii::RefinementCase<1> > >::_Vector_impl" }
%"struct.std::_Vector_base<dealii::RefinementCase<1>, std::allocator<dealii::RefinementCase<1> > >::_Vector_impl" = type { %"struct.std::_Vector_base<dealii::RefinementCase<1>, std::allocator<dealii::RefinementCase<1> > >::_Vector_impl_data" }
%"struct.std::_Vector_base<dealii::RefinementCase<1>, std::allocator<dealii::RefinementCase<1> > >::_Vector_impl_data" = type { ptr, ptr, ptr }
%"class.std::vector.267" = type { %"struct.std::_Vector_base.268" }
%"struct.std::_Vector_base.268" = type { %"struct.std::_Vector_base<dealii::internal::Triangulation::TriaObjects<dealii::internal::Triangulation::TriaObject<1> >::UserData, std::allocator<dealii::internal::Triangulation::TriaObjects<dealii::internal::Triangulation::TriaObject<1> >::UserData> >::_Vector_impl" }
%"struct.std::_Vector_base<dealii::internal::Triangulation::TriaObjects<dealii::internal::Triangulation::TriaObject<1> >::UserData, std::allocator<dealii::internal::Triangulation::TriaObjects<dealii::internal::Triangulation::TriaObject<1> >::UserData> >::_Vector_impl" = type { %"struct.std::_Vector_base<dealii::internal::Triangulation::TriaObjects<dealii::internal::Triangulation::TriaObject<1> >::UserData, std::allocator<dealii::internal::Triangulation::TriaObjects<dealii::internal::Triangulation::TriaObject<1> >::UserData> >::_Vector_impl_data" }
%"struct.std::_Vector_base<dealii::internal::Triangulation::TriaObjects<dealii::internal::Triangulation::TriaObject<1> >::UserData, std::allocator<dealii::internal::Triangulation::TriaObjects<dealii::internal::Triangulation::TriaObject<1> >::UserData> >::_Vector_impl_data" = type { ptr, ptr, ptr }
%"class.dealii::internal::Triangulation::TriaObject.277" = type { [2 x i32] }
%"struct.std::_Vector_base<std::vector<double>, std::allocator<std::vector<double> > >::_Vector_impl_data" = type { ptr, ptr, ptr }
%"struct.std::_Vector_base<double, std::allocator<double> >::_Vector_impl_data" = type { ptr, ptr, ptr }
%"class.std::vector.58" = type { %"struct.std::_Vector_base.59" }
%"struct.std::_Vector_base.59" = type { %"struct.std::_Vector_base<double, std::allocator<double> >::_Vector_impl" }
%"struct.std::_Vector_base<double, std::allocator<double> >::_Vector_impl" = type { %"struct.std::_Vector_base<double, std::allocator<double> >::_Vector_impl_data" }
%"class.dealii::Point.80" = type { %"class.dealii::Tensor.81" }
%"class.dealii::Tensor.81" = type { [2 x double] }
%"class.dealii::TriaActiveIterator" = type { %"class.dealii::TriaIterator" }
%"class.dealii::MappingQ1" = type { %"class.dealii::Mapping" }
%"class.dealii::Mapping" = type { %"class.dealii::Subscriptor" }
%"class.dealii::FE_Q" = type { %"class.dealii::FE_Poly", %"class.std::vector.30" }
%"class.dealii::FE_Poly" = type { %"class.dealii::FiniteElement", %"class.dealii::TensorProductPolynomials" }
%"class.dealii::FiniteElement" = type { %"class.dealii::Subscriptor", %"class.dealii::FiniteElementData", i8, %"class.std::vector.85", %"class.std::vector.85", %"class.dealii::FullMatrix", %"class.std::vector.19", %"class.std::vector.75", %"class.std::vector.19", %"class.std::vector.75", %"class.dealii::Table.90", %"class.std::vector.94", %"class.std::vector.99", %"class.std::vector.99", %"class.std::vector.104", %"class.std::vector.104", %"class.std::vector.30", %"class.std::vector.104", %"class.std::vector.24", %"class.std::vector.109", %"class.std::vector.30" }
%"class.dealii::FiniteElementData" = type { i32, i32, i32, i32, i32, i32, i32, i32, i32, i32, i32, i32, i32, i32, i32 }
%"class.std::vector.85" = type { %"struct.std::_Vector_base.86" }
%"struct.std::_Vector_base.86" = type { %"struct.std::_Vector_base<std::vector<dealii::FullMatrix<double> >, std::allocator<std::vector<dealii::FullMatrix<double> > > >::_Vector_impl" }
%"struct.std::_Vector_base<std::vector<dealii::FullMatrix<double> >, std::allocator<std::vector<dealii::FullMatrix<double> > > >::_Vector_impl" = type { %"struct.std::_Vector_base<std::vector<dealii::FullMatrix<double> >, std::allocator<std::vector<dealii::FullMatrix<double> > > >::_Vector_impl_data" }
%"struct.std::_Vector_base<std::vector<dealii::FullMatrix<double> >, std::allocator<std::vector<dealii::FullMatrix<double> > > >::_Vector_impl_data" = type { ptr, ptr, ptr }
%"class.dealii::FullMatrix" = type { %"class.dealii::Table.base", [4 x i8] }
%"class.dealii::Table.base" = type { %"class.dealii::TableBase.base" }
%"class.dealii::TableBase.base" = type <{ %"class.dealii::Subscriptor", ptr, i32, %"class.dealii::TableIndices" }>
%"class.dealii::TableIndices" = type { %"class.dealii::TableIndicesBase" }
%"class.dealii::TableIndicesBase" = type { [2 x i32] }
%"class.std::vector.75" = type { %"struct.std::_Vector_base.76" }
%"struct.std::_Vector_base.76" = type { %"struct.std::_Vector_base<dealii::Point<2>, std::allocator<dealii::Point<2> > >::_Vector_impl" }
%"struct.std::_Vector_base<dealii::Point<2>, std::allocator<dealii::Point<2> > >::_Vector_impl" = type { %"struct.std::_Vector_base<dealii::Point<2>, std::allocator<dealii::Point<2> > >::_Vector_impl_data" }
%"struct.std::_Vector_base<dealii::Point<2>, std::allocator<dealii::Point<2> > >::_Vector_impl_data" = type { ptr, ptr, ptr }
%"class.dealii::Table.90" = type { %"class.dealii::TableBase.base.92", [4 x i8] }
%"class.dealii::TableBase.base.92" = type <{ %"class.dealii::Subscriptor", ptr, i32, %"class.dealii::TableIndices" }>
%"class.std::vector.99" = type { %"struct.std::_Vector_base.100" }
%"struct.std::_Vector_base.100" = type { %"struct.std::_Vector_base<std::pair<unsigned int, unsigned int>, std::allocator<std::pair<unsigned int, unsigned int> > >::_Vector_impl" }
%"struct.std::_Vector_base<std::pair<unsigned int, unsigned int>, std::allocator<std::pair<unsigned int, unsigned int> > >::_Vector_impl" = type { %"struct.std::_Vector_base<std::pair<unsigned int, unsigned int>, std::allocator<std::pair<unsigned int, unsigned int> > >::_Vector_impl_data" }
%"struct.std::_Vector_base<std::pair<unsigned int, unsigned int>, std::allocator<std::pair<unsigned int, unsigned int> > >::_Vector_impl_data" = type { ptr, ptr, ptr }
%"class.std::vector.104" = type { %"struct.std::_Vector_base.105" }
%"struct.std::_Vector_base.105" = type { %"struct.std::_Vector_base<std::pair<std::pair<unsigned int, unsigned int>, unsigned int>, std::allocator<std::pair<std::pair<unsigned int, unsigned int>, unsigned int> > >::_Vector_impl" }
%"struct.std::_Vector_base<std::pair<std::pair<unsigned int, unsigned int>, unsigned int>, std::allocator<std::pair<std::pair<unsigned int, unsigned int>, unsigned int> > >::_Vector_impl" = type { %"struct.std::_Vector_base<std::pair<std::pair<unsigned int, unsigned int>, unsigned int>, std::allocator<std::pair<std::pair<unsigned int, unsigned int>, unsigned int> > >::_Vector_impl_data" }
%"struct.std::_Vector_base<std::pair<std::pair<unsigned int, unsigned int>, unsigned int>, std::allocator<std::pair<std::pair<unsigned int, unsigned int>, unsigned int> > >::_Vector_impl_data" = type { ptr, ptr, ptr }
%"class.std::vector.109" = type { %"struct.std::_Vector_base.110" }
%"struct.std::_Vector_base.110" = type { %"struct.std::_Vector_base<std::vector<bool>, std::allocator<std::vector<bool> > >::_Vector_impl" }
%"struct.std::_Vector_base<std::vector<bool>, std::allocator<std::vector<bool> > >::_Vector_impl" = type { %"struct.std::_Vector_base<std::vector<bool>, std::allocator<std::vector<bool> > >::_Vector_impl_data" }
%"struct.std::_Vector_base<std::vector<bool>, std::allocator<std::vector<bool> > >::_Vector_impl_data" = type { ptr, ptr, ptr }
%"class.dealii::TensorProductPolynomials" = type { %"class.std::vector.114", i32, %"class.std::vector.30", %"class.std::vector.30" }
%"class.std::vector.114" = type { %"struct.std::_Vector_base.115" }
%"struct.std::_Vector_base.115" = type { %"struct.std::_Vector_base<dealii::Polynomials::Polynomial<double>, std::allocator<dealii::Polynomials::Polynomial<double> > >::_Vector_impl" }
%"struct.std::_Vector_base<dealii::Polynomials::Polynomial<double>, std::allocator<dealii::Polynomials::Polynomial<double> > >::_Vector_impl" = type { %"struct.std::_Vector_base<dealii::Polynomials::Polynomial<double>, std::allocator<dealii::Polynomials::Polynomial<double> > >::_Vector_impl_data" }
%"struct.std::_Vector_base<dealii::Polynomials::Polynomial<double>, std::allocator<dealii::Polynomials::Polynomial<double> > >::_Vector_impl_data" = type { ptr, ptr, ptr }
%"class.dealii::DoFHandler" = type { %"class.dealii::Subscriptor", %"class.dealii::SmartPointer.119", %"class.dealii::SmartPointer.120", %"class.std::vector.121", ptr, i32, %"class.std::vector.30" }
%"class.dealii::SmartPointer.119" = type { ptr, ptr }
%"class.dealii::SmartPointer.120" = type { ptr, ptr }
%"class.std::vector.121" = type { %"struct.std::_Vector_base.122" }
%"struct.std::_Vector_base.122" = type { %"struct.std::_Vector_base<dealii::internal::DoFHandler::DoFLevel<3> *, std::allocator<dealii::internal::DoFHandler::DoFLevel<3> *> >::_Vector_impl" }
%"struct.std::_Vector_base<dealii::internal::DoFHandler::DoFLevel<3> *, std::allocator<dealii::internal::DoFHandler::DoFLevel<3> *> >::_Vector_impl" = type { %"struct.std::_Vector_base<dealii::internal::DoFHandler::DoFLevel<3> *, std::allocator<dealii::internal::DoFHandler::DoFLevel<3> *> >::_Vector_impl_data" }
%"struct.std::_Vector_base<dealii::internal::DoFHandler::DoFLevel<3> *, std::allocator<dealii::internal::DoFHandler::DoFLevel<3> *> >::_Vector_impl_data" = type { ptr, ptr, ptr }
%"class.dealii::SparsityPattern" = type <{ %"class.dealii::Subscriptor", i32, i32, i32, [4 x i8], i64, i32, [4 x i8], ptr, ptr, i8, i8, [6 x i8] }>
%"class.dealii::ConstraintMatrix" = type <{ %"class.dealii::Subscriptor", %"class.std::vector.126", %"class.std::vector.24", i8, %"class.dealii::Threads::DummyThreadMutex", [6 x i8] }>
%"class.std::vector.126" = type { %"struct.std::_Vector_base.127" }
%"struct.std::_Vector_base.127" = type { %"struct.std::_Vector_base<dealii::ConstraintMatrix::ConstraintLine, std::allocator<dealii::ConstraintMatrix::ConstraintLine> >::_Vector_impl" }
%"struct.std::_Vector_base<dealii::ConstraintMatrix::ConstraintLine, std::allocator<dealii::ConstraintMatrix::ConstraintLine> >::_Vector_impl" = type { %"struct.std::_Vector_base<dealii::ConstraintMatrix::ConstraintLine, std::allocator<dealii::ConstraintMatrix::ConstraintLine> >::_Vector_impl_data" }
%"struct.std::_Vector_base<dealii::ConstraintMatrix::ConstraintLine, std::allocator<dealii::ConstraintMatrix::ConstraintLine> >::_Vector_impl_data" = type { ptr, ptr, ptr }
%"class.dealii::Threads::DummyThreadMutex" = type { i8 }
%"class.dealii::SparseMatrix" = type <{ ptr, %"class.dealii::SmartPointer.131", ptr, i32, [4 x i8], %"class.dealii::Subscriptor" }>
%"class.dealii::SmartPointer.131" = type { ptr, ptr }
%"class.dealii::QGauss4" = type { %"class.dealii::Quadrature" }
%"class.dealii::Quadrature" = type { %"class.dealii::Subscriptor", i32, %"class.std::vector.19", %"class.std::vector.58" }
%"class.std::map.137" = type { %"class.std::_Rb_tree.138" }
%"class.std::_Rb_tree.138" = type { %"struct.std::_Rb_tree<unsigned int, std::pair<const unsigned int, double>, std::_Select1st<std::pair<const unsigned int, double> >, std::less<unsigned int> >::_Rb_tree_impl" }
%"struct.std::_Rb_tree<unsigned int, std::pair<const unsigned int, double>, std::_Select1st<std::pair<const unsigned int, double> >, std::less<unsigned int> >::_Rb_tree_impl" = type { %"struct.std::_Rb_tree_key_compare.142", %"struct.std::_Rb_tree_header" }
%"class.dealii::TriaIterator.150" = type { %"class.dealii::TriaRawIterator.151" }
%"class.dealii::TriaRawIterator.151" = type { %"class.dealii::DoFCellAccessor" }
%"class.dealii::DoFCellAccessor" = type { %"class.dealii::DoFAccessor" }
%"class.dealii::DoFAccessor" = type { %"class.dealii::CellAccessor", ptr }
%"class.dealii::TriaActiveIterator.153" = type { %"class.dealii::TriaIterator.150" }
%"class.dealii::Vector" = type { %"class.dealii::Subscriptor", i32, i32, ptr }
%"class.dealii::Threads::ThreadGroup" = type { %"class.std::__cxx11::list.164" }
%"class.std::__cxx11::list.164" = type { %"class.std::__cxx11::_List_base.165" }
%"class.std::__cxx11::_List_base.165" = type { %"struct.std::__cxx11::_List_base<dealii::Threads::Thread<>, std::allocator<dealii::Threads::Thread<> > >::_List_impl" }
%"struct.std::__cxx11::_List_base<dealii::Threads::Thread<>, std::allocator<dealii::Threads::Thread<> > >::_List_impl" = type { %"struct.std::__detail::_List_node_header" }
%"class.dealii::Threads::Thread" = type { %"class.boost::shared_ptr" }
%"class.boost::shared_ptr" = type { ptr, %"class.boost::detail::shared_count" }
%"class.boost::detail::shared_count" = type { ptr }
%"class.dealii::Threads::internal::fun_encapsulator" = type { %"class.boost::function" }
%"class.boost::function" = type { %"class.boost::function3" }
%"class.boost::function3" = type { %"class.boost::function_base" }
%"class.boost::function_base" = type { ptr, %"union.boost::detail::function::function_buffer" }
%"union.boost::detail::function::function_buffer" = type { %"struct.boost::detail::function::function_buffer::bound_memfunc_ptr_t" }
%"struct.boost::detail::function::function_buffer::bound_memfunc_ptr_t" = type { { i64, i64 }, ptr }
%"struct.dealii::ConstraintMatrix::ConstraintLine" = type { i32, %"class.std::vector.174", double }
%"class.std::vector.174" = type { %"struct.std::_Vector_base.175" }
%"struct.std::_Vector_base.175" = type { %"struct.std::_Vector_base<std::pair<unsigned int, double>, std::allocator<std::pair<unsigned int, double> > >::_Vector_impl" }
%"struct.std::_Vector_base<std::pair<unsigned int, double>, std::allocator<std::pair<unsigned int, double> > >::_Vector_impl" = type { %"struct.std::_Vector_base<std::pair<unsigned int, double>, std::allocator<std::pair<unsigned int, double> > >::_Vector_impl_data" }
%"struct.std::_Vector_base<std::pair<unsigned int, double>, std::allocator<std::pair<unsigned int, double> > >::_Vector_impl_data" = type { ptr, ptr, ptr }
%"struct.std::_Rb_tree_node.279" = type { %"struct.std::_Rb_tree_node_base", %"struct.std::pair.162" }
%"struct.std::pair.162" = type { i32, %"class.dealii::Point" }
%"struct.std::_Rb_tree_node" = type { %"struct.std::_Rb_tree_node_base", %"struct.std::pair.158" }
%"struct.std::pair.158" = type { i32, double }
%"struct.std::_List_node" = type { %"struct.std::__detail::_List_node_base", %"class.dealii::Threads::Thread" }
%"class.boost::detail::sp_counted_base" = type { ptr, i64, i64 }
%"class.dealii::FilteredMatrix" = type { %"class.dealii::Subscriptor", i8, %"class.boost::shared_ptr.188", %"class.std::vector.174" }
%"class.boost::shared_ptr.188" = type { ptr, %"class.boost::detail::shared_count" }
%"class.dealii::PreconditionJacobi" = type { %"class.dealii::PreconditionRelaxation" }
%"class.dealii::PreconditionRelaxation" = type { %"class.dealii::Subscriptor", %"class.dealii::SmartPointer.189", double }
%"class.dealii::SmartPointer.189" = type { ptr, ptr }
%"class.dealii::SolverControl" = type { %"class.dealii::Subscriptor", i32, double, i32, double, double, i32, i8, double, double, i8, i32, i8, i8, %"class.std::vector.58" }
%"class.dealii::GrowingVectorMemory" = type <{ %"class.dealii::VectorMemory", i32, i32, i8, [7 x i8] }>
%"class.dealii::VectorMemory" = type { %"class.dealii::Subscriptor" }
%"class.dealii::SolverCG" = type <{ %"class.dealii::Solver", ptr, ptr, ptr, ptr, double, %"struct.dealii::SolverCG<>::AdditionalData", [4 x i8] }>
%"class.dealii::Solver" = type { %"class.dealii::Subscriptor", %"class.dealii::GrowingVectorMemory", ptr, ptr }
%"struct.dealii::SolverCG<>::AdditionalData" = type { i8, i8, i8, i8 }
%"struct.std::pair.160" = type { i32, double }
%"class.boost::function.284" = type { %"class.boost::function0" }
%"class.boost::function0" = type { %"class.boost::function_base" }
%"class.boost::_bi::bind_t" = type { %"class.boost::function", %"class.boost::_bi::list3" }
%"class.boost::_bi::list3" = type { %"struct.boost::_bi::storage3" }
%"struct.boost::_bi::storage3" = type { %"struct.boost::_bi::storage2", %"class.boost::reference_wrapper.286" }
%"struct.boost::_bi::storage2" = type { %"struct.boost::_bi::storage1", %"class.boost::reference_wrapper.285" }
%"struct.boost::_bi::storage1" = type { %"class.boost::reference_wrapper" }
%"class.boost::reference_wrapper" = type { ptr }
%"class.boost::reference_wrapper.285" = type { ptr }
%"class.boost::reference_wrapper.286" = type { ptr }
%"class.dealii::TableBase.170" = type { %"class.dealii::Subscriptor", ptr, i32, %"class.dealii::TableIndices.171" }
%"class.dealii::TableIndices.171" = type { %"class.dealii::TableIndicesBase.172" }
%"class.dealii::TableIndicesBase.172" = type { [3 x i32] }
%"class.std::__cxx11::basic_string" = type { %"struct.std::__cxx11::basic_string<char>::_Alloc_hider", i64, %union.anon }
%"struct.std::__cxx11::basic_string<char>::_Alloc_hider" = type { ptr }
%union.anon = type { i64, [8 x i8] }
%"class.dealii::Tensor.63" = type { [3 x %"class.dealii::Tensor"] }
%"class.dealii::Polynomials::Polynomial" = type { %"class.dealii::Subscriptor", %"class.std::vector.58" }
%"struct.std::_Vector_base<std::pair<bool, dealii::Vector<double> *>, std::allocator<std::pair<bool, dealii::Vector<double> *> > >::_Vector_impl_data" = type { ptr, ptr, ptr }
%"struct.std::pair.197" = type { i8, ptr }
%"class.dealii::TridiagonalMatrix" = type { %"class.std::vector.58", %"class.std::vector.58", %"class.std::vector.58", i8, i32 }
%"class.std::ios_base" = type { ptr, i64, i64, i32, i32, i32, ptr, %"struct.std::ios_base::_Words", [8 x %"struct.std::ios_base::_Words"], i32, ptr, %"class.std::locale" }
%"struct.std::ios_base::_Words" = type { ptr, i64 }
%"class.std::locale" = type { ptr }
%"class.dealii::StandardExceptions::ExcMemoryLeak" = type { %"class.dealii::ExceptionBase.base", i32 }
%"class.dealii::ExceptionBase.base" = type <{ %"class.std::exception", ptr, i32, [4 x i8], ptr, ptr, ptr, ptr, i32 }>
%"class.std::exception" = type { ptr }
%"class.dealii::PointerMatrix" = type { %"class.dealii::PointerMatrixBase", %"class.dealii::SmartPointer.189" }
%"class.dealii::PointerMatrixBase" = type { %"class.dealii::Subscriptor" }
%"class.boost::detail::sp_counted_impl_p" = type { %"class.boost::detail::sp_counted_base", ptr }
%"class.dealii::PointerMatrixAux" = type { %"class.dealii::PointerMatrixBase", %"class.dealii::GrowingVectorMemory", %"class.dealii::SmartPointer.190", %"class.dealii::SmartPointer.191" }
%"class.dealii::SmartPointer.190" = type { ptr, ptr }
%"class.dealii::SmartPointer.191" = type { ptr, ptr }
%"class.std::basic_ios" = type { %"class.std::ios_base", ptr, i8, i8, ptr, ptr, ptr, ptr }
%"class.std::ctype" = type <{ %"class.std::locale::facet.base", [4 x i8], ptr, i8, [7 x i8], ptr, ptr, ptr, i8, [256 x i8], [256 x i8], i8, [6 x i8] }>
%"class.std::locale::facet.base" = type <{ ptr, i32 }>
%"struct.std::_Rb_tree<unsigned int, std::pair<const unsigned int, double>, std::_Select1st<std::pair<const unsigned int, double> >, std::less<unsigned int> >::_Alloc_node" = type { ptr }
%"struct.boost::detail::function::function_buffer::type_t" = type { ptr, i8, i8 }
%"class.std::type_info" = type { ptr, ptr }
%"class.boost::detail::sp_counted_impl_p.288" = type { %"class.boost::detail::sp_counted_base", ptr }
%"class.boost::bad_function_call" = type { %"class.std::runtime_error" }
%"class.std::runtime_error" = type { %"class.std::exception", %"struct.std::__cow_string" }
%"struct.std::__cow_string" = type { %union.anon.287 }
%union.anon.287 = type { ptr }
%"struct.boost::exception_detail::error_info_injector" = type <{ %"class.boost::bad_function_call", %"class.boost::exception.base", [4 x i8] }>
%"class.boost::exception.base" = type <{ ptr, %"class.boost::exception_detail::refcount_ptr", ptr, ptr, i32 }>
%"class.boost::exception_detail::refcount_ptr" = type { ptr }
%"class.dealii::Threads::Thread<>::ExcNoThread" = type { %"class.dealii::ExceptionBase.base", [4 x i8] }

$_ZN6dealii13GridGenerator10hyper_cubeILi3ELi3EEEvRNS_13TriangulationIXT_EXT0_EEEdd = comdat any

$_ZN6dealii13GridGenerator15hyper_rectangleILi3ELi3EEEvRNS_13TriangulationIXT_EXT0_EEERKNS_5PointIXT0_EEES8_b = comdat any

$_ZN6dealii13GridGenerator21subdivided_hyper_cubeILi3EEEvRNS_13TriangulationIXT_EXT_EEEjdd = comdat any

$_ZN6dealii11SubCellDataD2Ev = comdat any

$__clang_call_terminate = comdat any

$_ZN6dealii13GridGenerator26subdivided_hyper_rectangleILi3EEEvRNS_13TriangulationIXT_EXT_EEERKSt6vectorIjSaIjEERKNS_5PointIXT_EEESD_b = comdat any

$_ZN6dealii13GridGenerator35colorize_subdivided_hyper_rectangleILi3EEEvRNS_13TriangulationIXT_EXT_EEERKNS_5PointIXT_EEES8_d = comdat any

$_ZN6dealii13GridGenerator26subdivided_hyper_rectangleILi3EEEvRNS_13TriangulationIXT_EXT_EEERKSt6vectorIS5_IdSaIdEESaIS7_EERKNS_5PointIXT_EEESF_b = comdat any

$_ZN6dealii13GridGenerator13parallelogramILi3EEEvRNS_13TriangulationIXT_EXT_EEERKNS_6TensorILi2EXT_EEEb = comdat any

$_ZN6dealii13GridGenerator19enclosed_hyper_cubeILi3EEEvRNS_13TriangulationIXT_EXT_EEEdddb = comdat any

$_ZN6dealii13GridGenerator10hyper_ballILi3EEEvRNS_13TriangulationIXT_EXT_EEERKNS_5PointIXT_EEEd = comdat any

$_ZN6dealii13GridGenerator8cylinderILi3EEEvRNS_13TriangulationIXT_EXT_EEEdd = comdat any

$_ZN6dealii13GridGenerator7hyper_LILi3EEEvRNS_13TriangulationIXT_EXT_EEEdd = comdat any

$_ZN6dealii13GridGenerator15hyper_cube_slitILi3EEEvRNS_13TriangulationIXT_EXT_EEEddb = comdat any

$_ZN6dealii13GridGenerator11hyper_shellILi3EEEvRNS_13TriangulationIXT_EXT_EEERKNS_5PointIXT_EEEddjb = comdat any

$_ZN6dealii13GridGenerator20colorize_hyper_shellILi3EEEvRNS_13TriangulationIXT_EXT_EEERKNS_5PointIXT_EEEdd = comdat any

$_ZN6dealii13GridGenerator14cylinder_shellILi3EEEvRNS_13TriangulationIXT_EXT_EEEdddjj = comdat any

$_ZN6dealii13GridGenerator15half_hyper_ballILi3EEEvRNS_13TriangulationIXT_EXT_EEERKNS_5PointIXT_EEEd = comdat any

$_ZN6dealii13GridGenerator16half_hyper_shellILi3EEEvRNS_13TriangulationIXT_EXT_EEERKNS_5PointIXT_EEEddj = comdat any

$_ZN6dealii13GridGenerator32hyper_cube_with_cylindrical_holeILi3EEEvRNS_13TriangulationIXT_EXT_EEEdddjb = comdat any

$_ZN6dealii13GridGenerator22laplace_transformationILi3EEEvRNS_13TriangulationIXT_EXT_EEERKSt3mapIjNS_5PointIXT_EEESt4lessIjESaISt4pairIKjS7_EEE = comdat any

$_ZN6dealii16ConstraintMatrixD2Ev = comdat any

$_ZN6dealii6VectorIdED2Ev = comdat any

$_ZN6dealii13GridGenerator13laplace_solveERKNS_12SparseMatrixIdEERKSt3mapIjdSt4lessIjESaISt4pairIKjdEEERNS_6VectorIdEE = comdat any

$_ZN6dealii7Threads8internal16fun_encapsulatorIvN5boost6tuples5tupleIRKNS_12SparseMatrixIdEERKSt3mapIjdSt4lessIjESaISt4pairIKjdEEERNS_6VectorIdEENS4_9null_typeESN_SN_SN_SN_SN_SN_EELi3EEclES9_SJ_SM_ = comdat any

$_ZN6dealii7Threads6ThreadIvED2Ev = comdat any

$_ZN6dealii7Threads11ThreadGroupIvED2Ev = comdat any

$_ZN6dealii4FE_QILi3ELi3EED2Ev = comdat any

$_ZNK6dealii12TriaAccessorILi3ELi3ELi3EE6centerEv = comdat any

$_ZN6dealii16ConstraintMatrixD0Ev = comdat any

$_ZNSt8_Rb_treeIjSt4pairIKjdESt10_Select1stIS2_ESt4lessIjESaIS2_EE8_M_eraseEPSt13_Rb_tree_nodeIS2_E = comdat any

$_ZN5boost10shared_ptrIN6dealii7Threads8internal16ThreadDescriptorIvEEED2Ev = comdat any

$_ZN6dealii4FE_QILi3ELi3EED0Ev = comdat any

$_ZN6dealii7FE_PolyINS_24TensorProductPolynomialsILi3EEELi3ELi3EED2Ev = comdat any

$_ZN6dealii7FE_PolyINS_24TensorProductPolynomialsILi3EEELi3ELi3EED0Ev = comdat any

$_ZN6dealii8SolverCGINS_6VectorIdEEEC2ERNS_13SolverControlERNS_12VectorMemoryIS2_EERKNS3_14AdditionalDataE = comdat any

$_ZNK6dealii14FilteredMatrixINS_6VectorIdEEE17apply_constraintsERS2_b = comdat any

$_ZN6dealii8SolverCGINS_6VectorIdEEE5solveINS_14FilteredMatrixIS2_EES6_EEvRKT_RS2_RKS2_RKT0_ = comdat any

$_ZN6dealii6SolverINS_6VectorIdEEED2Ev = comdat any

$_ZN6dealii19GrowingVectorMemoryINS_6VectorIdEEED2Ev = comdat any

$_ZN6dealii14FilteredMatrixINS_6VectorIdEEED2Ev = comdat any

$_ZN6dealii22PreconditionRelaxationINS_12SparseMatrixIdEEED2Ev = comdat any

$_ZN6dealii14FilteredMatrixINS_6VectorIdEEE10initializeINS_12SparseMatrixIdEEEEvRKT_b = comdat any

$_ZN5boost10shared_ptrIN6dealii17PointerMatrixBaseINS1_6VectorIdEEEEED2Ev = comdat any

$_ZN6dealii14FilteredMatrixINS_6VectorIdEEED0Ev = comdat any

$_ZN6dealii13PointerMatrixINS_12SparseMatrixIdEENS_6VectorIdEEED2Ev = comdat any

$_ZN6dealii13PointerMatrixINS_12SparseMatrixIdEENS_6VectorIdEEED0Ev = comdat any

$_ZN6dealii13PointerMatrixINS_12SparseMatrixIdEENS_6VectorIdEEE5clearEv = comdat any

$_ZNK6dealii13PointerMatrixINS_12SparseMatrixIdEENS_6VectorIdEEE5vmultERS4_RKS4_ = comdat any

$_ZNK6dealii13PointerMatrixINS_12SparseMatrixIdEENS_6VectorIdEEE6TvmultERS4_RKS4_ = comdat any

$_ZNK6dealii13PointerMatrixINS_12SparseMatrixIdEENS_6VectorIdEEE9vmult_addERS4_RKS4_ = comdat any

$_ZNK6dealii13PointerMatrixINS_12SparseMatrixIdEENS_6VectorIdEEE10Tvmult_addERS4_RKS4_ = comdat any

$_ZNK6dealii13PointerMatrixINS_12SparseMatrixIdEENS_6VectorIdEEE3getEv = comdat any

$_ZN5boost6detail17sp_counted_impl_pIN6dealii17PointerMatrixBaseINS2_6VectorIdEEEEED0Ev = comdat any

$_ZN5boost6detail17sp_counted_impl_pIN6dealii17PointerMatrixBaseINS2_6VectorIdEEEEE7disposeEv = comdat any

$_ZN5boost6detail15sp_counted_base7destroyEv = comdat any

$_ZN5boost6detail17sp_counted_impl_pIN6dealii17PointerMatrixBaseINS2_6VectorIdEEEEE11get_deleterERKSt9type_info = comdat any

$_ZN6dealii18PreconditionJacobiINS_12SparseMatrixIdEEED0Ev = comdat any

$_ZN6dealii22PreconditionRelaxationINS_12SparseMatrixIdEEED0Ev = comdat any

$_ZN6dealii14FilteredMatrixINS_6VectorIdEEE10initializeINS_18PreconditionJacobiINS_12SparseMatrixIdEEEEEEvRKT_b = comdat any

$_ZN6dealii16PointerMatrixAuxIKNS_18PreconditionJacobiINS_12SparseMatrixIdEEEENS_6VectorIdEEEC2EPNS_12VectorMemoryIS7_EEPS5_PKc = comdat any

$_ZN6dealii16PointerMatrixAuxIKNS_18PreconditionJacobiINS_12SparseMatrixIdEEEENS_6VectorIdEEED2Ev = comdat any

$_ZN6dealii16PointerMatrixAuxIKNS_18PreconditionJacobiINS_12SparseMatrixIdEEEENS_6VectorIdEEED0Ev = comdat any

$_ZN6dealii16PointerMatrixAuxIKNS_18PreconditionJacobiINS_12SparseMatrixIdEEEENS_6VectorIdEEE5clearEv = comdat any

$_ZNK6dealii16PointerMatrixAuxIKNS_18PreconditionJacobiINS_12SparseMatrixIdEEEENS_6VectorIdEEE5vmultERS7_RKS7_ = comdat any

$_ZNK6dealii16PointerMatrixAuxIKNS_18PreconditionJacobiINS_12SparseMatrixIdEEEENS_6VectorIdEEE6TvmultERS7_RKS7_ = comdat any

$_ZNK6dealii16PointerMatrixAuxIKNS_18PreconditionJacobiINS_12SparseMatrixIdEEEENS_6VectorIdEEE9vmult_addERS7_RKS7_ = comdat any

$_ZNK6dealii16PointerMatrixAuxIKNS_18PreconditionJacobiINS_12SparseMatrixIdEEEENS_6VectorIdEEE10Tvmult_addERS7_RKS7_ = comdat any

$_ZNK6dealii16PointerMatrixAuxIKNS_18PreconditionJacobiINS_12SparseMatrixIdEEEENS_6VectorIdEEE3getEv = comdat any

$_ZN6dealii19GrowingVectorMemoryINS_6VectorIdEEED0Ev = comdat any

$_ZN6dealii19GrowingVectorMemoryINS_6VectorIdEEE5allocEv = comdat any

$_ZN6dealii19GrowingVectorMemoryINS_6VectorIdEEE4freeEPKS2_ = comdat any

$_ZN6dealii8SolverCGINS_6VectorIdEEED0Ev = comdat any

$_ZN6dealii8SolverCGINS_6VectorIdEEE9criterionEv = comdat any

$_ZNK6dealii8SolverCGINS_6VectorIdEEE13print_vectorsEjRKS2_S5_S5_ = comdat any

$_ZN6dealii6SolverINS_6VectorIdEEED0Ev = comdat any

$_ZN6dealii6VectorIdED0Ev = comdat any

$_ZN6dealii6VectorIdE6reinitEjb = comdat any

$_ZN6dealii6VectorIdE4swapERS1_ = comdat any

$_ZNSt6vectorISt4pairIjdESaIS1_EE15_M_range_insertISt23_Rb_tree_const_iteratorIS0_IKjdEEEEvN9__gnu_cxx17__normal_iteratorIPS1_S3_EET_SD_St20forward_iterator_tag = comdat any

$_ZSt15__inplace_mergeIN9__gnu_cxx17__normal_iteratorIPSt4pairIjdESt6vectorIS3_SaIS3_EEEENS0_5__ops15_Iter_comp_iterIN6dealii14FilteredMatrixINSB_6VectorIdEEE14PairComparisonEEEEvT_SI_SI_T0_ = comdat any

$_ZSt16__merge_adaptiveIN9__gnu_cxx17__normal_iteratorIPSt4pairIjdESt6vectorIS3_SaIS3_EEEElS4_NS0_5__ops15_Iter_comp_iterIN6dealii14FilteredMatrixINSB_6VectorIdEEE14PairComparisonEEEEvT_SI_SI_T0_SJ_T1_T2_ = comdat any

$_ZSt22__merge_without_bufferIN9__gnu_cxx17__normal_iteratorIPSt4pairIjdESt6vectorIS3_SaIS3_EEEElNS0_5__ops15_Iter_comp_iterIN6dealii14FilteredMatrixINSB_6VectorIdEEE14PairComparisonEEEEvT_SI_SI_T0_SJ_T1_ = comdat any

$_ZSt23__merge_adaptive_resizeIN9__gnu_cxx17__normal_iteratorIPSt4pairIjdESt6vectorIS3_SaIS3_EEEElS4_NS0_5__ops15_Iter_comp_iterIN6dealii14FilteredMatrixINSB_6VectorIdEEE14PairComparisonEEEEvT_SI_SI_T0_SJ_T1_SJ_T2_ = comdat any

$_ZSt17__rotate_adaptiveIN9__gnu_cxx17__normal_iteratorIPSt4pairIjdESt6vectorIS3_SaIS3_EEEES4_lET_S9_S9_S9_T1_SA_T0_SA_ = comdat any

$_ZNK6dealii14FilteredMatrixINS_6VectorIdEEE5vmultERS2_RKS2_ = comdat any

$_ZN6dealii8SolverCGINS_6VectorIdEEE7cleanupEv = comdat any

$_ZN6dealii17TridiagonalMatrixIdED2Ev = comdat any

$_ZN6dealii18StandardExceptions13ExcMemoryLeakD0Ev = comdat any

$_ZNK6dealii18StandardExceptions13ExcMemoryLeak10print_infoERSo = comdat any

$_ZNSt6vectorIN6dealii5PointILi3EEESaIS2_EE17_M_realloc_insertEN9__gnu_cxx17__normal_iteratorIPS2_S4_EERKS2_ = comdat any

$_ZNSt6vectorIN6dealii8CellDataILi3EEESaIS2_EE14_M_fill_insertEN9__gnu_cxx17__normal_iteratorIPS2_S4_EEmRKS2_ = comdat any

$_ZSt16__do_uninit_copyIN9__gnu_cxx17__normal_iteratorIPKSt6vectorIdSaIdEES2_IS4_SaIS4_EEEEPS4_ET0_T_SC_SB_ = comdat any

$_ZSt18__do_uninit_fill_nIPSt3mapIjdSt4lessIjESaISt4pairIKjdEEEmS7_ET_S9_T0_RKT1_ = comdat any

$_ZNSt8_Rb_treeIjSt4pairIKjdESt10_Select1stIS2_ESt4lessIjESaIS2_EE7_M_copyILb0ENS8_11_Alloc_nodeEEEPSt13_Rb_tree_nodeIS2_ESD_PSt18_Rb_tree_node_baseRT0_ = comdat any

$_ZN5boost6detail8function15functor_managerIPFvRKN6dealii12SparseMatrixIdEERKSt3mapIjdSt4lessIjESaISt4pairIKjdEEERNS3_6VectorIdEEEE6manageERKNS1_15function_bufferERSO_NS1_30functor_manager_operation_typeE = comdat any

$_ZN5boost6detail8function22void_function_invoker3IPFvRKN6dealii12SparseMatrixIdEERKSt3mapIjdSt4lessIjESaISt4pairIKjdEEERNS3_6VectorIdEEEvS7_SH_SK_E6invokeERNS1_15function_bufferES7_SH_SK_ = comdat any

$_ZN5boost8functionIFvvEEC2INS_3_bi6bind_tINS4_11unspecifiedENS0_IFvRKN6dealii12SparseMatrixIdEERKSt3mapIjdSt4lessIjESaISt4pairIKjdEEERNS7_6VectorIdEEEEENS4_5list3INS_17reference_wrapperISA_EENSS_ISK_EENSS_ISN_EEEEEEEET_NS_11enable_if_cIXsr5boost11type_traits7ice_notIXsr11is_integralISY_EE5valueEEE5valueEiE4typeE = comdat any

$_ZN6dealii7Threads6ThreadIvEC2ERKN5boost8functionIFvvEEE = comdat any

$_ZN5boost9function0IvE9assign_toINS_3_bi6bind_tINS3_11unspecifiedENS_8functionIFvRKN6dealii12SparseMatrixIdEERKSt3mapIjdSt4lessIjESaISt4pairIKjdEEERNS7_6VectorIdEEEEENS3_5list3INS_17reference_wrapperISA_EENSS_ISK_EENSS_ISN_EEEEEEEEvT_ = comdat any

$_ZN5boost6detail8function15functor_managerINS_3_bi6bind_tINS3_11unspecifiedENS_8functionIFvRKN6dealii12SparseMatrixIdEERKSt3mapIjdSt4lessIjESaISt4pairIKjdEEERNS7_6VectorIdEEEEENS3_5list3INS_17reference_wrapperISA_EENSS_ISK_EENSS_ISN_EEEEEEE6manageERKNS1_15function_bufferERSZ_NS1_30functor_manager_operation_typeE = comdat any

$_ZN5boost6detail8function26void_function_obj_invoker0INS_3_bi6bind_tINS3_11unspecifiedENS_8functionIFvRKN6dealii12SparseMatrixIdEERKSt3mapIjdSt4lessIjESaISt4pairIKjdEEERNS7_6VectorIdEEEEENS3_5list3INS_17reference_wrapperISA_EENSS_ISK_EENSS_ISN_EEEEEEvE6invokeERNS1_15function_bufferE = comdat any

$_ZN5boost6detail8function15functor_managerINS_3_bi6bind_tINS3_11unspecifiedENS_8functionIFvRKN6dealii12SparseMatrixIdEERKSt3mapIjdSt4lessIjESaISt4pairIKjdEEERNS7_6VectorIdEEEEENS3_5list3INS_17reference_wrapperISA_EENSS_ISK_EENSS_ISN_EEEEEEE7managerERKNS1_15function_bufferERSZ_NS1_30functor_manager_operation_typeEN4mpl_5bool_ILb0EEE = comdat any

$_ZNK5boost9function3IvRKN6dealii12SparseMatrixIdEERKSt3mapIjdSt4lessIjESaISt4pairIKjdEEERNS1_6VectorIdEEEclES5_SF_SI_ = comdat any

$_ZN5boost15throw_exceptionINS_17bad_function_callEEEvRKT_ = comdat any

$_ZN5boost16exception_detail10clone_implINS0_19error_info_injectorINS_17bad_function_callEEEED2Ev = comdat any

$_ZN5boost16exception_detail19error_info_injectorINS_17bad_function_callEED2Ev = comdat any

$_ZN5boost16exception_detail10clone_implINS0_19error_info_injectorINS_17bad_function_callEEEED0Ev = comdat any

$_ZNK5boost16exception_detail10clone_implINS0_19error_info_injectorINS_17bad_function_callEEEE5cloneEv = comdat any

$_ZNK5boost16exception_detail10clone_implINS0_19error_info_injectorINS_17bad_function_callEEEE7rethrowEv = comdat any

$_ZThn16_N5boost16exception_detail10clone_implINS0_19error_info_injectorINS_17bad_function_callEEEED1Ev = comdat any

$_ZThn16_N5boost16exception_detail10clone_implINS0_19error_info_injectorINS_17bad_function_callEEEED0Ev = comdat any

$_ZThn56_NK5boost16exception_detail10clone_implINS0_19error_info_injectorINS_17bad_function_callEEEE5cloneEv = comdat any

$_ZThn56_NK5boost16exception_detail10clone_implINS0_19error_info_injectorINS_17bad_function_callEEEE7rethrowEv = comdat any

$_ZThn56_N5boost16exception_detail10clone_implINS0_19error_info_injectorINS_17bad_function_callEEEED1Ev = comdat any

$_ZThn56_N5boost16exception_detail10clone_implINS0_19error_info_injectorINS_17bad_function_callEEEED0Ev = comdat any

$_ZN5boost16exception_detail19error_info_injectorINS_17bad_function_callEED0Ev = comdat any

$_ZThn16_N5boost16exception_detail19error_info_injectorINS_17bad_function_callEED1Ev = comdat any

$_ZThn16_N5boost16exception_detail19error_info_injectorINS_17bad_function_callEED0Ev = comdat any

$_ZN5boost17bad_function_callD0Ev = comdat any

$_ZN5boost16exception_detail10clone_implINS0_19error_info_injectorINS_17bad_function_callEEEEC2ERKS5_ = comdat any

$_ZN5boost6detail8function13basic_vtable0IvE9assign_toINS_3_bi6bind_tINS5_11unspecifiedENS_8functionIFvRKN6dealii12SparseMatrixIdEERKSt3mapIjdSt4lessIjESaISt4pairIKjdEEERNS9_6VectorIdEEEEENS5_5list3INS_17reference_wrapperISC_EENSU_ISM_EENSU_ISP_EEEEEEEEbT_RNS1_15function_bufferENS1_16function_obj_tagE = comdat any

$_ZN5boost6detail15sp_counted_baseD2Ev = comdat any

$_ZN5boost6detail17sp_counted_impl_pIN6dealii7Threads8internal16ThreadDescriptorIvEEED0Ev = comdat any

$_ZN5boost6detail17sp_counted_impl_pIN6dealii7Threads8internal16ThreadDescriptorIvEEE7disposeEv = comdat any

$_ZN5boost6detail17sp_counted_impl_pIN6dealii7Threads8internal16ThreadDescriptorIvEEE11get_deleterERKSt9type_info = comdat any

$_ZNK5boost9function0IvEclEv = comdat any

$_ZNK6dealii7Threads6ThreadIvE4joinEv = comdat any

$_ZN6dealii7Threads6ThreadIvE11ExcNoThreadD0Ev = comdat any

$_ZTVN6dealii16ConstraintMatrixE = comdat any

$_ZTSN6dealii16ConstraintMatrixE = comdat any

$_ZTIN6dealii16ConstraintMatrixE = comdat any

$_ZTVN6dealii4FE_QILi3ELi3EEE = comdat any

$_ZTSN6dealii4FE_QILi3ELi3EEE = comdat any

$_ZTSN6dealii7FE_PolyINS_24TensorProductPolynomialsILi3EEELi3ELi3EEE = comdat any

$_ZTSN6dealii13FiniteElementILi3ELi3EEE = comdat any

$_ZTSN6dealii17FiniteElementDataILi3EEE = comdat any

$_ZTIN6dealii17FiniteElementDataILi3EEE = comdat any

$_ZTIN6dealii13FiniteElementILi3ELi3EEE = comdat any

$_ZTIN6dealii7FE_PolyINS_24TensorProductPolynomialsILi3EEELi3ELi3EEE = comdat any

$_ZTIN6dealii4FE_QILi3ELi3EEE = comdat any

$_ZTVN6dealii7FE_PolyINS_24TensorProductPolynomialsILi3EEELi3ELi3EEE = comdat any

$_ZTVN6dealii14FilteredMatrixINS_6VectorIdEEEE = comdat any

$_ZTSN6dealii14FilteredMatrixINS_6VectorIdEEEE = comdat any

$_ZTIN6dealii14FilteredMatrixINS_6VectorIdEEEE = comdat any

$_ZTVN6dealii13PointerMatrixINS_12SparseMatrixIdEENS_6VectorIdEEEE = comdat any

$_ZTSN6dealii13PointerMatrixINS_12SparseMatrixIdEENS_6VectorIdEEEE = comdat any

$_ZTSN6dealii17PointerMatrixBaseINS_6VectorIdEEEE = comdat any

$_ZTIN6dealii17PointerMatrixBaseINS_6VectorIdEEEE = comdat any

$_ZTIN6dealii13PointerMatrixINS_12SparseMatrixIdEENS_6VectorIdEEEE = comdat any

$_ZTVN5boost6detail17sp_counted_impl_pIN6dealii17PointerMatrixBaseINS2_6VectorIdEEEEEE = comdat any

$_ZTSN5boost6detail17sp_counted_impl_pIN6dealii17PointerMatrixBaseINS2_6VectorIdEEEEEE = comdat any

$_ZTSN5boost6detail15sp_counted_baseE = comdat any

$_ZTIN5boost6detail15sp_counted_baseE = comdat any

$_ZTIN5boost6detail17sp_counted_impl_pIN6dealii17PointerMatrixBaseINS2_6VectorIdEEEEEE = comdat any

$_ZTVN6dealii18PreconditionJacobiINS_12SparseMatrixIdEEEE = comdat any

$_ZTSN6dealii18PreconditionJacobiINS_12SparseMatrixIdEEEE = comdat any

$_ZTSN6dealii22PreconditionRelaxationINS_12SparseMatrixIdEEEE = comdat any

$_ZTIN6dealii22PreconditionRelaxationINS_12SparseMatrixIdEEEE = comdat any

$_ZTIN6dealii18PreconditionJacobiINS_12SparseMatrixIdEEEE = comdat any

$_ZTVN6dealii22PreconditionRelaxationINS_12SparseMatrixIdEEEE = comdat any

$_ZTVN6dealii16PointerMatrixAuxIKNS_18PreconditionJacobiINS_12SparseMatrixIdEEEENS_6VectorIdEEEE = comdat any

$_ZTSN6dealii16PointerMatrixAuxIKNS_18PreconditionJacobiINS_12SparseMatrixIdEEEENS_6VectorIdEEEE = comdat any

$_ZTIN6dealii16PointerMatrixAuxIKNS_18PreconditionJacobiINS_12SparseMatrixIdEEEENS_6VectorIdEEEE = comdat any

$_ZTVN6dealii19GrowingVectorMemoryINS_6VectorIdEEEE = comdat any

$_ZTSN6dealii19GrowingVectorMemoryINS_6VectorIdEEEE = comdat any

$_ZTSN6dealii12VectorMemoryINS_6VectorIdEEEE = comdat any

$_ZTIN6dealii12VectorMemoryINS_6VectorIdEEEE = comdat any

$_ZTIN6dealii19GrowingVectorMemoryINS_6VectorIdEEEE = comdat any

$_ZTVN6dealii8SolverCGINS_6VectorIdEEEE = comdat any

$_ZTSN6dealii8SolverCGINS_6VectorIdEEEE = comdat any

$_ZTSN6dealii6SolverINS_6VectorIdEEEE = comdat any

$_ZTIN6dealii6SolverINS_6VectorIdEEEE = comdat any

$_ZTIN6dealii8SolverCGINS_6VectorIdEEEE = comdat any

$_ZTVN6dealii6SolverINS_6VectorIdEEEE = comdat any

$_ZTVN6dealii6VectorIdEE = comdat any

$_ZTSN6dealii6VectorIdEE = comdat any

$_ZTIN6dealii6VectorIdEE = comdat any

$_ZTSN6dealii18StandardExceptions13ExcMemoryLeakE = comdat any

$_ZTIN6dealii18StandardExceptions13ExcMemoryLeakE = comdat any

$_ZTVN6dealii18StandardExceptions13ExcMemoryLeakE = comdat any

$_ZZN6dealii8internal12TriaAccessor14Implementation12vertex_indexILi3ELi3EEEjRKNS_12TriaAccessorILi2EXT_EXT0_EEEjE12switch_table = comdat any

$_ZZN5boost9function3IvRKN6dealii12SparseMatrixIdEERKSt3mapIjdSt4lessIjESaISt4pairIKjdEEERNS1_6VectorIdEEE9assign_toIPFvS5_SF_SI_EEEvT_E13stored_vtable = comdat any

$_ZTSPFvRKN6dealii12SparseMatrixIdEERKSt3mapIjdSt4lessIjESaISt4pairIKjdEEERNS_6VectorIdEEE = comdat any

$_ZTSFvRKN6dealii12SparseMatrixIdEERKSt3mapIjdSt4lessIjESaISt4pairIKjdEEERNS_6VectorIdEEE = comdat any

$_ZTIFvRKN6dealii12SparseMatrixIdEERKSt3mapIjdSt4lessIjESaISt4pairIKjdEEERNS_6VectorIdEEE = comdat any

$_ZTIPFvRKN6dealii12SparseMatrixIdEERKSt3mapIjdSt4lessIjESaISt4pairIKjdEEERNS_6VectorIdEEE = comdat any

$_ZZN5boost9function0IvE9assign_toINS_3_bi6bind_tINS3_11unspecifiedENS_8functionIFvRKN6dealii12SparseMatrixIdEERKSt3mapIjdSt4lessIjESaISt4pairIKjdEEERNS7_6VectorIdEEEEENS3_5list3INS_17reference_wrapperISA_EENSS_ISK_EENSS_ISN_EEEEEEEEvT_E13stored_vtable = comdat any

$_ZTSN5boost3_bi6bind_tINS0_11unspecifiedENS_8functionIFvRKN6dealii12SparseMatrixIdEERKSt3mapIjdSt4lessIjESaISt4pairIKjdEEERNS4_6VectorIdEEEEENS0_5list3INS_17reference_wrapperIS7_EENSP_ISH_EENSP_ISK_EEEEEE = comdat any

$_ZTIN5boost3_bi6bind_tINS0_11unspecifiedENS_8functionIFvRKN6dealii12SparseMatrixIdEERKSt3mapIjdSt4lessIjESaISt4pairIKjdEEERNS4_6VectorIdEEEEENS0_5list3INS_17reference_wrapperIS7_EENSP_ISH_EENSP_ISK_EEEEEE = comdat any

$_ZTSN5boost16exception_detail10clone_implINS0_19error_info_injectorINS_17bad_function_callEEEEE = comdat any

$_ZTSN5boost16exception_detail19error_info_injectorINS_17bad_function_callEEE = comdat any

$_ZTSN5boost17bad_function_callE = comdat any

$_ZTIN5boost17bad_function_callE = comdat any

$_ZTSN5boost9exceptionE = comdat any

$_ZTIN5boost9exceptionE = comdat any

$_ZTIN5boost16exception_detail19error_info_injectorINS_17bad_function_callEEE = comdat any

$_ZTSN5boost16exception_detail10clone_baseE = comdat any

$_ZTIN5boost16exception_detail10clone_baseE = comdat any

$_ZTIN5boost16exception_detail10clone_implINS0_19error_info_injectorINS_17bad_function_callEEEEE = comdat any

$_ZTVN5boost16exception_detail10clone_implINS0_19error_info_injectorINS_17bad_function_callEEEEE = comdat any

$_ZTVN5boost16exception_detail19error_info_injectorINS_17bad_function_callEEE = comdat any

$_ZTVN5boost17bad_function_callE = comdat any

$_ZTVN5boost9exceptionE = comdat any

$_ZTVN5boost6detail17sp_counted_impl_pIN6dealii7Threads8internal16ThreadDescriptorIvEEEE = comdat any

$_ZTSN5boost6detail17sp_counted_impl_pIN6dealii7Threads8internal16ThreadDescriptorIvEEEE = comdat any

$_ZTIN5boost6detail17sp_counted_impl_pIN6dealii7Threads8internal16ThreadDescriptorIvEEEE = comdat any

$_ZTSN6dealii7Threads6ThreadIvE11ExcNoThreadE = comdat any

$_ZTIN6dealii7Threads6ThreadIvE11ExcNoThreadE = comdat any

$_ZTVN6dealii7Threads6ThreadIvE11ExcNoThreadE = comdat any

@__const._ZN6dealii13GridGenerator10hyper_ballILi3EEEvRNS_13TriangulationIXT_EXT_EEERKNS_5PointIXT_EEEd.cell_vertices = private unnamed_addr constant [7 x [8 x i32]] [[8 x i32] [i32 0, i32 1, i32 4, i32 5, i32 3, i32 2, i32 7, i32 6], [8 x i32] [i32 8, i32 9, i32 12, i32 13, i32 0, i32 1, i32 4, i32 5], [8 x i32] [i32 9, i32 13, i32 1, i32 5, i32 10, i32 14, i32 2, i32 6], [8 x i32] [i32 11, i32 10, i32 3, i32 2, i32 15, i32 14, i32 7, i32 6], [8 x i32] [i32 8, i32 0, i32 12, i32 4, i32 11, i32 3, i32 15, i32 7], [8 x i32] [i32 8, i32 9, i32 0, i32 1, i32 11, i32 10, i32 3, i32 2], [8 x i32] [i32 12, i32 4, i32 13, i32 5, i32 15, i32 7, i32 14, i32 6]], align 16
@__const._ZN6dealii13GridGenerator7hyper_LILi3EEEvRNS_13TriangulationIXT_EXT_EEEdd.cell_vertices = private unnamed_addr constant [7 x [8 x i32]] [[8 x i32] [i32 0, i32 1, i32 9, i32 10, i32 3, i32 4, i32 12, i32 13], [8 x i32] [i32 1, i32 2, i32 10, i32 11, i32 4, i32 5, i32 13, i32 14], [8 x i32] [i32 3, i32 4, i32 12, i32 13, i32 6, i32 7, i32 15, i32 16], [8 x i32] [i32 4, i32 5, i32 13, i32 14, i32 7, i32 8, i32 16, i32 17], [8 x i32] [i32 9, i32 10, i32 18, i32 19, i32 12, i32 13, i32 21, i32 22], [8 x i32] [i32 10, i32 11, i32 19, i32 20, i32 13, i32 14, i32 22, i32 23], [8 x i32] [i32 12, i32 13, i32 21, i32 22, i32 15, i32 16, i32 24, i32 25]], align 16
@__const._ZN6dealii13GridGenerator15hyper_cube_slitILi3EEEvRNS_13TriangulationIXT_EXT_EEEddb.cell_vertices = private unnamed_addr constant [4 x [8 x i32]] [[8 x i32] [i32 0, i32 1, i32 3, i32 2, i32 10, i32 11, i32 13, i32 12], [8 x i32] [i32 9, i32 4, i32 2, i32 5, i32 19, i32 14, i32 12, i32 15], [8 x i32] [i32 3, i32 2, i32 7, i32 6, i32 13, i32 12, i32 17, i32 16], [8 x i32] [i32 2, i32 5, i32 6, i32 8, i32 12, i32 15, i32 16, i32 18]], align 16
@__const._ZN6dealii13GridGenerator11hyper_shellILi3EEEvRNS_13TriangulationIXT_EXT_EEERKNS_5PointIXT_EEEddjb.rhombi = private unnamed_addr constant [12 x [4 x i32]] [[4 x i32] [i32 10, i32 4, i32 0, i32 8], [4 x i32] [i32 4, i32 13, i32 8, i32 6], [4 x i32] [i32 10, i32 5, i32 4, i32 13], [4 x i32] [i32 1, i32 9, i32 10, i32 5], [4 x i32] [i32 9, i32 7, i32 5, i32 13], [4 x i32] [i32 7, i32 11, i32 13, i32 6], [4 x i32] [i32 9, i32 3, i32 7, i32 11], [4 x i32] [i32 1, i32 12, i32 9, i32 3], [4 x i32] [i32 12, i32 2, i32 3, i32 11], [4 x i32] [i32 2, i32 8, i32 11, i32 6], [4 x i32] [i32 12, i32 0, i32 2, i32 8], [4 x i32] [i32 1, i32 10, i32 12, i32 0]], align 16
@__const._ZN6dealii13GridGenerator15half_hyper_ballILi3EEEvRNS_13TriangulationIXT_EXT_EEERKNS_5PointIXT_EEEd.cell_vertices = private unnamed_addr constant [6 x [8 x i32]] [[8 x i32] [i32 0, i32 1, i32 8, i32 9, i32 2, i32 3, i32 10, i32 11], [8 x i32] [i32 0, i32 2, i32 8, i32 10, i32 6, i32 4, i32 14, i32 12], [8 x i32] [i32 2, i32 3, i32 10, i32 11, i32 4, i32 5, i32 12, i32 13], [8 x i32] [i32 1, i32 7, i32 9, i32 15, i32 3, i32 5, i32 11, i32 13], [8 x i32] [i32 6, i32 4, i32 14, i32 12, i32 7, i32 5, i32 15, i32 13], [8 x i32] [i32 8, i32 10, i32 9, i32 11, i32 14, i32 12, i32 15, i32 13]], align 16
@__const._ZN6dealii13GridGenerator16half_hyper_shellILi3EEEvRNS_13TriangulationIXT_EXT_EEERKNS_5PointIXT_EEEddj.cell_vertices = private unnamed_addr constant [5 x [8 x i32]] [[8 x i32] [i32 0, i32 1, i32 8, i32 9, i32 2, i32 3, i32 10, i32 11], [8 x i32] [i32 0, i32 2, i32 8, i32 10, i32 6, i32 4, i32 14, i32 12], [8 x i32] [i32 1, i32 7, i32 9, i32 15, i32 3, i32 5, i32 11, i32 13], [8 x i32] [i32 6, i32 4, i32 14, i32 12, i32 7, i32 5, i32 15, i32 13], [8 x i32] [i32 8, i32 10, i32 9, i32 11, i32 14, i32 12, i32 15, i32 13]], align 16
@_ZTVN6dealii16ConstraintMatrixE = linkonce_odr dso_local unnamed_addr constant { [4 x ptr] } { [4 x ptr] [ptr null, ptr @_ZTIN6dealii16ConstraintMatrixE, ptr @_ZN6dealii16ConstraintMatrixD2Ev, ptr @_ZN6dealii16ConstraintMatrixD0Ev] }, comdat, align 8
@_ZTVN10__cxxabiv120__si_class_type_infoE = external global ptr
@_ZTSN6dealii16ConstraintMatrixE = linkonce_odr dso_local constant [28 x i8] c"N6dealii16ConstraintMatrixE\00", comdat, align 1
@_ZTIN6dealii11SubscriptorE = external constant ptr
@_ZTIN6dealii16ConstraintMatrixE = linkonce_odr dso_local constant { ptr, ptr, ptr } { ptr getelementptr inbounds (ptr, ptr @_ZTVN10__cxxabiv120__si_class_type_infoE, i64 2), ptr @_ZTSN6dealii16ConstraintMatrixE, ptr @_ZTIN6dealii11SubscriptorE }, comdat, align 8
@_ZTVN6dealii4FE_QILi3ELi3EEE = linkonce_odr dso_local unnamed_addr constant { [38 x ptr] } { [38 x ptr] [ptr null, ptr @_ZTIN6dealii4FE_QILi3ELi3EEE, ptr @_ZN6dealii4FE_QILi3ELi3EED2Ev, ptr @_ZN6dealii4FE_QILi3ELi3EED0Ev, ptr @_ZNK6dealii4FE_QILi3ELi3EE8get_nameB5cxx11Ev, ptr @_ZNK6dealii7FE_PolyINS_24TensorProductPolynomialsILi3EEELi3ELi3EE11shape_valueEjRKNS_5PointILi3EEE, ptr @_ZNK6dealii7FE_PolyINS_24TensorProductPolynomialsILi3EEELi3ELi3EE21shape_value_componentEjRKNS_5PointILi3EEEj, ptr @_ZNK6dealii7FE_PolyINS_24TensorProductPolynomialsILi3EEELi3ELi3EE10shape_gradEjRKNS_5PointILi3EEE, ptr @_ZNK6dealii7FE_PolyINS_24TensorProductPolynomialsILi3EEELi3ELi3EE20shape_grad_componentEjRKNS_5PointILi3EEEj, ptr @_ZNK6dealii7FE_PolyINS_24TensorProductPolynomialsILi3EEELi3ELi3EE15shape_grad_gradEjRKNS_5PointILi3EEE, ptr @_ZNK6dealii7FE_PolyINS_24TensorProductPolynomialsILi3EEELi3ELi3EE25shape_grad_grad_componentEjRKNS_5PointILi3EEEj, ptr @_ZNK6dealii4FE_QILi3ELi3EE19has_support_on_faceEjj, ptr @_ZNK6dealii4FE_QILi3ELi3EE30hp_constraints_are_implementedEv, ptr @_ZNK6dealii4FE_QILi3ELi3EE24get_interpolation_matrixERKNS_13FiniteElementILi3ELi3EEERNS_10FullMatrixIdEE, ptr @_ZNK6dealii4FE_QILi3ELi3EE29get_face_interpolation_matrixERKNS_13FiniteElementILi3ELi3EEERNS_10FullMatrixIdEE, ptr @_ZNK6dealii4FE_QILi3ELi3EE32get_subface_interpolation_matrixERKNS_13FiniteElementILi3ELi3EEEjRNS_10FullMatrixIdEE, ptr @_ZNK6dealii4FE_QILi3ELi3EE24hp_vertex_dof_identitiesERKNS_13FiniteElementILi3ELi3EEE, ptr @_ZNK6dealii4FE_QILi3ELi3EE22hp_line_dof_identitiesERKNS_13FiniteElementILi3ELi3EEE, ptr @_ZNK6dealii4FE_QILi3ELi3EE22hp_quad_dof_identitiesERKNS_13FiniteElementILi3ELi3EEE, ptr @_ZNK6dealii4FE_QILi3ELi3EE27compare_for_face_dominationERKNS_13FiniteElementILi3ELi3EEE, ptr @_ZNK6dealii7FE_PolyINS_24TensorProductPolynomialsILi3EEELi3ELi3EE15n_base_elementsEv, ptr @_ZNK6dealii7FE_PolyINS_24TensorProductPolynomialsILi3EEELi3ELi3EE12base_elementEj, ptr @_ZNK6dealii7FE_PolyINS_24TensorProductPolynomialsILi3EEELi3ELi3EE20element_multiplicityEj, ptr @_ZNK6dealii13FiniteElementILi3ELi3EE18unit_support_pointEj, ptr @_ZNK6dealii13FiniteElementILi3ELi3EE23unit_face_support_pointEj, ptr @_ZNK6dealii13FiniteElementILi3ELi3EE11interpolateERSt6vectorIdSaIdEERKS4_, ptr @_ZNK6dealii13FiniteElementILi3ELi3EE11interpolateERSt6vectorIdSaIdEERKS2_INS_6VectorIdEESaIS7_EEj, ptr @_ZNK6dealii13FiniteElementILi3ELi3EE11interpolateERSt6vectorIdSaIdEERKNS_11VectorSliceIKS2_IS4_SaIS4_EEEE, ptr @_ZNK6dealii4FE_QILi3ELi3EE18memory_consumptionEv, ptr @_ZNK6dealii7FE_PolyINS_24TensorProductPolynomialsILi3EEELi3ELi3EE11update_onceENS_11UpdateFlagsE, ptr @_ZNK6dealii7FE_PolyINS_24TensorProductPolynomialsILi3EEELi3ELi3EE11update_eachENS_11UpdateFlagsE, ptr @_ZNK6dealii4FE_QILi3ELi3EE5cloneEv, ptr @_ZNK6dealii7FE_PolyINS_24TensorProductPolynomialsILi3EEELi3ELi3EE8get_dataENS_11UpdateFlagsERKNS_7MappingILi3ELi3EEERKNS_10QuadratureILi3EEE, ptr @_ZNK6dealii13FiniteElementILi3ELi3EE13get_face_dataENS_11UpdateFlagsERKNS_7MappingILi3ELi3EEERKNS_10QuadratureILi2EEE, ptr @_ZNK6dealii13FiniteElementILi3ELi3EE16get_subface_dataENS_11UpdateFlagsERKNS_7MappingILi3ELi3EEERKNS_10QuadratureILi2EEE, ptr @_ZNK6dealii7FE_PolyINS_24TensorProductPolynomialsILi3EEELi3ELi3EE14fill_fe_valuesERKNS_7MappingILi3ELi3EEERKNS_12TriaIteratorINS_12CellAccessorILi3ELi3EEEEERKNS_10QuadratureILi3EEERNS5_16InternalDataBaseESJ_RNS_12FEValuesDataILi3ELi3EEERNS_14CellSimilarity10SimilarityE, ptr @_ZNK6dealii7FE_PolyINS_24TensorProductPolynomialsILi3EEELi3ELi3EE19fill_fe_face_valuesERKNS_7MappingILi3ELi3EEERKNS_12TriaIteratorINS_12CellAccessorILi3ELi3EEEEEjRKNS_10QuadratureILi2EEERNS5_16InternalDataBaseESJ_RNS_12FEValuesDataILi3ELi3EEE, ptr @_ZNK6dealii7FE_PolyINS_24TensorProductPolynomialsILi3EEELi3ELi3EE22fill_fe_subface_valuesERKNS_7MappingILi3ELi3EEERKNS_12TriaIteratorINS_12CellAccessorILi3ELi3EEEEEjjRKNS_10QuadratureILi2EEERNS5_16InternalDataBaseESJ_RNS_12FEValuesDataILi3ELi3EEE] }, comdat, align 8
@_ZTSN6dealii4FE_QILi3ELi3EEE = linkonce_odr dso_local constant [25 x i8] c"N6dealii4FE_QILi3ELi3EEE\00", comdat, align 1
@_ZTSN6dealii7FE_PolyINS_24TensorProductPolynomialsILi3EEELi3ELi3EEE = linkonce_odr dso_local constant [64 x i8] c"N6dealii7FE_PolyINS_24TensorProductPolynomialsILi3EEELi3ELi3EEE\00", comdat, align 1
@_ZTVN10__cxxabiv121__vmi_class_type_infoE = external global ptr
@_ZTSN6dealii13FiniteElementILi3ELi3EEE = linkonce_odr dso_local constant [35 x i8] c"N6dealii13FiniteElementILi3ELi3EEE\00", comdat, align 1
@_ZTVN10__cxxabiv117__class_type_infoE = external global ptr
@_ZTSN6dealii17FiniteElementDataILi3EEE = linkonce_odr dso_local constant [35 x i8] c"N6dealii17FiniteElementDataILi3EEE\00", comdat, align 1
@_ZTIN6dealii17FiniteElementDataILi3EEE = linkonce_odr dso_local constant { ptr, ptr } { ptr getelementptr inbounds (ptr, ptr @_ZTVN10__cxxabiv117__class_type_infoE, i64 2), ptr @_ZTSN6dealii17FiniteElementDataILi3EEE }, comdat, align 8
@_ZTIN6dealii13FiniteElementILi3ELi3EEE = linkonce_odr dso_local constant { ptr, ptr, i32, i32, ptr, i64, ptr, i64 } { ptr getelementptr inbounds (ptr, ptr @_ZTVN10__cxxabiv121__vmi_class_type_infoE, i64 2), ptr @_ZTSN6dealii13FiniteElementILi3ELi3EEE, i32 0, i32 2, ptr @_ZTIN6dealii11SubscriptorE, i64 2, ptr @_ZTIN6dealii17FiniteElementDataILi3EEE, i64 18434 }, comdat, align 8
@_ZTIN6dealii7FE_PolyINS_24TensorProductPolynomialsILi3EEELi3ELi3EEE = linkonce_odr dso_local constant { ptr, ptr, ptr } { ptr getelementptr inbounds (ptr, ptr @_ZTVN10__cxxabiv120__si_class_type_infoE, i64 2), ptr @_ZTSN6dealii7FE_PolyINS_24TensorProductPolynomialsILi3EEELi3ELi3EEE, ptr @_ZTIN6dealii13FiniteElementILi3ELi3EEE }, comdat, align 8
@_ZTIN6dealii4FE_QILi3ELi3EEE = linkonce_odr dso_local constant { ptr, ptr, ptr } { ptr getelementptr inbounds (ptr, ptr @_ZTVN10__cxxabiv120__si_class_type_infoE, i64 2), ptr @_ZTSN6dealii4FE_QILi3ELi3EEE, ptr @_ZTIN6dealii7FE_PolyINS_24TensorProductPolynomialsILi3EEELi3ELi3EEE }, comdat, align 8
@_ZTVN6dealii7FE_PolyINS_24TensorProductPolynomialsILi3EEELi3ELi3EEE = linkonce_odr dso_local unnamed_addr constant { [38 x ptr] } { [38 x ptr] [ptr null, ptr @_ZTIN6dealii7FE_PolyINS_24TensorProductPolynomialsILi3EEELi3ELi3EEE, ptr @_ZN6dealii7FE_PolyINS_24TensorProductPolynomialsILi3EEELi3ELi3EED2Ev, ptr @_ZN6dealii7FE_PolyINS_24TensorProductPolynomialsILi3EEELi3ELi3EED0Ev, ptr @__cxa_pure_virtual, ptr @_ZNK6dealii7FE_PolyINS_24TensorProductPolynomialsILi3EEELi3ELi3EE11shape_valueEjRKNS_5PointILi3EEE, ptr @_ZNK6dealii7FE_PolyINS_24TensorProductPolynomialsILi3EEELi3ELi3EE21shape_value_componentEjRKNS_5PointILi3EEEj, ptr @_ZNK6dealii7FE_PolyINS_24TensorProductPolynomialsILi3EEELi3ELi3EE10shape_gradEjRKNS_5PointILi3EEE, ptr @_ZNK6dealii7FE_PolyINS_24TensorProductPolynomialsILi3EEELi3ELi3EE20shape_grad_componentEjRKNS_5PointILi3EEEj, ptr @_ZNK6dealii7FE_PolyINS_24TensorProductPolynomialsILi3EEELi3ELi3EE15shape_grad_gradEjRKNS_5PointILi3EEE, ptr @_ZNK6dealii7FE_PolyINS_24TensorProductPolynomialsILi3EEELi3ELi3EE25shape_grad_grad_componentEjRKNS_5PointILi3EEEj, ptr @_ZNK6dealii13FiniteElementILi3ELi3EE19has_support_on_faceEjj, ptr @_ZNK6dealii13FiniteElementILi3ELi3EE30hp_constraints_are_implementedEv, ptr @_ZNK6dealii13FiniteElementILi3ELi3EE24get_interpolation_matrixERKS1_RNS_10FullMatrixIdEE, ptr @_ZNK6dealii13FiniteElementILi3ELi3EE29get_face_interpolation_matrixERKS1_RNS_10FullMatrixIdEE, ptr @_ZNK6dealii13FiniteElementILi3ELi3EE32get_subface_interpolation_matrixERKS1_jRNS_10FullMatrixIdEE, ptr @_ZNK6dealii13FiniteElementILi3ELi3EE24hp_vertex_dof_identitiesERKS1_, ptr @_ZNK6dealii13FiniteElementILi3ELi3EE22hp_line_dof_identitiesERKS1_, ptr @_ZNK6dealii13FiniteElementILi3ELi3EE22hp_quad_dof_identitiesERKS1_, ptr @_ZNK6dealii13FiniteElementILi3ELi3EE27compare_for_face_dominationERKS1_, ptr @_ZNK6dealii7FE_PolyINS_24TensorProductPolynomialsILi3EEELi3ELi3EE15n_base_elementsEv, ptr @_ZNK6dealii7FE_PolyINS_24TensorProductPolynomialsILi3EEELi3ELi3EE12base_elementEj, ptr @_ZNK6dealii7FE_PolyINS_24TensorProductPolynomialsILi3EEELi3ELi3EE20element_multiplicityEj, ptr @_ZNK6dealii13FiniteElementILi3ELi3EE18unit_support_pointEj, ptr @_ZNK6dealii13FiniteElementILi3ELi3EE23unit_face_support_pointEj, ptr @_ZNK6dealii13FiniteElementILi3ELi3EE11interpolateERSt6vectorIdSaIdEERKS4_, ptr @_ZNK6dealii13FiniteElementILi3ELi3EE11interpolateERSt6vectorIdSaIdEERKS2_INS_6VectorIdEESaIS7_EEj, ptr @_ZNK6dealii13FiniteElementILi3ELi3EE11interpolateERSt6vectorIdSaIdEERKNS_11VectorSliceIKS2_IS4_SaIS4_EEEE, ptr @_ZNK6dealii13FiniteElementILi3ELi3EE18memory_consumptionEv, ptr @_ZNK6dealii7FE_PolyINS_24TensorProductPolynomialsILi3EEELi3ELi3EE11update_onceENS_11UpdateFlagsE, ptr @_ZNK6dealii7FE_PolyINS_24TensorProductPolynomialsILi3EEELi3ELi3EE11update_eachENS_11UpdateFlagsE, ptr @__cxa_pure_virtual, ptr @_ZNK6dealii7FE_PolyINS_24TensorProductPolynomialsILi3EEELi3ELi3EE8get_dataENS_11UpdateFlagsERKNS_7MappingILi3ELi3EEERKNS_10QuadratureILi3EEE, ptr @_ZNK6dealii13FiniteElementILi3ELi3EE13get_face_dataENS_11UpdateFlagsERKNS_7MappingILi3ELi3EEERKNS_10QuadratureILi2EEE, ptr @_ZNK6dealii13FiniteElementILi3ELi3EE16get_subface_dataENS_11UpdateFlagsERKNS_7MappingILi3ELi3EEERKNS_10QuadratureILi2EEE, ptr @_ZNK6dealii7FE_PolyINS_24TensorProductPolynomialsILi3EEELi3ELi3EE14fill_fe_valuesERKNS_7MappingILi3ELi3EEERKNS_12TriaIteratorINS_12CellAccessorILi3ELi3EEEEERKNS_10QuadratureILi3EEERNS5_16InternalDataBaseESJ_RNS_12FEValuesDataILi3ELi3EEERNS_14CellSimilarity10SimilarityE, ptr @_ZNK6dealii7FE_PolyINS_24TensorProductPolynomialsILi3EEELi3ELi3EE19fill_fe_face_valuesERKNS_7MappingILi3ELi3EEERKNS_12TriaIteratorINS_12CellAccessorILi3ELi3EEEEEjRKNS_10QuadratureILi2EEERNS5_16InternalDataBaseESJ_RNS_12FEValuesDataILi3ELi3EEE, ptr @_ZNK6dealii7FE_PolyINS_24TensorProductPolynomialsILi3EEELi3ELi3EE22fill_fe_subface_valuesERKNS_7MappingILi3ELi3EEERKNS_12TriaIteratorINS_12CellAccessorILi3ELi3EEEEEjjRKNS_10QuadratureILi2EEERNS5_16InternalDataBaseESJ_RNS_12FEValuesDataILi3ELi3EEE] }, comdat, align 8
@_ZTVN6dealii14FilteredMatrixINS_6VectorIdEEEE = linkonce_odr dso_local unnamed_addr constant { [4 x ptr] } { [4 x ptr] [ptr null, ptr @_ZTIN6dealii14FilteredMatrixINS_6VectorIdEEEE, ptr @_ZN6dealii14FilteredMatrixINS_6VectorIdEEED2Ev, ptr @_ZN6dealii14FilteredMatrixINS_6VectorIdEEED0Ev] }, comdat, align 8
@_ZTSN6dealii14FilteredMatrixINS_6VectorIdEEEE = linkonce_odr dso_local constant [42 x i8] c"N6dealii14FilteredMatrixINS_6VectorIdEEEE\00", comdat, align 1
@_ZTIN6dealii14FilteredMatrixINS_6VectorIdEEEE = linkonce_odr dso_local constant { ptr, ptr, ptr } { ptr getelementptr inbounds (ptr, ptr @_ZTVN10__cxxabiv120__si_class_type_infoE, i64 2), ptr @_ZTSN6dealii14FilteredMatrixINS_6VectorIdEEEE, ptr @_ZTIN6dealii11SubscriptorE }, comdat, align 8
@.str = private unnamed_addr constant [14 x i8] c"PointerMatrix\00", align 1
@_ZTVN6dealii13PointerMatrixINS_12SparseMatrixIdEENS_6VectorIdEEEE = linkonce_odr dso_local unnamed_addr constant { [10 x ptr] } { [10 x ptr] [ptr null, ptr @_ZTIN6dealii13PointerMatrixINS_12SparseMatrixIdEENS_6VectorIdEEEE, ptr @_ZN6dealii13PointerMatrixINS_12SparseMatrixIdEENS_6VectorIdEEED2Ev, ptr @_ZN6dealii13PointerMatrixINS_12SparseMatrixIdEENS_6VectorIdEEED0Ev, ptr @_ZN6dealii13PointerMatrixINS_12SparseMatrixIdEENS_6VectorIdEEE5clearEv, ptr @_ZNK6dealii13PointerMatrixINS_12SparseMatrixIdEENS_6VectorIdEEE5vmultERS4_RKS4_, ptr @_ZNK6dealii13PointerMatrixINS_12SparseMatrixIdEENS_6VectorIdEEE6TvmultERS4_RKS4_, ptr @_ZNK6dealii13PointerMatrixINS_12SparseMatrixIdEENS_6VectorIdEEE9vmult_addERS4_RKS4_, ptr @_ZNK6dealii13PointerMatrixINS_12SparseMatrixIdEENS_6VectorIdEEE10Tvmult_addERS4_RKS4_, ptr @_ZNK6dealii13PointerMatrixINS_12SparseMatrixIdEENS_6VectorIdEEE3getEv] }, comdat, align 8
@_ZTSN6dealii13PointerMatrixINS_12SparseMatrixIdEENS_6VectorIdEEEE = linkonce_odr dso_local constant [62 x i8] c"N6dealii13PointerMatrixINS_12SparseMatrixIdEENS_6VectorIdEEEE\00", comdat, align 1
@_ZTSN6dealii17PointerMatrixBaseINS_6VectorIdEEEE = linkonce_odr dso_local constant [45 x i8] c"N6dealii17PointerMatrixBaseINS_6VectorIdEEEE\00", comdat, align 1
@_ZTIN6dealii17PointerMatrixBaseINS_6VectorIdEEEE = linkonce_odr dso_local constant { ptr, ptr, ptr } { ptr getelementptr inbounds (ptr, ptr @_ZTVN10__cxxabiv120__si_class_type_infoE, i64 2), ptr @_ZTSN6dealii17PointerMatrixBaseINS_6VectorIdEEEE, ptr @_ZTIN6dealii11SubscriptorE }, comdat, align 8
@_ZTIN6dealii13PointerMatrixINS_12SparseMatrixIdEENS_6VectorIdEEEE = linkonce_odr dso_local constant { ptr, ptr, ptr } { ptr getelementptr inbounds (ptr, ptr @_ZTVN10__cxxabiv120__si_class_type_infoE, i64 2), ptr @_ZTSN6dealii13PointerMatrixINS_12SparseMatrixIdEENS_6VectorIdEEEE, ptr @_ZTIN6dealii17PointerMatrixBaseINS_6VectorIdEEEE }, comdat, align 8
@_ZTVN5boost6detail17sp_counted_impl_pIN6dealii17PointerMatrixBaseINS2_6VectorIdEEEEEE = linkonce_odr dso_local unnamed_addr constant { [7 x ptr] } { [7 x ptr] [ptr null, ptr @_ZTIN5boost6detail17sp_counted_impl_pIN6dealii17PointerMatrixBaseINS2_6VectorIdEEEEEE, ptr @_ZN5boost6detail15sp_counted_baseD2Ev, ptr @_ZN5boost6detail17sp_counted_impl_pIN6dealii17PointerMatrixBaseINS2_6VectorIdEEEEED0Ev, ptr @_ZN5boost6detail17sp_counted_impl_pIN6dealii17PointerMatrixBaseINS2_6VectorIdEEEEE7disposeEv, ptr @_ZN5boost6detail15sp_counted_base7destroyEv, ptr @_ZN5boost6detail17sp_counted_impl_pIN6dealii17PointerMatrixBaseINS2_6VectorIdEEEEE11get_deleterERKSt9type_info] }, comdat, align 8
@_ZTSN5boost6detail17sp_counted_impl_pIN6dealii17PointerMatrixBaseINS2_6VectorIdEEEEEE = linkonce_odr dso_local constant [82 x i8] c"N5boost6detail17sp_counted_impl_pIN6dealii17PointerMatrixBaseINS2_6VectorIdEEEEEE\00", comdat, align 1
@_ZTSN5boost6detail15sp_counted_baseE = linkonce_odr dso_local constant [33 x i8] c"N5boost6detail15sp_counted_baseE\00", comdat, align 1
@_ZTIN5boost6detail15sp_counted_baseE = linkonce_odr dso_local constant { ptr, ptr } { ptr getelementptr inbounds (ptr, ptr @_ZTVN10__cxxabiv117__class_type_infoE, i64 2), ptr @_ZTSN5boost6detail15sp_counted_baseE }, comdat, align 8
@_ZTIN5boost6detail17sp_counted_impl_pIN6dealii17PointerMatrixBaseINS2_6VectorIdEEEEEE = linkonce_odr dso_local constant { ptr, ptr, ptr } { ptr getelementptr inbounds (ptr, ptr @_ZTVN10__cxxabiv120__si_class_type_infoE, i64 2), ptr @_ZTSN5boost6detail17sp_counted_impl_pIN6dealii17PointerMatrixBaseINS2_6VectorIdEEEEEE, ptr @_ZTIN5boost6detail15sp_counted_baseE }, comdat, align 8
@_ZTVN6dealii18PreconditionJacobiINS_12SparseMatrixIdEEEE = linkonce_odr dso_local unnamed_addr constant { [4 x ptr] } { [4 x ptr] [ptr null, ptr @_ZTIN6dealii18PreconditionJacobiINS_12SparseMatrixIdEEEE, ptr @_ZN6dealii22PreconditionRelaxationINS_12SparseMatrixIdEEED2Ev, ptr @_ZN6dealii18PreconditionJacobiINS_12SparseMatrixIdEEED0Ev] }, comdat, align 8
@_ZTSN6dealii18PreconditionJacobiINS_12SparseMatrixIdEEEE = linkonce_odr dso_local constant [53 x i8] c"N6dealii18PreconditionJacobiINS_12SparseMatrixIdEEEE\00", comdat, align 1
@_ZTSN6dealii22PreconditionRelaxationINS_12SparseMatrixIdEEEE = linkonce_odr dso_local constant [57 x i8] c"N6dealii22PreconditionRelaxationINS_12SparseMatrixIdEEEE\00", comdat, align 1
@_ZTIN6dealii22PreconditionRelaxationINS_12SparseMatrixIdEEEE = linkonce_odr dso_local constant { ptr, ptr, ptr } { ptr getelementptr inbounds (ptr, ptr @_ZTVN10__cxxabiv120__si_class_type_infoE, i64 2), ptr @_ZTSN6dealii22PreconditionRelaxationINS_12SparseMatrixIdEEEE, ptr @_ZTIN6dealii11SubscriptorE }, comdat, align 8
@_ZTIN6dealii18PreconditionJacobiINS_12SparseMatrixIdEEEE = linkonce_odr dso_local constant { ptr, ptr, ptr } { ptr getelementptr inbounds (ptr, ptr @_ZTVN10__cxxabiv120__si_class_type_infoE, i64 2), ptr @_ZTSN6dealii18PreconditionJacobiINS_12SparseMatrixIdEEEE, ptr @_ZTIN6dealii22PreconditionRelaxationINS_12SparseMatrixIdEEEE }, comdat, align 8
@_ZTVN6dealii22PreconditionRelaxationINS_12SparseMatrixIdEEEE = linkonce_odr dso_local unnamed_addr constant { [4 x ptr] } { [4 x ptr] [ptr null, ptr @_ZTIN6dealii22PreconditionRelaxationINS_12SparseMatrixIdEEEE, ptr @_ZN6dealii22PreconditionRelaxationINS_12SparseMatrixIdEEED2Ev, ptr @_ZN6dealii22PreconditionRelaxationINS_12SparseMatrixIdEEED0Ev] }, comdat, align 8
@.str.11 = private unnamed_addr constant [17 x i8] c"PointerMatrixAux\00", align 1
@_ZTVN6dealii16PointerMatrixAuxIKNS_18PreconditionJacobiINS_12SparseMatrixIdEEEENS_6VectorIdEEEE = linkonce_odr dso_local unnamed_addr constant { [10 x ptr] } { [10 x ptr] [ptr null, ptr @_ZTIN6dealii16PointerMatrixAuxIKNS_18PreconditionJacobiINS_12SparseMatrixIdEEEENS_6VectorIdEEEE, ptr @_ZN6dealii16PointerMatrixAuxIKNS_18PreconditionJacobiINS_12SparseMatrixIdEEEENS_6VectorIdEEED2Ev, ptr @_ZN6dealii16PointerMatrixAuxIKNS_18PreconditionJacobiINS_12SparseMatrixIdEEEENS_6VectorIdEEED0Ev, ptr @_ZN6dealii16PointerMatrixAuxIKNS_18PreconditionJacobiINS_12SparseMatrixIdEEEENS_6VectorIdEEE5clearEv, ptr @_ZNK6dealii16PointerMatrixAuxIKNS_18PreconditionJacobiINS_12SparseMatrixIdEEEENS_6VectorIdEEE5vmultERS7_RKS7_, ptr @_ZNK6dealii16PointerMatrixAuxIKNS_18PreconditionJacobiINS_12SparseMatrixIdEEEENS_6VectorIdEEE6TvmultERS7_RKS7_, ptr @_ZNK6dealii16PointerMatrixAuxIKNS_18PreconditionJacobiINS_12SparseMatrixIdEEEENS_6VectorIdEEE9vmult_addERS7_RKS7_, ptr @_ZNK6dealii16PointerMatrixAuxIKNS_18PreconditionJacobiINS_12SparseMatrixIdEEEENS_6VectorIdEEE10Tvmult_addERS7_RKS7_, ptr @_ZNK6dealii16PointerMatrixAuxIKNS_18PreconditionJacobiINS_12SparseMatrixIdEEEENS_6VectorIdEEE3getEv] }, comdat, align 8
@_ZTSN6dealii16PointerMatrixAuxIKNS_18PreconditionJacobiINS_12SparseMatrixIdEEEENS_6VectorIdEEEE = linkonce_odr dso_local constant [92 x i8] c"N6dealii16PointerMatrixAuxIKNS_18PreconditionJacobiINS_12SparseMatrixIdEEEENS_6VectorIdEEEE\00", comdat, align 1
@_ZTIN6dealii16PointerMatrixAuxIKNS_18PreconditionJacobiINS_12SparseMatrixIdEEEENS_6VectorIdEEEE = linkonce_odr dso_local constant { ptr, ptr, ptr } { ptr getelementptr inbounds (ptr, ptr @_ZTVN10__cxxabiv120__si_class_type_infoE, i64 2), ptr @_ZTSN6dealii16PointerMatrixAuxIKNS_18PreconditionJacobiINS_12SparseMatrixIdEEEENS_6VectorIdEEEE, ptr @_ZTIN6dealii17PointerMatrixBaseINS_6VectorIdEEEE }, comdat, align 8
@_ZTVN6dealii19GrowingVectorMemoryINS_6VectorIdEEEE = linkonce_odr dso_local unnamed_addr constant { [6 x ptr] } { [6 x ptr] [ptr null, ptr @_ZTIN6dealii19GrowingVectorMemoryINS_6VectorIdEEEE, ptr @_ZN6dealii19GrowingVectorMemoryINS_6VectorIdEEED2Ev, ptr @_ZN6dealii19GrowingVectorMemoryINS_6VectorIdEEED0Ev, ptr @_ZN6dealii19GrowingVectorMemoryINS_6VectorIdEEE5allocEv, ptr @_ZN6dealii19GrowingVectorMemoryINS_6VectorIdEEE4freeEPKS2_] }, comdat, align 8
@_ZN6dealii19GrowingVectorMemoryINS_6VectorIdEEE4poolE = external local_unnamed_addr global %"struct.dealii::GrowingVectorMemory<>::Pool", align 8
@_ZTSN6dealii19GrowingVectorMemoryINS_6VectorIdEEEE = linkonce_odr dso_local constant [47 x i8] c"N6dealii19GrowingVectorMemoryINS_6VectorIdEEEE\00", comdat, align 1
@_ZTSN6dealii12VectorMemoryINS_6VectorIdEEEE = linkonce_odr dso_local constant [40 x i8] c"N6dealii12VectorMemoryINS_6VectorIdEEEE\00", comdat, align 1
@_ZTIN6dealii12VectorMemoryINS_6VectorIdEEEE = linkonce_odr dso_local constant { ptr, ptr, ptr } { ptr getelementptr inbounds (ptr, ptr @_ZTVN10__cxxabiv120__si_class_type_infoE, i64 2), ptr @_ZTSN6dealii12VectorMemoryINS_6VectorIdEEEE, ptr @_ZTIN6dealii11SubscriptorE }, comdat, align 8
@_ZTIN6dealii19GrowingVectorMemoryINS_6VectorIdEEEE = linkonce_odr dso_local constant { ptr, ptr, ptr } { ptr getelementptr inbounds (ptr, ptr @_ZTVN10__cxxabiv120__si_class_type_infoE, i64 2), ptr @_ZTSN6dealii19GrowingVectorMemoryINS_6VectorIdEEEE, ptr @_ZTIN6dealii12VectorMemoryINS_6VectorIdEEEE }, comdat, align 8
@.str.13 = private unnamed_addr constant [26 x i8] c"vector::_M_realloc_insert\00", align 1
@_ZTVN6dealii8SolverCGINS_6VectorIdEEEE = linkonce_odr dso_local unnamed_addr constant { [6 x ptr] } { [6 x ptr] [ptr null, ptr @_ZTIN6dealii8SolverCGINS_6VectorIdEEEE, ptr @_ZN6dealii6SolverINS_6VectorIdEEED2Ev, ptr @_ZN6dealii8SolverCGINS_6VectorIdEEED0Ev, ptr @_ZN6dealii8SolverCGINS_6VectorIdEEE9criterionEv, ptr @_ZNK6dealii8SolverCGINS_6VectorIdEEE13print_vectorsEjRKS2_S5_S5_] }, comdat, align 8
@_ZTSN6dealii8SolverCGINS_6VectorIdEEEE = linkonce_odr dso_local constant [35 x i8] c"N6dealii8SolverCGINS_6VectorIdEEEE\00", comdat, align 1
@_ZTSN6dealii6SolverINS_6VectorIdEEEE = linkonce_odr dso_local constant [33 x i8] c"N6dealii6SolverINS_6VectorIdEEEE\00", comdat, align 1
@_ZTIN6dealii6SolverINS_6VectorIdEEEE = linkonce_odr dso_local constant { ptr, ptr, ptr } { ptr getelementptr inbounds (ptr, ptr @_ZTVN10__cxxabiv120__si_class_type_infoE, i64 2), ptr @_ZTSN6dealii6SolverINS_6VectorIdEEEE, ptr @_ZTIN6dealii11SubscriptorE }, comdat, align 8
@_ZTIN6dealii8SolverCGINS_6VectorIdEEEE = linkonce_odr dso_local constant { ptr, ptr, ptr } { ptr getelementptr inbounds (ptr, ptr @_ZTVN10__cxxabiv120__si_class_type_infoE, i64 2), ptr @_ZTSN6dealii8SolverCGINS_6VectorIdEEEE, ptr @_ZTIN6dealii6SolverINS_6VectorIdEEEE }, comdat, align 8
@_ZTVN6dealii6SolverINS_6VectorIdEEEE = linkonce_odr dso_local unnamed_addr constant { [4 x ptr] } { [4 x ptr] [ptr null, ptr @_ZTIN6dealii6SolverINS_6VectorIdEEEE, ptr @_ZN6dealii6SolverINS_6VectorIdEEED2Ev, ptr @_ZN6dealii6SolverINS_6VectorIdEEED0Ev] }, comdat, align 8
@_ZTVN6dealii6VectorIdEE = linkonce_odr dso_local unnamed_addr constant { [6 x ptr] } { [6 x ptr] [ptr null, ptr @_ZTIN6dealii6VectorIdEE, ptr @_ZN6dealii6VectorIdED2Ev, ptr @_ZN6dealii6VectorIdED0Ev, ptr @_ZN6dealii6VectorIdE6reinitEjb, ptr @_ZN6dealii6VectorIdE4swapERS1_] }, comdat, align 8
@_ZTSN6dealii6VectorIdEE = linkonce_odr dso_local constant [20 x i8] c"N6dealii6VectorIdEE\00", comdat, align 1
@_ZTIN6dealii6VectorIdEE = linkonce_odr dso_local constant { ptr, ptr, ptr } { ptr getelementptr inbounds (ptr, ptr @_ZTVN10__cxxabiv120__si_class_type_infoE, i64 2), ptr @_ZTSN6dealii6VectorIdEE, ptr @_ZTIN6dealii11SubscriptorE }, comdat, align 8
@.str.14 = private unnamed_addr constant [16 x i8] c"vector::reserve\00", align 1
@.str.15 = private unnamed_addr constant [24 x i8] c"vector::_M_range_insert\00", align 1
@_ZSt7nothrow = external global %"struct.std::nothrow_t", align 1
@_ZN6dealii7deallogE = external global %"class.dealii::LogStream", align 8
@.str.17 = private unnamed_addr constant [12 x i8] c"alpha-beta:\00", align 1
@.str.18 = private unnamed_addr constant [28 x i8] c"Condition number estimate: \00", align 1
@_ZTIN6dealii13SolverControl13NoConvergenceE = external constant ptr
@.str.20 = private unnamed_addr constant [28 x i8] c"include/lac/vector_memory.h\00", align 1
@.str.21 = private unnamed_addr constant [1 x i8] zeroinitializer, align 1
@.str.22 = private unnamed_addr constant [19 x i8] c"current_alloc == 0\00", align 1
@.str.23 = private unnamed_addr constant [49 x i8] c"StandardExceptions::ExcMemoryLeak(current_alloc)\00", align 1
@.str.24 = private unnamed_addr constant [48 x i8] c"GrowingVectorMemory:Overall allocated vectors: \00", align 1
@.str.25 = private unnamed_addr constant [48 x i8] c"GrowingVectorMemory:Maximum allocated vectors: \00", align 1
@_ZTSN6dealii18StandardExceptions13ExcMemoryLeakE = linkonce_odr dso_local constant [45 x i8] c"N6dealii18StandardExceptions13ExcMemoryLeakE\00", comdat, align 1
@_ZTIN6dealii13ExceptionBaseE = external constant ptr
@_ZTIN6dealii18StandardExceptions13ExcMemoryLeakE = linkonce_odr dso_local constant { ptr, ptr, ptr } { ptr getelementptr inbounds (ptr, ptr @_ZTVN10__cxxabiv120__si_class_type_infoE, i64 2), ptr @_ZTSN6dealii18StandardExceptions13ExcMemoryLeakE, ptr @_ZTIN6dealii13ExceptionBaseE }, comdat, align 8
@_ZTVN6dealii18StandardExceptions13ExcMemoryLeakE = linkonce_odr dso_local unnamed_addr constant { [6 x ptr] } { [6 x ptr] [ptr null, ptr @_ZTIN6dealii18StandardExceptions13ExcMemoryLeakE, ptr @_ZN6dealii13ExceptionBaseD2Ev, ptr @_ZN6dealii18StandardExceptions13ExcMemoryLeakD0Ev, ptr @_ZNK6dealii13ExceptionBase4whatEv, ptr @_ZNK6dealii18StandardExceptions13ExcMemoryLeak10print_infoERSo] }, comdat, align 8
@.str.26 = private unnamed_addr constant [33 x i8] c"Destroying memory handler while \00", align 1
@.str.27 = private unnamed_addr constant [29 x i8] c" objects are still allocated\00", align 1
@.str.28 = private unnamed_addr constant [23 x i8] c"vector::_M_fill_insert\00", align 1
@.str.29 = private unnamed_addr constant [74 x i8] c"vector::_M_range_check: __n (which is %zu) >= this->size() (which is %zu)\00", align 1
@_ZZN6dealii8internal12TriaAccessor14Implementation12vertex_indexILi3ELi3EEEjRKNS_12TriaAccessorILi2EXT_EXT0_EEEjE12switch_table = linkonce_odr dso_local local_unnamed_addr constant [2 x [2 x i32]] [[2 x i32] [i32 1, i32 0], [2 x i32] [i32 0, i32 1]], comdat, align 16
@_ZZN5boost9function3IvRKN6dealii12SparseMatrixIdEERKSt3mapIjdSt4lessIjESaISt4pairIKjdEEERNS1_6VectorIdEEE9assign_toIPFvS5_SF_SI_EEEvT_E13stored_vtable = linkonce_odr dso_local global %"struct.boost::detail::function::basic_vtable3" { %"struct.boost::detail::function::vtable_base" { ptr @_ZN5boost6detail8function15functor_managerIPFvRKN6dealii12SparseMatrixIdEERKSt3mapIjdSt4lessIjESaISt4pairIKjdEEERNS3_6VectorIdEEEE6manageERKNS1_15function_bufferERSO_NS1_30functor_manager_operation_typeE }, ptr @_ZN5boost6detail8function22void_function_invoker3IPFvRKN6dealii12SparseMatrixIdEERKSt3mapIjdSt4lessIjESaISt4pairIKjdEEERNS3_6VectorIdEEEvS7_SH_SK_E6invokeERNS1_15function_bufferES7_SH_SK_ }, comdat, align 8
@_ZTVN10__cxxabiv119__pointer_type_infoE = external global ptr
@_ZTSPFvRKN6dealii12SparseMatrixIdEERKSt3mapIjdSt4lessIjESaISt4pairIKjdEEERNS_6VectorIdEEE = linkonce_odr dso_local constant [86 x i8] c"PFvRKN6dealii12SparseMatrixIdEERKSt3mapIjdSt4lessIjESaISt4pairIKjdEEERNS_6VectorIdEEE\00", comdat, align 1
@_ZTVN10__cxxabiv120__function_type_infoE = external global ptr
@_ZTSFvRKN6dealii12SparseMatrixIdEERKSt3mapIjdSt4lessIjESaISt4pairIKjdEEERNS_6VectorIdEEE = linkonce_odr dso_local constant [85 x i8] c"FvRKN6dealii12SparseMatrixIdEERKSt3mapIjdSt4lessIjESaISt4pairIKjdEEERNS_6VectorIdEEE\00", comdat, align 1
@_ZTIFvRKN6dealii12SparseMatrixIdEERKSt3mapIjdSt4lessIjESaISt4pairIKjdEEERNS_6VectorIdEEE = linkonce_odr dso_local constant { ptr, ptr } { ptr getelementptr inbounds (ptr, ptr @_ZTVN10__cxxabiv120__function_type_infoE, i64 2), ptr @_ZTSFvRKN6dealii12SparseMatrixIdEERKSt3mapIjdSt4lessIjESaISt4pairIKjdEEERNS_6VectorIdEEE }, comdat, align 8
@_ZTIPFvRKN6dealii12SparseMatrixIdEERKSt3mapIjdSt4lessIjESaISt4pairIKjdEEERNS_6VectorIdEEE = linkonce_odr dso_local constant { ptr, ptr, i32, ptr } { ptr getelementptr inbounds (ptr, ptr @_ZTVN10__cxxabiv119__pointer_type_infoE, i64 2), ptr @_ZTSPFvRKN6dealii12SparseMatrixIdEERKSt3mapIjdSt4lessIjESaISt4pairIKjdEEERNS_6VectorIdEEE, i32 0, ptr @_ZTIFvRKN6dealii12SparseMatrixIdEERKSt3mapIjdSt4lessIjESaISt4pairIKjdEEERNS_6VectorIdEEE }, comdat, align 8
@_ZZN5boost9function0IvE9assign_toINS_3_bi6bind_tINS3_11unspecifiedENS_8functionIFvRKN6dealii12SparseMatrixIdEERKSt3mapIjdSt4lessIjESaISt4pairIKjdEEERNS7_6VectorIdEEEEENS3_5list3INS_17reference_wrapperISA_EENSS_ISK_EENSS_ISN_EEEEEEEEvT_E13stored_vtable = linkonce_odr dso_local global %"struct.boost::detail::function::basic_vtable0" { %"struct.boost::detail::function::vtable_base" { ptr @_ZN5boost6detail8function15functor_managerINS_3_bi6bind_tINS3_11unspecifiedENS_8functionIFvRKN6dealii12SparseMatrixIdEERKSt3mapIjdSt4lessIjESaISt4pairIKjdEEERNS7_6VectorIdEEEEENS3_5list3INS_17reference_wrapperISA_EENSS_ISK_EENSS_ISN_EEEEEEE6manageERKNS1_15function_bufferERSZ_NS1_30functor_manager_operation_typeE }, ptr @_ZN5boost6detail8function26void_function_obj_invoker0INS_3_bi6bind_tINS3_11unspecifiedENS_8functionIFvRKN6dealii12SparseMatrixIdEERKSt3mapIjdSt4lessIjESaISt4pairIKjdEEERNS7_6VectorIdEEEEENS3_5list3INS_17reference_wrapperISA_EENSS_ISK_EENSS_ISN_EEEEEEvE6invokeERNS1_15function_bufferE }, comdat, align 8
@_ZTSN5boost3_bi6bind_tINS0_11unspecifiedENS_8functionIFvRKN6dealii12SparseMatrixIdEERKSt3mapIjdSt4lessIjESaISt4pairIKjdEEERNS4_6VectorIdEEEEENS0_5list3INS_17reference_wrapperIS7_EENSP_ISH_EENSP_ISK_EEEEEE = linkonce_odr dso_local constant [201 x i8] c"N5boost3_bi6bind_tINS0_11unspecifiedENS_8functionIFvRKN6dealii12SparseMatrixIdEERKSt3mapIjdSt4lessIjESaISt4pairIKjdEEERNS4_6VectorIdEEEEENS0_5list3INS_17reference_wrapperIS7_EENSP_ISH_EENSP_ISK_EEEEEE\00", comdat, align 1
@_ZTIN5boost3_bi6bind_tINS0_11unspecifiedENS_8functionIFvRKN6dealii12SparseMatrixIdEERKSt3mapIjdSt4lessIjESaISt4pairIKjdEEERNS4_6VectorIdEEEEENS0_5list3INS_17reference_wrapperIS7_EENSP_ISH_EENSP_ISK_EEEEEE = linkonce_odr dso_local constant { ptr, ptr } { ptr getelementptr inbounds (ptr, ptr @_ZTVN10__cxxabiv117__class_type_infoE, i64 2), ptr @_ZTSN5boost3_bi6bind_tINS0_11unspecifiedENS_8functionIFvRKN6dealii12SparseMatrixIdEERKSt3mapIjdSt4lessIjESaISt4pairIKjdEEERNS4_6VectorIdEEEEENS0_5list3INS_17reference_wrapperIS7_EENSP_ISH_EENSP_ISK_EEEEEE }, comdat, align 8
@_ZTSN5boost16exception_detail10clone_implINS0_19error_info_injectorINS_17bad_function_callEEEEE = linkonce_odr dso_local constant [92 x i8] c"N5boost16exception_detail10clone_implINS0_19error_info_injectorINS_17bad_function_callEEEEE\00", comdat, align 1
@_ZTSN5boost16exception_detail19error_info_injectorINS_17bad_function_callEEE = linkonce_odr dso_local constant [73 x i8] c"N5boost16exception_detail19error_info_injectorINS_17bad_function_callEEE\00", comdat, align 1
@_ZTSN5boost17bad_function_callE = linkonce_odr dso_local constant [28 x i8] c"N5boost17bad_function_callE\00", comdat, align 1
@_ZTISt13runtime_error = external constant ptr
@_ZTIN5boost17bad_function_callE = linkonce_odr dso_local constant { ptr, ptr, ptr } { ptr getelementptr inbounds (ptr, ptr @_ZTVN10__cxxabiv120__si_class_type_infoE, i64 2), ptr @_ZTSN5boost17bad_function_callE, ptr @_ZTISt13runtime_error }, comdat, align 8
@_ZTSN5boost9exceptionE = linkonce_odr dso_local constant [19 x i8] c"N5boost9exceptionE\00", comdat, align 1
@_ZTIN5boost9exceptionE = linkonce_odr dso_local constant { ptr, ptr } { ptr getelementptr inbounds (ptr, ptr @_ZTVN10__cxxabiv117__class_type_infoE, i64 2), ptr @_ZTSN5boost9exceptionE }, comdat, align 8
@_ZTIN5boost16exception_detail19error_info_injectorINS_17bad_function_callEEE = linkonce_odr dso_local constant { ptr, ptr, i32, i32, ptr, i64, ptr, i64 } { ptr getelementptr inbounds (ptr, ptr @_ZTVN10__cxxabiv121__vmi_class_type_infoE, i64 2), ptr @_ZTSN5boost16exception_detail19error_info_injectorINS_17bad_function_callEEE, i32 0, i32 2, ptr @_ZTIN5boost17bad_function_callE, i64 2, ptr @_ZTIN5boost9exceptionE, i64 4098 }, comdat, align 8
@_ZTSN5boost16exception_detail10clone_baseE = linkonce_odr dso_local constant [39 x i8] c"N5boost16exception_detail10clone_baseE\00", comdat, align 1
@_ZTIN5boost16exception_detail10clone_baseE = linkonce_odr dso_local constant { ptr, ptr } { ptr getelementptr inbounds (ptr, ptr @_ZTVN10__cxxabiv117__class_type_infoE, i64 2), ptr @_ZTSN5boost16exception_detail10clone_baseE }, comdat, align 8
@_ZTIN5boost16exception_detail10clone_implINS0_19error_info_injectorINS_17bad_function_callEEEEE = linkonce_odr dso_local constant { ptr, ptr, i32, i32, ptr, i64, ptr, i64 } { ptr getelementptr inbounds (ptr, ptr @_ZTVN10__cxxabiv121__vmi_class_type_infoE, i64 2), ptr @_ZTSN5boost16exception_detail10clone_implINS0_19error_info_injectorINS_17bad_function_callEEEEE, i32 0, i32 2, ptr @_ZTIN5boost16exception_detail19error_info_injectorINS_17bad_function_callEEE, i64 2, ptr @_ZTIN5boost16exception_detail10clone_baseE, i64 14338 }, comdat, align 8
@_ZTVN5boost16exception_detail10clone_implINS0_19error_info_injectorINS_17bad_function_callEEEEE = linkonce_odr dso_local unnamed_addr constant { [7 x ptr], [4 x ptr], [6 x ptr] } { [7 x ptr] [ptr null, ptr @_ZTIN5boost16exception_detail10clone_implINS0_19error_info_injectorINS_17bad_function_callEEEEE, ptr @_ZN5boost16exception_detail10clone_implINS0_19error_info_injectorINS_17bad_function_callEEEED2Ev, ptr @_ZN5boost16exception_detail10clone_implINS0_19error_info_injectorINS_17bad_function_callEEEED0Ev, ptr @_ZNKSt13runtime_error4whatEv, ptr @_ZNK5boost16exception_detail10clone_implINS0_19error_info_injectorINS_17bad_function_callEEEE5cloneEv, ptr @_ZNK5boost16exception_detail10clone_implINS0_19error_info_injectorINS_17bad_function_callEEEE7rethrowEv], [4 x ptr] [ptr inttoptr (i64 -16 to ptr), ptr @_ZTIN5boost16exception_detail10clone_implINS0_19error_info_injectorINS_17bad_function_callEEEEE, ptr @_ZThn16_N5boost16exception_detail10clone_implINS0_19error_info_injectorINS_17bad_function_callEEEED1Ev, ptr @_ZThn16_N5boost16exception_detail10clone_implINS0_19error_info_injectorINS_17bad_function_callEEEED0Ev], [6 x ptr] [ptr inttoptr (i64 -56 to ptr), ptr @_ZTIN5boost16exception_detail10clone_implINS0_19error_info_injectorINS_17bad_function_callEEEEE, ptr @_ZThn56_NK5boost16exception_detail10clone_implINS0_19error_info_injectorINS_17bad_function_callEEEE5cloneEv, ptr @_ZThn56_NK5boost16exception_detail10clone_implINS0_19error_info_injectorINS_17bad_function_callEEEE7rethrowEv, ptr @_ZThn56_N5boost16exception_detail10clone_implINS0_19error_info_injectorINS_17bad_function_callEEEED1Ev, ptr @_ZThn56_N5boost16exception_detail10clone_implINS0_19error_info_injectorINS_17bad_function_callEEEED0Ev] }, comdat, align 8
@_ZTVN5boost16exception_detail19error_info_injectorINS_17bad_function_callEEE = linkonce_odr dso_local unnamed_addr constant { [5 x ptr], [4 x ptr] } { [5 x ptr] [ptr null, ptr @_ZTIN5boost16exception_detail19error_info_injectorINS_17bad_function_callEEE, ptr @_ZN5boost16exception_detail19error_info_injectorINS_17bad_function_callEED2Ev, ptr @_ZN5boost16exception_detail19error_info_injectorINS_17bad_function_callEED0Ev, ptr @_ZNKSt13runtime_error4whatEv], [4 x ptr] [ptr inttoptr (i64 -16 to ptr), ptr @_ZTIN5boost16exception_detail19error_info_injectorINS_17bad_function_callEEE, ptr @_ZThn16_N5boost16exception_detail19error_info_injectorINS_17bad_function_callEED1Ev, ptr @_ZThn16_N5boost16exception_detail19error_info_injectorINS_17bad_function_callEED0Ev] }, comdat, align 8
@_ZTVN5boost17bad_function_callE = linkonce_odr dso_local unnamed_addr constant { [5 x ptr] } { [5 x ptr] [ptr null, ptr @_ZTIN5boost17bad_function_callE, ptr @_ZNSt13runtime_errorD2Ev, ptr @_ZN5boost17bad_function_callD0Ev, ptr @_ZNKSt13runtime_error4whatEv] }, comdat, align 8
@_ZTVN5boost9exceptionE = linkonce_odr dso_local unnamed_addr constant { [4 x ptr] } { [4 x ptr] [ptr null, ptr @_ZTIN5boost9exceptionE, ptr @__cxa_pure_virtual, ptr @__cxa_pure_virtual] }, comdat, align 8
@.str.30 = private unnamed_addr constant [30 x i8] c"call to empty boost::function\00", align 1
@_ZTVN5boost6detail17sp_counted_impl_pIN6dealii7Threads8internal16ThreadDescriptorIvEEEE = linkonce_odr dso_local unnamed_addr constant { [7 x ptr] } { [7 x ptr] [ptr null, ptr @_ZTIN5boost6detail17sp_counted_impl_pIN6dealii7Threads8internal16ThreadDescriptorIvEEEE, ptr @_ZN5boost6detail15sp_counted_baseD2Ev, ptr @_ZN5boost6detail17sp_counted_impl_pIN6dealii7Threads8internal16ThreadDescriptorIvEEED0Ev, ptr @_ZN5boost6detail17sp_counted_impl_pIN6dealii7Threads8internal16ThreadDescriptorIvEEE7disposeEv, ptr @_ZN5boost6detail15sp_counted_base7destroyEv, ptr @_ZN5boost6detail17sp_counted_impl_pIN6dealii7Threads8internal16ThreadDescriptorIvEEE11get_deleterERKSt9type_info] }, comdat, align 8
@_ZTSN5boost6detail17sp_counted_impl_pIN6dealii7Threads8internal16ThreadDescriptorIvEEEE = linkonce_odr dso_local constant [84 x i8] c"N5boost6detail17sp_counted_impl_pIN6dealii7Threads8internal16ThreadDescriptorIvEEEE\00", comdat, align 1
@_ZTIN5boost6detail17sp_counted_impl_pIN6dealii7Threads8internal16ThreadDescriptorIvEEEE = linkonce_odr dso_local constant { ptr, ptr, ptr } { ptr getelementptr inbounds (ptr, ptr @_ZTVN10__cxxabiv120__si_class_type_infoE, i64 2), ptr @_ZTSN5boost6detail17sp_counted_impl_pIN6dealii7Threads8internal16ThreadDescriptorIvEEEE, ptr @_ZTIN5boost6detail15sp_counted_baseE }, comdat, align 8
@.str.31 = private unnamed_addr constant [33 x i8] c"include/base/thread_management.h\00", align 1
@.str.32 = private unnamed_addr constant [18 x i8] c"thread_descriptor\00", align 1
@.str.33 = private unnamed_addr constant [14 x i8] c"ExcNoThread()\00", align 1
@_ZTSN6dealii7Threads6ThreadIvE11ExcNoThreadE = linkonce_odr dso_local constant [41 x i8] c"N6dealii7Threads6ThreadIvE11ExcNoThreadE\00", comdat, align 1
@_ZTIN6dealii7Threads6ThreadIvE11ExcNoThreadE = linkonce_odr dso_local constant { ptr, ptr, ptr } { ptr getelementptr inbounds (ptr, ptr @_ZTVN10__cxxabiv120__si_class_type_infoE, i64 2), ptr @_ZTSN6dealii7Threads6ThreadIvE11ExcNoThreadE, ptr @_ZTIN6dealii13ExceptionBaseE }, comdat, align 8
@_ZTVN6dealii7Threads6ThreadIvE11ExcNoThreadE = linkonce_odr dso_local unnamed_addr constant { [6 x ptr] } { [6 x ptr] [ptr null, ptr @_ZTIN6dealii7Threads6ThreadIvE11ExcNoThreadE, ptr @_ZN6dealii13ExceptionBaseD2Ev, ptr @_ZN6dealii7Threads6ThreadIvE11ExcNoThreadD0Ev, ptr @_ZNK6dealii13ExceptionBase4whatEv, ptr @_ZNK6dealii13ExceptionBase10print_infoERSo] }, comdat, align 8
@llvm.global_ctors = appending global [0 x { i32, ptr, ptr }] zeroinitializer

; Function Attrs: sspstrong uwtable
define weak_odr dso_local void @_ZN6dealii13GridGenerator10hyper_cubeILi3ELi3EEEvRNS_13TriangulationIXT_EXT0_EEEdd(ptr noundef nonnull align 8 dereferenceable(8552) %0, double noundef %1, double noundef %2) local_unnamed_addr #0 comdat align 2 {
  %4 = alloca %"class.dealii::Point", align 8
  %5 = alloca %"class.dealii::Point", align 8
  call void @llvm.lifetime.start.p0(i64 24, ptr nonnull %4) #23
  call void @llvm.lifetime.start.p0(i64 24, ptr nonnull %5) #23
  %6 = getelementptr inbounds [3 x double], ptr %4, i64 0, i64 2
  %7 = getelementptr inbounds [3 x double], ptr %5, i64 0, i64 2
  store double %1, ptr %4, align 8, !tbaa !5
  store double %2, ptr %5, align 8, !tbaa !5
  %8 = getelementptr inbounds [3 x double], ptr %4, i64 0, i64 1
  store double %1, ptr %8, align 8, !tbaa !5
  %9 = getelementptr inbounds [3 x double], ptr %5, i64 0, i64 1
  store double %2, ptr %9, align 8, !tbaa !5
  store double %1, ptr %6, align 8, !tbaa !5
  store double %2, ptr %7, align 8, !tbaa !5
  call void @_ZN6dealii13GridGenerator15hyper_rectangleILi3ELi3EEEvRNS_13TriangulationIXT_EXT0_EEERKNS_5PointIXT0_EEES8_b(ptr noundef nonnull align 8 dereferenceable(8552) %0, ptr noundef nonnull align 8 dereferenceable(24) %4, ptr noundef nonnull align 8 dereferenceable(24) %5, i1 noundef zeroext false)
  call void @llvm.lifetime.end.p0(i64 24, ptr nonnull %5) #23
  call void @llvm.lifetime.end.p0(i64 24, ptr nonnull %4) #23
  ret void
}

; Function Attrs: mustprogress nocallback nofree nosync nounwind willreturn memory(argmem: readwrite)
declare void @llvm.lifetime.start.p0(i64 immarg, ptr nocapture) #1

; Function Attrs: mustprogress nocallback nofree nosync nounwind willreturn memory(argmem: readwrite)
declare void @llvm.lifetime.end.p0(i64 immarg, ptr nocapture) #1

; Function Attrs: sspstrong uwtable
define weak_odr dso_local void @_ZN6dealii13GridGenerator15hyper_rectangleILi3ELi3EEEvRNS_13TriangulationIXT_EXT0_EEERKNS_5PointIXT0_EEES8_b(ptr noundef nonnull align 8 dereferenceable(8552) %0, ptr noundef nonnull align 8 dereferenceable(24) %1, ptr noundef nonnull align 8 dereferenceable(24) %2, i1 noundef zeroext %3) local_unnamed_addr #0 comdat align 2 personality ptr @__gxx_personality_v0 {
  %5 = alloca %"class.dealii::TriaIterator", align 8
  %6 = alloca %"class.std::vector.19", align 8
  %7 = alloca %"class.std::vector.38", align 8
  %8 = alloca %"struct.dealii::SubCellData", align 8
  %9 = getelementptr inbounds [3 x double], ptr %1, i64 0, i64 2
  %10 = load double, ptr %9, align 8, !tbaa !5
  %11 = getelementptr inbounds [3 x double], ptr %2, i64 0, i64 2
  %12 = load double, ptr %11, align 8, !tbaa !5
  %13 = fcmp ogt double %10, %12
  %14 = select i1 %13, double %10, double %12
  call void @llvm.lifetime.start.p0(i64 24, ptr nonnull %6) #23
  %15 = tail call noalias noundef nonnull dereferenceable(192) ptr @_Znwm(i64 noundef 192) #24
  store ptr %15, ptr %6, align 8, !tbaa !9
  %16 = getelementptr inbounds %"class.dealii::Point", ptr %15, i64 8
  %17 = getelementptr inbounds %"struct.std::_Vector_base<dealii::Point<3>, std::allocator<dealii::Point<3> > >::_Vector_impl_data", ptr %6, i64 0, i32 2
  store ptr %16, ptr %17, align 8, !tbaa !12
  %18 = getelementptr inbounds %"struct.std::_Vector_base<dealii::Point<3>, std::allocator<dealii::Point<3> > >::_Vector_impl_data", ptr %6, i64 0, i32 1
  store ptr %16, ptr %18, align 8, !tbaa !13
  %19 = getelementptr inbounds %"class.dealii::Point", ptr %15, i64 3
  %20 = getelementptr inbounds %"class.dealii::Point", ptr %15, i64 3, i32 0, i32 0, i64 1
  %21 = getelementptr inbounds %"class.dealii::Point", ptr %15, i64 2
  %22 = getelementptr inbounds %"class.dealii::Point", ptr %15, i64 2, i32 0, i32 0, i64 1
  %23 = getelementptr inbounds %"class.dealii::Point", ptr %15, i64 1
  %24 = getelementptr inbounds %"class.dealii::Point", ptr %15, i64 1, i32 0, i32 0, i64 1
  %25 = getelementptr inbounds %"class.dealii::Point", ptr %15, i64 1, i32 0, i32 0, i64 2
  %26 = load <2 x double>, ptr %1, align 8, !tbaa !5
  %27 = load <2 x double>, ptr %2, align 8, !tbaa !5
  %28 = fcmp ogt <2 x double> %26, %27
  %29 = extractelement <2 x i1> %28, i64 0
  %30 = extractelement <2 x double> %26, i64 0
  %31 = extractelement <2 x double> %27, i64 0
  %32 = select i1 %29, double %30, double %31
  %33 = select <2 x i1> %28, <2 x double> %27, <2 x double> %26
  %34 = extractelement <2 x double> %33, i64 0
  store double %34, ptr %21, align 8, !tbaa !5
  %35 = extractelement <2 x double> %33, i64 1
  store double %35, ptr %24, align 8, !tbaa !5
  store <2 x double> %33, ptr %15, align 8, !tbaa !5
  %36 = getelementptr inbounds [3 x double], ptr %15, i64 0, i64 2
  %37 = getelementptr inbounds %"class.dealii::Point", ptr %15, i64 7
  store double %32, ptr %37, align 8, !tbaa !5
  %38 = getelementptr inbounds %"class.dealii::Point", ptr %15, i64 7, i32 0, i32 0, i64 1
  %39 = getelementptr inbounds %"class.dealii::Point", ptr %15, i64 7, i32 0, i32 0, i64 2
  store double %14, ptr %39, align 8, !tbaa !5
  %40 = getelementptr inbounds %"class.dealii::Point", ptr %15, i64 6
  %41 = getelementptr inbounds %"class.dealii::Point", ptr %15, i64 6, i32 0, i32 0, i64 1
  %42 = getelementptr inbounds %"class.dealii::Point", ptr %15, i64 6, i32 0, i32 0, i64 2
  store double %14, ptr %42, align 8, !tbaa !5
  %43 = getelementptr inbounds %"class.dealii::Point", ptr %15, i64 5
  store double %32, ptr %43, align 8, !tbaa !5
  %44 = getelementptr inbounds %"class.dealii::Point", ptr %15, i64 5, i32 0, i32 0, i64 1
  %45 = getelementptr inbounds %"class.dealii::Point", ptr %15, i64 5, i32 0, i32 0, i64 2
  store double %14, ptr %45, align 8, !tbaa !5
  %46 = getelementptr inbounds %"class.dealii::Point", ptr %15, i64 4
  %47 = getelementptr inbounds %"class.dealii::Point", ptr %15, i64 4, i32 0, i32 0, i64 2
  store double %14, ptr %47, align 8, !tbaa !5
  store double %32, ptr %23, align 8, !tbaa !5
  %48 = shufflevector <2 x i1> %28, <2 x i1> poison, <2 x i32> <i32 1, i32 poison>
  %49 = insertelement <2 x i1> %48, i1 %13, i64 1
  %50 = shufflevector <2 x double> %26, <2 x double> poison, <2 x i32> <i32 1, i32 poison>
  %51 = insertelement <2 x double> %50, double %12, i64 1
  %52 = shufflevector <2 x double> %27, <2 x double> poison, <2 x i32> <i32 1, i32 poison>
  %53 = insertelement <2 x double> %52, double %10, i64 1
  %54 = select <2 x i1> %49, <2 x double> %51, <2 x double> %53
  %55 = extractelement <2 x double> %54, i64 1
  store double %55, ptr %25, align 8, !tbaa !5
  store double %55, ptr %36, align 8, !tbaa !5
  %56 = extractelement <2 x double> %54, i64 0
  store double %56, ptr %38, align 8, !tbaa !5
  store double %56, ptr %41, align 8, !tbaa !5
  store <2 x double> %54, ptr %22, align 8, !tbaa !5
  store double %32, ptr %19, align 8, !tbaa !5
  store <2 x double> %54, ptr %20, align 8, !tbaa !5
  store <2 x double> %33, ptr %46, align 8, !tbaa !5
  store double %35, ptr %44, align 8, !tbaa !5
  store double %34, ptr %40, align 8, !tbaa !5
  call void @llvm.lifetime.start.p0(i64 24, ptr nonnull %7) #23
  %57 = invoke noalias noundef nonnull dereferenceable(36) ptr @_Znwm(i64 noundef 36) #24
          to label %58 unwind label %67

58:                                               ; preds = %4
  store ptr %57, ptr %7, align 8, !tbaa !14
  %59 = getelementptr inbounds %"struct.std::_Vector_base<dealii::CellData<3>, std::allocator<dealii::CellData<3> > >::_Vector_impl_data", ptr %7, i64 0, i32 1
  %60 = getelementptr inbounds %"struct.dealii::CellData", ptr %57, i64 1
  %61 = getelementptr inbounds %"struct.std::_Vector_base<dealii::CellData<3>, std::allocator<dealii::CellData<3> > >::_Vector_impl_data", ptr %7, i64 0, i32 2
  store ptr %60, ptr %61, align 8, !tbaa !16
  %62 = getelementptr inbounds i8, ptr %57, i64 32
  store i32 0, ptr %62, align 4
  store ptr %60, ptr %59, align 8, !tbaa !17
  store <8 x i32> <i32 0, i32 1, i32 2, i32 3, i32 4, i32 5, i32 6, i32 7>, ptr %57, align 4, !tbaa !18
  %63 = getelementptr inbounds %"struct.dealii::CellData", ptr %57, i64 0, i32 1
  store i8 0, ptr %63, align 4, !tbaa !20
  call void @llvm.lifetime.start.p0(i64 48, ptr nonnull %8) #23
  call void @llvm.memset.p0.i64(ptr noundef nonnull align 8 dereferenceable(48) %8, i8 0, i64 48, i1 false)
  %64 = load ptr, ptr %0, align 8, !tbaa !22
  %65 = getelementptr inbounds ptr, ptr %64, i64 3
  %66 = load ptr, ptr %65, align 8
  invoke void %66(ptr noundef nonnull align 8 dereferenceable(8552) %0, ptr noundef nonnull align 8 dereferenceable(24) %6, ptr noundef nonnull align 8 dereferenceable(24) %7, ptr noundef nonnull align 8 dereferenceable(48) %8)
          to label %69 unwind label %199

67:                                               ; preds = %4
  %68 = landingpad { ptr, i32 }
          cleanup
  br label %216

69:                                               ; preds = %58
  %70 = getelementptr inbounds %"struct.dealii::SubCellData", ptr %8, i64 0, i32 1
  %71 = load ptr, ptr %70, align 8, !tbaa !24
  %72 = icmp eq ptr %71, null
  br i1 %72, label %74, label %73

73:                                               ; preds = %69
  call void @_ZdlPv(ptr noundef nonnull %71) #25
  br label %74

74:                                               ; preds = %73, %69
  %75 = load ptr, ptr %8, align 8, !tbaa !26
  %76 = icmp eq ptr %75, null
  br i1 %76, label %78, label %77

77:                                               ; preds = %74
  call void @_ZdlPv(ptr noundef nonnull %75) #25
  br label %78

78:                                               ; preds = %77, %74
  call void @llvm.lifetime.end.p0(i64 48, ptr nonnull %8) #23
  br i1 %3, label %79, label %202

79:                                               ; preds = %78
  call void @llvm.lifetime.start.p0(i64 16, ptr nonnull %5) #23
  invoke void @_ZNK6dealii13TriangulationILi3ELi3EE5beginEj(ptr nonnull sret(%"class.dealii::TriaIterator") align 8 %5, ptr noundef nonnull align 8 dereferenceable(8552) %0, i32 noundef 0)
          to label %80 unwind label %197

80:                                               ; preds = %79
  %81 = getelementptr inbounds %"class.dealii::TriaAccessorBase", ptr %5, i64 0, i32 2
  %82 = getelementptr inbounds %"class.dealii::TriaAccessorBase", ptr %5, i64 0, i32 1
  %83 = load ptr, ptr %81, align 8, !tbaa !28, !noalias !30
  %84 = getelementptr inbounds %"class.dealii::Triangulation", ptr %83, i64 0, i32 1
  %85 = load i32, ptr %5, align 8, !tbaa !35, !noalias !30
  %86 = sext i32 %85 to i64
  %87 = load ptr, ptr %84, align 8, !tbaa !36, !noalias !30
  %88 = getelementptr inbounds ptr, ptr %87, i64 %86
  %89 = load ptr, ptr %88, align 8, !tbaa !38, !noalias !30
  %90 = getelementptr inbounds %"class.dealii::internal::Triangulation::TriaLevel", ptr %89, i64 0, i32 4
  %91 = load i32, ptr %82, align 4, !tbaa !39, !noalias !30
  %92 = sext i32 %91 to i64
  %93 = load ptr, ptr %90, align 8, !tbaa !40, !noalias !30
  %94 = getelementptr inbounds %"class.dealii::internal::Triangulation::TriaObject", ptr %93, i64 %92
  %95 = load i32, ptr %94, align 4, !tbaa !18, !noalias !30
  %96 = getelementptr inbounds %"class.dealii::Triangulation", ptr %83, i64 0, i32 2
  %97 = load ptr, ptr %96, align 8, !tbaa !42
  %98 = getelementptr inbounds %"class.dealii::internal::Triangulation::TriaObjects.239", ptr %97, i64 0, i32 5
  %99 = sext i32 %95 to i64
  %100 = load ptr, ptr %98, align 8, !tbaa !80
  %101 = getelementptr inbounds i8, ptr %100, i64 %99
  store i8 0, ptr %101, align 1, !tbaa !82
  %102 = load ptr, ptr %81, align 8, !tbaa !28, !noalias !30
  %103 = getelementptr inbounds %"class.dealii::Triangulation", ptr %102, i64 0, i32 1
  %104 = load i32, ptr %5, align 8, !tbaa !35, !noalias !30
  %105 = sext i32 %104 to i64
  %106 = load ptr, ptr %103, align 8, !tbaa !36, !noalias !30
  %107 = getelementptr inbounds ptr, ptr %106, i64 %105
  %108 = load ptr, ptr %107, align 8, !tbaa !38, !noalias !30
  %109 = getelementptr inbounds %"class.dealii::internal::Triangulation::TriaLevel", ptr %108, i64 0, i32 4
  %110 = load i32, ptr %82, align 4, !tbaa !39, !noalias !30
  %111 = sext i32 %110 to i64
  %112 = load ptr, ptr %109, align 8, !tbaa !40, !noalias !30
  %113 = getelementptr inbounds %"class.dealii::internal::Triangulation::TriaObject", ptr %112, i64 %111, i32 0, i64 1
  %114 = load i32, ptr %113, align 4, !tbaa !18, !noalias !30
  %115 = getelementptr inbounds %"class.dealii::Triangulation", ptr %102, i64 0, i32 2
  %116 = load ptr, ptr %115, align 8, !tbaa !42
  %117 = getelementptr inbounds %"class.dealii::internal::Triangulation::TriaObjects.239", ptr %116, i64 0, i32 5
  %118 = sext i32 %114 to i64
  %119 = load ptr, ptr %117, align 8, !tbaa !80
  %120 = getelementptr inbounds i8, ptr %119, i64 %118
  store i8 1, ptr %120, align 1, !tbaa !82
  %121 = load ptr, ptr %81, align 8, !tbaa !28, !noalias !30
  %122 = getelementptr inbounds %"class.dealii::Triangulation", ptr %121, i64 0, i32 1
  %123 = load i32, ptr %5, align 8, !tbaa !35, !noalias !30
  %124 = sext i32 %123 to i64
  %125 = load ptr, ptr %122, align 8, !tbaa !36, !noalias !30
  %126 = getelementptr inbounds ptr, ptr %125, i64 %124
  %127 = load ptr, ptr %126, align 8, !tbaa !38, !noalias !30
  %128 = getelementptr inbounds %"class.dealii::internal::Triangulation::TriaLevel", ptr %127, i64 0, i32 4
  %129 = load i32, ptr %82, align 4, !tbaa !39, !noalias !30
  %130 = sext i32 %129 to i64
  %131 = load ptr, ptr %128, align 8, !tbaa !40, !noalias !30
  %132 = getelementptr inbounds %"class.dealii::internal::Triangulation::TriaObject", ptr %131, i64 %130, i32 0, i64 2
  %133 = load i32, ptr %132, align 4, !tbaa !18, !noalias !30
  %134 = getelementptr inbounds %"class.dealii::Triangulation", ptr %121, i64 0, i32 2
  %135 = load ptr, ptr %134, align 8, !tbaa !42
  %136 = getelementptr inbounds %"class.dealii::internal::Triangulation::TriaObjects.239", ptr %135, i64 0, i32 5
  %137 = sext i32 %133 to i64
  %138 = load ptr, ptr %136, align 8, !tbaa !80
  %139 = getelementptr inbounds i8, ptr %138, i64 %137
  store i8 2, ptr %139, align 1, !tbaa !82
  %140 = load ptr, ptr %81, align 8, !tbaa !28, !noalias !30
  %141 = getelementptr inbounds %"class.dealii::Triangulation", ptr %140, i64 0, i32 1
  %142 = load i32, ptr %5, align 8, !tbaa !35, !noalias !30
  %143 = sext i32 %142 to i64
  %144 = load ptr, ptr %141, align 8, !tbaa !36, !noalias !30
  %145 = getelementptr inbounds ptr, ptr %144, i64 %143
  %146 = load ptr, ptr %145, align 8, !tbaa !38, !noalias !30
  %147 = getelementptr inbounds %"class.dealii::internal::Triangulation::TriaLevel", ptr %146, i64 0, i32 4
  %148 = load i32, ptr %82, align 4, !tbaa !39, !noalias !30
  %149 = sext i32 %148 to i64
  %150 = load ptr, ptr %147, align 8, !tbaa !40, !noalias !30
  %151 = getelementptr inbounds %"class.dealii::internal::Triangulation::TriaObject", ptr %150, i64 %149, i32 0, i64 3
  %152 = load i32, ptr %151, align 4, !tbaa !18, !noalias !30
  %153 = getelementptr inbounds %"class.dealii::Triangulation", ptr %140, i64 0, i32 2
  %154 = load ptr, ptr %153, align 8, !tbaa !42
  %155 = getelementptr inbounds %"class.dealii::internal::Triangulation::TriaObjects.239", ptr %154, i64 0, i32 5
  %156 = sext i32 %152 to i64
  %157 = load ptr, ptr %155, align 8, !tbaa !80
  %158 = getelementptr inbounds i8, ptr %157, i64 %156
  store i8 3, ptr %158, align 1, !tbaa !82
  %159 = load ptr, ptr %81, align 8, !tbaa !28, !noalias !30
  %160 = getelementptr inbounds %"class.dealii::Triangulation", ptr %159, i64 0, i32 1
  %161 = load i32, ptr %5, align 8, !tbaa !35, !noalias !30
  %162 = sext i32 %161 to i64
  %163 = load ptr, ptr %160, align 8, !tbaa !36, !noalias !30
  %164 = getelementptr inbounds ptr, ptr %163, i64 %162
  %165 = load ptr, ptr %164, align 8, !tbaa !38, !noalias !30
  %166 = getelementptr inbounds %"class.dealii::internal::Triangulation::TriaLevel", ptr %165, i64 0, i32 4
  %167 = load i32, ptr %82, align 4, !tbaa !39, !noalias !30
  %168 = sext i32 %167 to i64
  %169 = load ptr, ptr %166, align 8, !tbaa !40, !noalias !30
  %170 = getelementptr inbounds %"class.dealii::internal::Triangulation::TriaObject", ptr %169, i64 %168, i32 0, i64 4
  %171 = load i32, ptr %170, align 4, !tbaa !18, !noalias !30
  %172 = getelementptr inbounds %"class.dealii::Triangulation", ptr %159, i64 0, i32 2
  %173 = load ptr, ptr %172, align 8, !tbaa !42
  %174 = getelementptr inbounds %"class.dealii::internal::Triangulation::TriaObjects.239", ptr %173, i64 0, i32 5
  %175 = sext i32 %171 to i64
  %176 = load ptr, ptr %174, align 8, !tbaa !80
  %177 = getelementptr inbounds i8, ptr %176, i64 %175
  store i8 4, ptr %177, align 1, !tbaa !82
  %178 = load ptr, ptr %81, align 8, !tbaa !28, !noalias !30
  %179 = getelementptr inbounds %"class.dealii::Triangulation", ptr %178, i64 0, i32 1
  %180 = load i32, ptr %5, align 8, !tbaa !35, !noalias !30
  %181 = sext i32 %180 to i64
  %182 = load ptr, ptr %179, align 8, !tbaa !36, !noalias !30
  %183 = getelementptr inbounds ptr, ptr %182, i64 %181
  %184 = load ptr, ptr %183, align 8, !tbaa !38, !noalias !30
  %185 = getelementptr inbounds %"class.dealii::internal::Triangulation::TriaLevel", ptr %184, i64 0, i32 4
  %186 = load i32, ptr %82, align 4, !tbaa !39, !noalias !30
  %187 = sext i32 %186 to i64
  %188 = load ptr, ptr %185, align 8, !tbaa !40, !noalias !30
  %189 = getelementptr inbounds %"class.dealii::internal::Triangulation::TriaObject", ptr %188, i64 %187, i32 0, i64 5
  %190 = load i32, ptr %189, align 4, !tbaa !18, !noalias !30
  %191 = getelementptr inbounds %"class.dealii::Triangulation", ptr %178, i64 0, i32 2
  %192 = load ptr, ptr %191, align 8, !tbaa !42
  %193 = getelementptr inbounds %"class.dealii::internal::Triangulation::TriaObjects.239", ptr %192, i64 0, i32 5
  %194 = sext i32 %190 to i64
  %195 = load ptr, ptr %193, align 8, !tbaa !80
  %196 = getelementptr inbounds i8, ptr %195, i64 %194
  store i8 5, ptr %196, align 1, !tbaa !82
  call void @llvm.lifetime.end.p0(i64 16, ptr nonnull %5) #23
  br label %202

197:                                              ; preds = %79
  %198 = landingpad { ptr, i32 }
          cleanup
  br label %211

199:                                              ; preds = %58
  %200 = landingpad { ptr, i32 }
          cleanup
  invoke void @_ZN6dealii11SubCellDataD2Ev(ptr noundef nonnull align 8 dereferenceable(48) %8)
          to label %201 unwind label %222

201:                                              ; preds = %199
  call void @llvm.lifetime.end.p0(i64 48, ptr nonnull %8) #23
  br label %211

202:                                              ; preds = %80, %78
  %203 = load ptr, ptr %7, align 8, !tbaa !14
  %204 = icmp eq ptr %203, null
  br i1 %204, label %206, label %205

205:                                              ; preds = %202
  call void @_ZdlPv(ptr noundef nonnull %203) #25
  br label %206

206:                                              ; preds = %205, %202
  call void @llvm.lifetime.end.p0(i64 24, ptr nonnull %7) #23
  %207 = load ptr, ptr %6, align 8, !tbaa !9
  %208 = icmp eq ptr %207, null
  br i1 %208, label %210, label %209

209:                                              ; preds = %206
  call void @_ZdlPv(ptr noundef nonnull %207) #25
  br label %210

210:                                              ; preds = %206, %209
  call void @llvm.lifetime.end.p0(i64 24, ptr nonnull %6) #23
  ret void

211:                                              ; preds = %201, %197
  %212 = phi { ptr, i32 } [ %198, %197 ], [ %200, %201 ]
  %213 = load ptr, ptr %7, align 8, !tbaa !14
  %214 = icmp eq ptr %213, null
  br i1 %214, label %216, label %215

215:                                              ; preds = %211
  call void @_ZdlPv(ptr noundef nonnull %213) #25
  br label %216

216:                                              ; preds = %215, %211, %67
  %217 = phi { ptr, i32 } [ %68, %67 ], [ %212, %211 ], [ %212, %215 ]
  call void @llvm.lifetime.end.p0(i64 24, ptr nonnull %7) #23
  %218 = load ptr, ptr %6, align 8, !tbaa !9
  %219 = icmp eq ptr %218, null
  br i1 %219, label %221, label %220

220:                                              ; preds = %216
  call void @_ZdlPv(ptr noundef nonnull %218) #25
  br label %221

221:                                              ; preds = %220, %216
  call void @llvm.lifetime.end.p0(i64 24, ptr nonnull %6) #23
  resume { ptr, i32 } %217

222:                                              ; preds = %199
  %223 = landingpad { ptr, i32 }
          catch ptr null
  %224 = extractvalue { ptr, i32 } %223, 0
  call void @__clang_call_terminate(ptr %224) #26
  unreachable
}

; Function Attrs: sspstrong uwtable
define weak_odr dso_local void @_ZN6dealii13GridGenerator21subdivided_hyper_cubeILi3EEEvRNS_13TriangulationIXT_EXT_EEEjdd(ptr noundef nonnull align 8 dereferenceable(8552) %0, i32 noundef %1, double noundef %2, double noundef %3) local_unnamed_addr #0 comdat align 2 personality ptr @__gxx_personality_v0 {
  %5 = alloca %"struct.dealii::CellData", align 8
  %6 = alloca %"class.std::vector.19", align 8
  %7 = alloca %"class.std::vector.38", align 8
  %8 = alloca %"struct.dealii::SubCellData", align 8
  %9 = fsub double %3, %2
  %10 = uitofp i32 %1 to double
  %11 = fdiv double %9, %10
  call void @llvm.lifetime.start.p0(i64 24, ptr nonnull %6) #23
  call void @llvm.memset.p0.i64(ptr noundef nonnull align 8 dereferenceable(24) %6, i8 0, i64 24, i1 false)
  %12 = getelementptr inbounds %"struct.std::_Vector_base<dealii::Point<3>, std::allocator<dealii::Point<3> > >::_Vector_impl_data", ptr %6, i64 0, i32 1
  %13 = getelementptr inbounds %"struct.std::_Vector_base<dealii::Point<3>, std::allocator<dealii::Point<3> > >::_Vector_impl_data", ptr %6, i64 0, i32 2
  %14 = load ptr, ptr %12, align 8, !tbaa !13
  br label %15

15:                                               ; preds = %4, %33
  %16 = phi ptr [ null, %4 ], [ %97, %33 ]
  %17 = phi ptr [ %14, %4 ], [ %101, %33 ]
  %18 = phi ptr [ null, %4 ], [ %98, %33 ]
  %19 = phi ptr [ null, %4 ], [ %101, %33 ]
  %20 = phi i32 [ 0, %4 ], [ %34, %33 ]
  %21 = phi ptr [ null, %4 ], [ %100, %33 ]
  %22 = uitofp i32 %20 to double
  %23 = tail call double @llvm.fmuladd.f64(double %22, double %11, double %2)
  br label %24

24:                                               ; preds = %15, %36
  %25 = phi ptr [ %16, %15 ], [ %97, %36 ]
  %26 = phi ptr [ %17, %15 ], [ %101, %36 ]
  %27 = phi ptr [ %18, %15 ], [ %98, %36 ]
  %28 = phi ptr [ %19, %15 ], [ %101, %36 ]
  %29 = phi i32 [ 0, %15 ], [ %37, %36 ]
  %30 = phi ptr [ %21, %15 ], [ %100, %36 ]
  %31 = uitofp i32 %29 to double
  %32 = tail call double @llvm.fmuladd.f64(double %31, double %11, double %2)
  br label %39

33:                                               ; preds = %36
  %34 = add i32 %20, 1
  %35 = icmp ugt i32 %34, %1
  br i1 %35, label %108, label %15

36:                                               ; preds = %96
  %37 = add i32 %29, 1
  %38 = icmp ugt i32 %37, %1
  br i1 %38, label %33, label %24

39:                                               ; preds = %24, %96
  %40 = phi ptr [ %25, %24 ], [ %97, %96 ]
  %41 = phi ptr [ %26, %24 ], [ %101, %96 ]
  %42 = phi ptr [ %27, %24 ], [ %98, %96 ]
  %43 = phi ptr [ %28, %24 ], [ %101, %96 ]
  %44 = phi i32 [ 0, %24 ], [ %102, %96 ]
  %45 = phi ptr [ %30, %24 ], [ %100, %96 ]
  %46 = uitofp i32 %44 to double
  %47 = tail call double @llvm.fmuladd.f64(double %46, double %11, double %2)
  %48 = icmp eq ptr %43, %45
  br i1 %48, label %52, label %49

49:                                               ; preds = %39
  store double %47, ptr %43, align 8, !tbaa !5
  %50 = getelementptr inbounds [3 x double], ptr %43, i64 0, i64 1
  store double %32, ptr %50, align 8, !tbaa !5
  %51 = getelementptr inbounds [3 x double], ptr %43, i64 0, i64 2
  store double %23, ptr %51, align 8, !tbaa !5
  br label %96

52:                                               ; preds = %39
  %53 = ptrtoint ptr %43 to i64
  %54 = ptrtoint ptr %42 to i64
  %55 = sub i64 %53, %54
  %56 = icmp eq i64 %55, 9223372036854775800
  br i1 %56, label %57, label %59

57:                                               ; preds = %52
  store ptr %17, ptr %12, align 8, !tbaa !13
  store ptr %16, ptr %6, align 8, !tbaa !9
  store ptr %26, ptr %12, align 8, !tbaa !13
  store ptr %25, ptr %6, align 8, !tbaa !9
  store ptr %41, ptr %12, align 8, !tbaa !13
  store ptr %40, ptr %6, align 8, !tbaa !9
  store ptr %43, ptr %13, align 8, !tbaa !12
  invoke void @_ZSt20__throw_length_errorPKc(ptr noundef nonnull @.str.13) #27
          to label %58 unwind label %106

58:                                               ; preds = %57
  unreachable

59:                                               ; preds = %52
  %60 = sdiv exact i64 %55, 24
  %61 = tail call i64 @llvm.umax.i64(i64 %60, i64 1)
  %62 = add i64 %61, %60
  %63 = icmp ult i64 %62, %60
  %64 = icmp ugt i64 %62, 384307168202282325
  %65 = or i1 %63, %64
  %66 = select i1 %65, i64 384307168202282325, i64 %62
  %67 = icmp eq i64 %66, 0
  br i1 %67, label %71, label %68

68:                                               ; preds = %59
  %69 = mul nuw nsw i64 %66, 24
  %70 = invoke noalias noundef nonnull ptr @_Znwm(i64 noundef %69) #24
          to label %71 unwind label %104

71:                                               ; preds = %68, %59
  %72 = phi ptr [ null, %59 ], [ %70, %68 ]
  %73 = getelementptr inbounds %"class.dealii::Point", ptr %72, i64 %60
  store double %47, ptr %73, align 8, !tbaa !5
  %74 = getelementptr inbounds [3 x double], ptr %73, i64 0, i64 1
  store double %32, ptr %74, align 8, !tbaa !5
  %75 = getelementptr inbounds [3 x double], ptr %73, i64 0, i64 2
  store double %23, ptr %75, align 8, !tbaa !5
  %76 = icmp eq ptr %42, %43
  br i1 %76, label %90, label %77

77:                                               ; preds = %71, %77
  %78 = phi ptr [ %88, %77 ], [ %72, %71 ]
  %79 = phi ptr [ %87, %77 ], [ %42, %71 ]
  %80 = load double, ptr %79, align 8, !tbaa !5
  store double %80, ptr %78, align 8, !tbaa !5
  %81 = getelementptr inbounds [3 x double], ptr %79, i64 0, i64 1
  %82 = load double, ptr %81, align 8, !tbaa !5
  %83 = getelementptr inbounds [3 x double], ptr %78, i64 0, i64 1
  store double %82, ptr %83, align 8, !tbaa !5
  %84 = getelementptr inbounds [3 x double], ptr %79, i64 0, i64 2
  %85 = load double, ptr %84, align 8, !tbaa !5
  %86 = getelementptr inbounds [3 x double], ptr %78, i64 0, i64 2
  store double %85, ptr %86, align 8, !tbaa !5
  %87 = getelementptr inbounds %"class.dealii::Point", ptr %79, i64 1
  %88 = getelementptr inbounds %"class.dealii::Point", ptr %78, i64 1
  %89 = icmp eq ptr %87, %43
  br i1 %89, label %90, label %77

90:                                               ; preds = %77, %71
  %91 = phi ptr [ %72, %71 ], [ %88, %77 ]
  %92 = icmp eq ptr %42, null
  br i1 %92, label %94, label %93

93:                                               ; preds = %90
  tail call void @_ZdlPv(ptr noundef nonnull %42) #25
  br label %94

94:                                               ; preds = %93, %90
  %95 = getelementptr inbounds %"class.dealii::Point", ptr %72, i64 %66
  br label %96

96:                                               ; preds = %94, %49
  %97 = phi ptr [ %72, %94 ], [ %40, %49 ]
  %98 = phi ptr [ %72, %94 ], [ %42, %49 ]
  %99 = phi ptr [ %91, %94 ], [ %43, %49 ]
  %100 = phi ptr [ %95, %94 ], [ %45, %49 ]
  %101 = getelementptr inbounds %"class.dealii::Point", ptr %99, i64 1
  %102 = add i32 %44, 1
  %103 = icmp ugt i32 %102, %1
  br i1 %103, label %36, label %39

104:                                              ; preds = %68
  %105 = landingpad { ptr, i32 }
          cleanup
  store ptr %17, ptr %12, align 8, !tbaa !13
  store ptr %16, ptr %6, align 8, !tbaa !9
  store ptr %26, ptr %12, align 8, !tbaa !13
  store ptr %25, ptr %6, align 8, !tbaa !9
  store ptr %41, ptr %12, align 8, !tbaa !13
  store ptr %40, ptr %6, align 8, !tbaa !9
  store ptr %43, ptr %13, align 8, !tbaa !12
  br label %200

106:                                              ; preds = %57
  %107 = landingpad { ptr, i32 }
          cleanup
  br label %200

108:                                              ; preds = %33
  store ptr %101, ptr %12, align 8, !tbaa !13
  store ptr %97, ptr %6, align 8, !tbaa !9
  store ptr %100, ptr %13, align 8, !tbaa !12
  call void @llvm.lifetime.start.p0(i64 24, ptr nonnull %7) #23
  call void @llvm.memset.p0.i64(ptr noundef nonnull align 8 dereferenceable(24) %7, i8 0, i64 24, i1 false)
  %109 = add nuw i32 %1, 1
  %110 = mul i32 %109, %109
  %111 = mul i32 %1, %1
  %112 = mul i32 %111, %1
  call void @llvm.lifetime.start.p0(i64 36, ptr nonnull %5)
  call void @llvm.memset.p0.i64(ptr noundef nonnull align 8 dereferenceable(36) %5, i8 0, i64 36, i1 false)
  %113 = icmp eq i32 %112, 0
  br i1 %113, label %116, label %114

114:                                              ; preds = %108
  %115 = zext i32 %112 to i64
  invoke void @_ZNSt6vectorIN6dealii8CellDataILi3EEESaIS2_EE14_M_fill_insertEN9__gnu_cxx17__normal_iteratorIPS2_S4_EEmRKS2_(ptr noundef nonnull align 8 dereferenceable(24) %7, ptr null, i64 noundef %115, ptr noundef nonnull align 4 dereferenceable(36) %5)
          to label %116 unwind label %127

116:                                              ; preds = %108, %114
  call void @llvm.lifetime.end.p0(i64 36, ptr nonnull %5)
  %117 = icmp eq i32 %1, 0
  br i1 %117, label %169, label %118

118:                                              ; preds = %116
  %119 = load ptr, ptr %7, align 8, !tbaa !14
  %120 = zext i32 %1 to i64
  br label %121

121:                                              ; preds = %118, %136
  %122 = phi i32 [ 0, %118 ], [ %125, %136 ]
  %123 = mul i32 %122, %1
  %124 = mul i32 %122, %110
  %125 = add nuw i32 %122, 1
  %126 = mul i32 %125, %110
  br label %129

127:                                              ; preds = %114
  %128 = landingpad { ptr, i32 }
          cleanup
  br label %194

129:                                              ; preds = %121, %138
  %130 = phi i32 [ 0, %121 ], [ %134, %138 ]
  %131 = add i32 %130, %123
  %132 = mul i32 %131, %1
  %133 = mul i32 %130, %109
  %134 = add nuw i32 %130, 1
  %135 = mul i32 %134, %109
  br label %140

136:                                              ; preds = %138
  %137 = icmp eq i32 %125, %1
  br i1 %137, label %169, label %121

138:                                              ; preds = %140
  %139 = icmp eq i32 %134, %1
  br i1 %139, label %136, label %129

140:                                              ; preds = %129, %140
  %141 = phi i64 [ 0, %129 ], [ %148, %140 ]
  %142 = trunc i64 %141 to i32
  %143 = add i32 %132, %142
  %144 = add i32 %133, %142
  %145 = add i32 %144, %124
  %146 = zext i32 %143 to i64
  %147 = getelementptr inbounds %"struct.dealii::CellData", ptr %119, i64 %146
  store i32 %145, ptr %147, align 4, !tbaa !18
  %148 = add nuw nsw i64 %141, 1
  %149 = trunc i64 %148 to i32
  %150 = add i32 %133, %149
  %151 = add i32 %150, %124
  %152 = getelementptr inbounds [8 x i32], ptr %147, i64 0, i64 1
  store i32 %151, ptr %152, align 4, !tbaa !18
  %153 = add i32 %135, %142
  %154 = add i32 %153, %124
  %155 = getelementptr inbounds [8 x i32], ptr %147, i64 0, i64 2
  store i32 %154, ptr %155, align 4, !tbaa !18
  %156 = add i32 %135, %149
  %157 = add i32 %156, %124
  %158 = getelementptr inbounds [8 x i32], ptr %147, i64 0, i64 3
  store i32 %157, ptr %158, align 4, !tbaa !18
  %159 = add i32 %144, %126
  %160 = getelementptr inbounds [8 x i32], ptr %147, i64 0, i64 4
  store i32 %159, ptr %160, align 4, !tbaa !18
  %161 = add i32 %150, %126
  %162 = getelementptr inbounds [8 x i32], ptr %147, i64 0, i64 5
  store i32 %161, ptr %162, align 4, !tbaa !18
  %163 = add i32 %153, %126
  %164 = getelementptr inbounds [8 x i32], ptr %147, i64 0, i64 6
  store i32 %163, ptr %164, align 4, !tbaa !18
  %165 = add i32 %156, %126
  %166 = getelementptr inbounds [8 x i32], ptr %147, i64 0, i64 7
  store i32 %165, ptr %166, align 4, !tbaa !18
  %167 = getelementptr inbounds %"struct.dealii::CellData", ptr %119, i64 %146, i32 1
  store i8 0, ptr %167, align 4, !tbaa !20
  %168 = icmp eq i64 %148, %120
  br i1 %168, label %138, label %140

169:                                              ; preds = %136, %116
  call void @llvm.lifetime.start.p0(i64 48, ptr nonnull %8) #23
  call void @llvm.memset.p0.i64(ptr noundef nonnull align 8 dereferenceable(48) %8, i8 0, i64 48, i1 false)
  %170 = load ptr, ptr %0, align 8, !tbaa !22
  %171 = getelementptr inbounds ptr, ptr %170, i64 3
  %172 = load ptr, ptr %171, align 8
  invoke void %172(ptr noundef nonnull align 8 dereferenceable(8552) %0, ptr noundef nonnull align 8 dereferenceable(24) %6, ptr noundef nonnull align 8 dereferenceable(24) %7, ptr noundef nonnull align 8 dereferenceable(48) %8)
          to label %173 unwind label %191

173:                                              ; preds = %169
  %174 = getelementptr inbounds %"struct.dealii::SubCellData", ptr %8, i64 0, i32 1
  %175 = load ptr, ptr %174, align 8, !tbaa !24
  %176 = icmp eq ptr %175, null
  br i1 %176, label %178, label %177

177:                                              ; preds = %173
  call void @_ZdlPv(ptr noundef nonnull %175) #25
  br label %178

178:                                              ; preds = %177, %173
  %179 = load ptr, ptr %8, align 8, !tbaa !26
  %180 = icmp eq ptr %179, null
  br i1 %180, label %182, label %181

181:                                              ; preds = %178
  call void @_ZdlPv(ptr noundef nonnull %179) #25
  br label %182

182:                                              ; preds = %181, %178
  call void @llvm.lifetime.end.p0(i64 48, ptr nonnull %8) #23
  %183 = load ptr, ptr %7, align 8, !tbaa !14
  %184 = icmp eq ptr %183, null
  br i1 %184, label %186, label %185

185:                                              ; preds = %182
  call void @_ZdlPv(ptr noundef nonnull %183) #25
  br label %186

186:                                              ; preds = %185, %182
  call void @llvm.lifetime.end.p0(i64 24, ptr nonnull %7) #23
  %187 = load ptr, ptr %6, align 8, !tbaa !9
  %188 = icmp eq ptr %187, null
  br i1 %188, label %190, label %189

189:                                              ; preds = %186
  call void @_ZdlPv(ptr noundef nonnull %187) #25
  br label %190

190:                                              ; preds = %186, %189
  call void @llvm.lifetime.end.p0(i64 24, ptr nonnull %6) #23
  ret void

191:                                              ; preds = %169
  %192 = landingpad { ptr, i32 }
          cleanup
  invoke void @_ZN6dealii11SubCellDataD2Ev(ptr noundef nonnull align 8 dereferenceable(48) %8)
          to label %193 unwind label %206

193:                                              ; preds = %191
  call void @llvm.lifetime.end.p0(i64 48, ptr nonnull %8) #23
  br label %194

194:                                              ; preds = %193, %127
  %195 = phi { ptr, i32 } [ %192, %193 ], [ %128, %127 ]
  %196 = load ptr, ptr %7, align 8, !tbaa !14
  %197 = icmp eq ptr %196, null
  br i1 %197, label %199, label %198

198:                                              ; preds = %194
  call void @_ZdlPv(ptr noundef nonnull %196) #25
  br label %199

199:                                              ; preds = %198, %194
  call void @llvm.lifetime.end.p0(i64 24, ptr nonnull %7) #23
  br label %200

200:                                              ; preds = %104, %106, %199
  %201 = phi { ptr, i32 } [ %195, %199 ], [ %105, %104 ], [ %107, %106 ]
  %202 = load ptr, ptr %6, align 8, !tbaa !9
  %203 = icmp eq ptr %202, null
  br i1 %203, label %205, label %204

204:                                              ; preds = %200
  call void @_ZdlPv(ptr noundef nonnull %202) #25
  br label %205

205:                                              ; preds = %204, %200
  call void @llvm.lifetime.end.p0(i64 24, ptr nonnull %6) #23
  resume { ptr, i32 } %201

206:                                              ; preds = %191
  %207 = landingpad { ptr, i32 }
          catch ptr null
  %208 = extractvalue { ptr, i32 } %207, 0
  call void @__clang_call_terminate(ptr %208) #26
  unreachable
}

; Function Attrs: mustprogress nocallback nofree nosync nounwind speculatable willreturn memory(none)
declare double @llvm.fmuladd.f64(double, double, double) #2

declare i32 @__gxx_personality_v0(...)

; Function Attrs: mustprogress nocallback nofree nounwind willreturn memory(argmem: write)
declare void @llvm.memset.p0.i64(ptr nocapture writeonly, i8, i64, i1 immarg) #3

; Function Attrs: inlinehint sspstrong uwtable
define linkonce_odr dso_local void @_ZN6dealii11SubCellDataD2Ev(ptr noundef nonnull align 8 dereferenceable(48) %0) unnamed_addr #4 comdat align 2 personality ptr @__gxx_personality_v0 {
  %2 = getelementptr inbounds %"struct.dealii::SubCellData", ptr %0, i64 0, i32 1
  %3 = load ptr, ptr %2, align 8, !tbaa !24
  %4 = icmp eq ptr %3, null
  br i1 %4, label %6, label %5

5:                                                ; preds = %1
  tail call void @_ZdlPv(ptr noundef nonnull %3) #25
  br label %6

6:                                                ; preds = %5, %1
  %7 = load ptr, ptr %0, align 8, !tbaa !26
  %8 = icmp eq ptr %7, null
  br i1 %8, label %10, label %9

9:                                                ; preds = %6
  tail call void @_ZdlPv(ptr noundef nonnull %7) #25
  br label %10

10:                                               ; preds = %6, %9
  ret void
}

; Function Attrs: noinline noreturn nounwind sspstrong uwtable
define linkonce_odr hidden void @__clang_call_terminate(ptr noundef %0) local_unnamed_addr #5 comdat {
  %2 = tail call ptr @__cxa_begin_catch(ptr %0) #23
  tail call void @_ZSt9terminatev() #26
  unreachable
}

declare ptr @__cxa_begin_catch(ptr) local_unnamed_addr

declare void @_ZSt9terminatev() local_unnamed_addr

; Function Attrs: sspstrong uwtable
define weak_odr dso_local void @_ZN6dealii13GridGenerator26subdivided_hyper_rectangleILi3EEEvRNS_13TriangulationIXT_EXT_EEERKSt6vectorIjSaIjEERKNS_5PointIXT_EEESD_b(ptr noundef nonnull align 8 dereferenceable(8552) %0, ptr noundef nonnull align 8 dereferenceable(24) %1, ptr noundef nonnull align 8 dereferenceable(24) %2, ptr noundef nonnull align 8 dereferenceable(24) %3, i1 noundef zeroext %4) local_unnamed_addr #0 comdat align 2 personality ptr @__gxx_personality_v0 {
  %6 = alloca %"struct.dealii::CellData", align 8
  %7 = alloca %"class.dealii::Point", align 16
  %8 = alloca %"class.dealii::Point", align 16
  %9 = alloca %"class.std::vector.19", align 8
  %10 = alloca %"class.std::vector.38", align 8
  %11 = alloca %"struct.dealii::SubCellData", align 8
  call void @llvm.lifetime.start.p0(i64 24, ptr nonnull %7) #23
  %12 = getelementptr inbounds [3 x double], ptr %7, i64 0, i64 1
  %13 = load <2 x double>, ptr %2, align 8, !tbaa !5
  store <2 x double> %13, ptr %7, align 16, !tbaa !5
  %14 = getelementptr inbounds [3 x double], ptr %2, i64 0, i64 2
  %15 = load double, ptr %14, align 8, !tbaa !5
  %16 = getelementptr inbounds [3 x double], ptr %7, i64 0, i64 2
  store double %15, ptr %16, align 16, !tbaa !5
  call void @llvm.lifetime.start.p0(i64 24, ptr nonnull %8) #23
  %17 = getelementptr inbounds [3 x double], ptr %8, i64 0, i64 1
  %18 = load <2 x double>, ptr %3, align 8, !tbaa !5
  store <2 x double> %18, ptr %8, align 16, !tbaa !5
  %19 = getelementptr inbounds [3 x double], ptr %3, i64 0, i64 2
  %20 = load double, ptr %19, align 8, !tbaa !5
  %21 = getelementptr inbounds [3 x double], ptr %8, i64 0, i64 2
  store double %20, ptr %21, align 16, !tbaa !5
  %22 = extractelement <2 x double> %13, i64 0
  %23 = extractelement <2 x double> %18, i64 0
  %24 = fcmp ogt <2 x double> %13, %18
  %25 = extractelement <2 x i1> %24, i64 0
  br i1 %25, label %26, label %27

26:                                               ; preds = %5
  store double %23, ptr %7, align 16, !tbaa !5
  store double %22, ptr %8, align 16, !tbaa !5
  br label %27

27:                                               ; preds = %5, %26
  %28 = phi double [ %22, %5 ], [ %23, %26 ]
  %29 = phi double [ %23, %5 ], [ %22, %26 ]
  %30 = extractelement <2 x double> %13, i64 1
  %31 = extractelement <2 x double> %18, i64 1
  %32 = fcmp ogt double %30, %31
  br i1 %32, label %33, label %34

33:                                               ; preds = %27
  store double %31, ptr %12, align 8, !tbaa !5
  store double %30, ptr %17, align 8, !tbaa !5
  br label %34

34:                                               ; preds = %33, %27
  %35 = phi double [ %31, %33 ], [ %30, %27 ]
  %36 = phi double [ %30, %33 ], [ %31, %27 ]
  %37 = fcmp ogt double %15, %20
  br i1 %37, label %38, label %39

38:                                               ; preds = %34
  store double %20, ptr %16, align 16, !tbaa !5
  store double %15, ptr %21, align 16, !tbaa !5
  br label %39

39:                                               ; preds = %38, %34
  %40 = phi double [ %20, %38 ], [ %15, %34 ]
  %41 = phi double [ %15, %38 ], [ %20, %34 ]
  %42 = load ptr, ptr %1, align 8, !tbaa !83
  %43 = insertelement <2 x double> poison, double %29, i64 0
  %44 = insertelement <2 x double> %43, double %36, i64 1
  %45 = insertelement <2 x double> poison, double %28, i64 0
  %46 = insertelement <2 x double> %45, double %35, i64 1
  %47 = fsub <2 x double> %44, %46
  %48 = load <2 x i32>, ptr %42, align 4, !tbaa !18
  %49 = uitofp <2 x i32> %48 to <2 x double>
  %50 = fdiv <2 x double> %47, %49
  %51 = fsub double %41, %40
  %52 = getelementptr inbounds i32, ptr %42, i64 2
  %53 = load i32, ptr %52, align 4, !tbaa !18
  %54 = uitofp i32 %53 to double
  %55 = fdiv double %51, %54
  call void @llvm.lifetime.start.p0(i64 24, ptr nonnull %9) #23
  call void @llvm.memset.p0.i64(ptr noundef nonnull align 8 dereferenceable(24) %9, i8 0, i64 24, i1 false)
  %56 = getelementptr inbounds %"struct.std::_Vector_base<dealii::Point<3>, std::allocator<dealii::Point<3> > >::_Vector_impl_data", ptr %9, i64 0, i32 1
  %57 = getelementptr inbounds %"struct.std::_Vector_base<dealii::Point<3>, std::allocator<dealii::Point<3> > >::_Vector_impl_data", ptr %9, i64 0, i32 2
  %58 = load ptr, ptr %56, align 8, !tbaa !13
  br label %59

59:                                               ; preds = %39, %80
  %60 = phi ptr [ null, %39 ], [ %157, %80 ]
  %61 = phi ptr [ %58, %39 ], [ %165, %80 ]
  %62 = phi ptr [ %42, %39 ], [ %158, %80 ]
  %63 = phi ptr [ %42, %39 ], [ %159, %80 ]
  %64 = phi ptr [ null, %39 ], [ %162, %80 ]
  %65 = phi ptr [ null, %39 ], [ %165, %80 ]
  %66 = phi i32 [ 0, %39 ], [ %81, %80 ]
  %67 = phi ptr [ null, %39 ], [ %164, %80 ]
  %68 = uitofp i32 %66 to double
  br label %69

69:                                               ; preds = %59, %85
  %70 = phi ptr [ %60, %59 ], [ %157, %85 ]
  %71 = phi ptr [ %61, %59 ], [ %165, %85 ]
  %72 = phi ptr [ %62, %59 ], [ %158, %85 ]
  %73 = phi ptr [ %63, %59 ], [ %159, %85 ]
  %74 = phi ptr [ %63, %59 ], [ %160, %85 ]
  %75 = phi ptr [ %64, %59 ], [ %162, %85 ]
  %76 = phi ptr [ %65, %59 ], [ %165, %85 ]
  %77 = phi i32 [ 0, %59 ], [ %86, %85 ]
  %78 = phi ptr [ %67, %59 ], [ %164, %85 ]
  %79 = uitofp i32 %77 to double
  br label %90

80:                                               ; preds = %85
  %81 = add i32 %66, 1
  %82 = getelementptr inbounds i32, ptr %159, i64 2
  %83 = load i32, ptr %82, align 4, !tbaa !18
  %84 = icmp ugt i32 %81, %83
  br i1 %84, label %173, label %59

85:                                               ; preds = %156
  %86 = add i32 %77, 1
  %87 = getelementptr inbounds i32, ptr %160, i64 1
  %88 = load i32, ptr %87, align 4, !tbaa !18
  %89 = icmp ugt i32 %86, %88
  br i1 %89, label %80, label %69

90:                                               ; preds = %69, %156
  %91 = phi ptr [ %70, %69 ], [ %157, %156 ]
  %92 = phi ptr [ %71, %69 ], [ %165, %156 ]
  %93 = phi ptr [ %72, %69 ], [ %158, %156 ]
  %94 = phi ptr [ %73, %69 ], [ %159, %156 ]
  %95 = phi ptr [ %74, %69 ], [ %160, %156 ]
  %96 = phi ptr [ %74, %69 ], [ %161, %156 ]
  %97 = phi ptr [ %75, %69 ], [ %162, %156 ]
  %98 = phi ptr [ %76, %69 ], [ %165, %156 ]
  %99 = phi i32 [ 0, %69 ], [ %166, %156 ]
  %100 = phi ptr [ %78, %69 ], [ %164, %156 ]
  %101 = uitofp i32 %99 to double
  %102 = load <2 x double>, ptr %7, align 16, !tbaa !5
  %103 = insertelement <2 x double> poison, double %101, i64 0
  %104 = insertelement <2 x double> %103, double %79, i64 1
  %105 = tail call <2 x double> @llvm.fmuladd.v2f64(<2 x double> %104, <2 x double> %50, <2 x double> %102)
  %106 = load double, ptr %16, align 16, !tbaa !5
  %107 = tail call double @llvm.fmuladd.f64(double %68, double %55, double %106)
  %108 = icmp eq ptr %98, %100
  br i1 %108, label %111, label %109

109:                                              ; preds = %90
  store <2 x double> %105, ptr %98, align 8, !tbaa !5
  %110 = getelementptr inbounds [3 x double], ptr %98, i64 0, i64 2
  store double %107, ptr %110, align 8, !tbaa !5
  br label %156

111:                                              ; preds = %90
  %112 = ptrtoint ptr %98 to i64
  %113 = ptrtoint ptr %97 to i64
  %114 = sub i64 %112, %113
  %115 = icmp eq i64 %114, 9223372036854775800
  br i1 %115, label %116, label %118

116:                                              ; preds = %111
  store ptr %61, ptr %56, align 8, !tbaa !13
  store ptr %60, ptr %9, align 8, !tbaa !9
  store ptr %71, ptr %56, align 8, !tbaa !13
  store ptr %70, ptr %9, align 8, !tbaa !9
  store ptr %92, ptr %56, align 8, !tbaa !13
  store ptr %91, ptr %9, align 8, !tbaa !9
  store ptr %98, ptr %57, align 8, !tbaa !12
  invoke void @_ZSt20__throw_length_errorPKc(ptr noundef nonnull @.str.13) #27
          to label %117 unwind label %171

117:                                              ; preds = %116
  unreachable

118:                                              ; preds = %111
  %119 = sdiv exact i64 %114, 24
  %120 = tail call i64 @llvm.umax.i64(i64 %119, i64 1)
  %121 = add i64 %120, %119
  %122 = icmp ult i64 %121, %119
  %123 = icmp ugt i64 %121, 384307168202282325
  %124 = or i1 %122, %123
  %125 = select i1 %124, i64 384307168202282325, i64 %121
  %126 = icmp eq i64 %125, 0
  br i1 %126, label %130, label %127

127:                                              ; preds = %118
  %128 = mul nuw nsw i64 %125, 24
  %129 = invoke noalias noundef nonnull ptr @_Znwm(i64 noundef %128) #24
          to label %130 unwind label %169

130:                                              ; preds = %127, %118
  %131 = phi ptr [ null, %118 ], [ %129, %127 ]
  %132 = getelementptr inbounds %"class.dealii::Point", ptr %131, i64 %119
  store <2 x double> %105, ptr %132, align 8, !tbaa !5
  %133 = getelementptr inbounds [3 x double], ptr %132, i64 0, i64 2
  store double %107, ptr %133, align 8, !tbaa !5
  %134 = icmp eq ptr %97, %98
  br i1 %134, label %148, label %135

135:                                              ; preds = %130, %135
  %136 = phi ptr [ %146, %135 ], [ %131, %130 ]
  %137 = phi ptr [ %145, %135 ], [ %97, %130 ]
  %138 = load double, ptr %137, align 8, !tbaa !5
  store double %138, ptr %136, align 8, !tbaa !5
  %139 = getelementptr inbounds [3 x double], ptr %137, i64 0, i64 1
  %140 = load double, ptr %139, align 8, !tbaa !5
  %141 = getelementptr inbounds [3 x double], ptr %136, i64 0, i64 1
  store double %140, ptr %141, align 8, !tbaa !5
  %142 = getelementptr inbounds [3 x double], ptr %137, i64 0, i64 2
  %143 = load double, ptr %142, align 8, !tbaa !5
  %144 = getelementptr inbounds [3 x double], ptr %136, i64 0, i64 2
  store double %143, ptr %144, align 8, !tbaa !5
  %145 = getelementptr inbounds %"class.dealii::Point", ptr %137, i64 1
  %146 = getelementptr inbounds %"class.dealii::Point", ptr %136, i64 1
  %147 = icmp eq ptr %145, %98
  br i1 %147, label %148, label %135

148:                                              ; preds = %135, %130
  %149 = phi ptr [ %131, %130 ], [ %146, %135 ]
  %150 = icmp eq ptr %97, null
  br i1 %150, label %153, label %151

151:                                              ; preds = %148
  tail call void @_ZdlPv(ptr noundef nonnull %97) #25
  %152 = load ptr, ptr %1, align 8, !tbaa !83
  br label %153

153:                                              ; preds = %151, %148
  %154 = phi ptr [ %152, %151 ], [ %93, %148 ]
  %155 = getelementptr inbounds %"class.dealii::Point", ptr %131, i64 %125
  br label %156

156:                                              ; preds = %153, %109
  %157 = phi ptr [ %131, %153 ], [ %91, %109 ]
  %158 = phi ptr [ %154, %153 ], [ %93, %109 ]
  %159 = phi ptr [ %154, %153 ], [ %94, %109 ]
  %160 = phi ptr [ %154, %153 ], [ %95, %109 ]
  %161 = phi ptr [ %154, %153 ], [ %96, %109 ]
  %162 = phi ptr [ %131, %153 ], [ %97, %109 ]
  %163 = phi ptr [ %149, %153 ], [ %98, %109 ]
  %164 = phi ptr [ %155, %153 ], [ %100, %109 ]
  %165 = getelementptr inbounds %"class.dealii::Point", ptr %163, i64 1
  %166 = add i32 %99, 1
  %167 = load i32, ptr %161, align 4, !tbaa !18
  %168 = icmp ugt i32 %166, %167
  br i1 %168, label %85, label %90

169:                                              ; preds = %127
  %170 = landingpad { ptr, i32 }
          cleanup
  store ptr %61, ptr %56, align 8, !tbaa !13
  store ptr %60, ptr %9, align 8, !tbaa !9
  store ptr %71, ptr %56, align 8, !tbaa !13
  store ptr %70, ptr %9, align 8, !tbaa !9
  store ptr %92, ptr %56, align 8, !tbaa !13
  store ptr %91, ptr %9, align 8, !tbaa !9
  store ptr %98, ptr %57, align 8, !tbaa !12
  br label %316

171:                                              ; preds = %116
  %172 = landingpad { ptr, i32 }
          cleanup
  br label %316

173:                                              ; preds = %80
  store ptr %165, ptr %56, align 8, !tbaa !13
  store ptr %157, ptr %9, align 8, !tbaa !9
  %174 = getelementptr inbounds i32, ptr %159, i64 2
  store ptr %164, ptr %57, align 8, !tbaa !12
  call void @llvm.lifetime.start.p0(i64 24, ptr nonnull %10) #23
  call void @llvm.memset.p0.i64(ptr noundef nonnull align 8 dereferenceable(24) %10, i8 0, i64 24, i1 false)
  %175 = load i32, ptr %159, align 4, !tbaa !18
  %176 = add i32 %175, 1
  %177 = getelementptr inbounds i32, ptr %159, i64 1
  %178 = load i32, ptr %177, align 4, !tbaa !18
  %179 = add i32 %178, 1
  %180 = mul i32 %179, %176
  %181 = load i32, ptr %174, align 4, !tbaa !18
  %182 = mul i32 %178, %175
  %183 = mul i32 %182, %181
  call void @llvm.lifetime.start.p0(i64 36, ptr nonnull %6)
  call void @llvm.memset.p0.i64(ptr noundef nonnull align 8 dereferenceable(36) %6, i8 0, i64 36, i1 false)
  %184 = icmp eq i32 %183, 0
  br i1 %184, label %189, label %185

185:                                              ; preds = %173
  %186 = zext i32 %183 to i64
  invoke void @_ZNSt6vectorIN6dealii8CellDataILi3EEESaIS2_EE14_M_fill_insertEN9__gnu_cxx17__normal_iteratorIPS2_S4_EEmRKS2_(ptr noundef nonnull align 8 dereferenceable(24) %10, ptr null, i64 noundef %186, ptr noundef nonnull align 4 dereferenceable(36) %6)
          to label %187 unwind label %213

187:                                              ; preds = %185
  %188 = load ptr, ptr %1, align 8, !tbaa !83
  br label %189

189:                                              ; preds = %173, %187
  %190 = phi ptr [ %188, %187 ], [ %159, %173 ]
  call void @llvm.lifetime.end.p0(i64 36, ptr nonnull %6)
  %191 = getelementptr inbounds i32, ptr %190, i64 2
  %192 = load i32, ptr %191, align 4, !tbaa !18
  %193 = icmp eq i32 %192, 0
  br i1 %193, label %274, label %194

194:                                              ; preds = %189
  %195 = getelementptr inbounds i32, ptr %190, i64 1
  %196 = load i32, ptr %195, align 4, !tbaa !18
  %197 = icmp eq i32 %196, 0
  br i1 %197, label %274, label %198

198:                                              ; preds = %194, %232
  %199 = phi i32 [ %234, %232 ], [ %192, %194 ]
  %200 = phi i32 [ %235, %232 ], [ %196, %194 ]
  %201 = phi i32 [ %236, %232 ], [ %196, %194 ]
  %202 = phi i32 [ %233, %232 ], [ 0, %194 ]
  %203 = icmp eq i32 %201, 0
  br i1 %203, label %204, label %206

204:                                              ; preds = %198
  %205 = add nuw i32 %202, 1
  br label %232

206:                                              ; preds = %198
  %207 = mul i32 %202, %180
  %208 = load ptr, ptr %10, align 8
  %209 = add nuw i32 %202, 1
  %210 = mul i32 %209, %180
  %211 = load i32, ptr %190, align 4, !tbaa !18
  %212 = icmp eq i32 %211, 0
  br i1 %212, label %232, label %215

213:                                              ; preds = %185
  %214 = landingpad { ptr, i32 }
          cleanup
  br label %310

215:                                              ; preds = %206, %240
  %216 = phi i32 [ %242, %240 ], [ %200, %206 ]
  %217 = phi i32 [ %243, %240 ], [ %211, %206 ]
  %218 = phi i32 [ %241, %240 ], [ 0, %206 ]
  %219 = icmp eq i32 %217, 0
  br i1 %219, label %220, label %222

220:                                              ; preds = %215
  %221 = add nuw i32 %218, 1
  br label %240

222:                                              ; preds = %215
  %223 = mul i32 %218, %176
  %224 = add i32 %223, %207
  %225 = add nuw i32 %218, 1
  %226 = mul i32 %225, %176
  %227 = add i32 %226, %207
  %228 = add i32 %223, %210
  %229 = add i32 %226, %210
  br label %245

230:                                              ; preds = %240
  %231 = load i32, ptr %191, align 4, !tbaa !18
  br label %232

232:                                              ; preds = %206, %204, %230
  %233 = phi i32 [ %205, %204 ], [ %209, %230 ], [ %209, %206 ]
  %234 = phi i32 [ %199, %204 ], [ %231, %230 ], [ %199, %206 ]
  %235 = phi i32 [ %200, %204 ], [ %242, %230 ], [ %200, %206 ]
  %236 = phi i32 [ 0, %204 ], [ %242, %230 ], [ %201, %206 ]
  %237 = icmp ult i32 %233, %234
  br i1 %237, label %198, label %274, !llvm.loop !84

238:                                              ; preds = %245
  %239 = load i32, ptr %195, align 4, !tbaa !18
  br label %240

240:                                              ; preds = %220, %238
  %241 = phi i32 [ %221, %220 ], [ %225, %238 ]
  %242 = phi i32 [ %216, %220 ], [ %239, %238 ]
  %243 = phi i32 [ 0, %220 ], [ %272, %238 ]
  %244 = icmp ult i32 %241, %242
  br i1 %244, label %215, label %230, !llvm.loop !86

245:                                              ; preds = %222, %245
  %246 = phi i32 [ %217, %222 ], [ %272, %245 ]
  %247 = phi i32 [ 0, %222 ], [ %271, %245 ]
  %248 = load i32, ptr %195, align 4, !tbaa !18
  %249 = mul i32 %248, %202
  %250 = add i32 %249, %218
  %251 = mul i32 %250, %246
  %252 = add i32 %251, %247
  %253 = add i32 %224, %247
  %254 = zext i32 %252 to i64
  %255 = getelementptr inbounds %"struct.dealii::CellData", ptr %208, i64 %254
  store i32 %253, ptr %255, align 4, !tbaa !18
  %256 = add i32 %253, 1
  %257 = getelementptr inbounds [8 x i32], ptr %255, i64 0, i64 1
  store i32 %256, ptr %257, align 4, !tbaa !18
  %258 = add i32 %227, %247
  %259 = getelementptr inbounds [8 x i32], ptr %255, i64 0, i64 2
  store i32 %258, ptr %259, align 4, !tbaa !18
  %260 = add i32 %258, 1
  %261 = getelementptr inbounds [8 x i32], ptr %255, i64 0, i64 3
  store i32 %260, ptr %261, align 4, !tbaa !18
  %262 = add i32 %228, %247
  %263 = getelementptr inbounds [8 x i32], ptr %255, i64 0, i64 4
  store i32 %262, ptr %263, align 4, !tbaa !18
  %264 = add i32 %262, 1
  %265 = getelementptr inbounds [8 x i32], ptr %255, i64 0, i64 5
  store i32 %264, ptr %265, align 4, !tbaa !18
  %266 = add i32 %229, %247
  %267 = getelementptr inbounds [8 x i32], ptr %255, i64 0, i64 6
  store i32 %266, ptr %267, align 4, !tbaa !18
  %268 = add i32 %266, 1
  %269 = getelementptr inbounds [8 x i32], ptr %255, i64 0, i64 7
  store i32 %268, ptr %269, align 4, !tbaa !18
  %270 = getelementptr inbounds %"struct.dealii::CellData", ptr %208, i64 %254, i32 1
  store i8 0, ptr %270, align 4, !tbaa !20
  %271 = add nuw i32 %247, 1
  %272 = load i32, ptr %190, align 4, !tbaa !18
  %273 = icmp ult i32 %271, %272
  br i1 %273, label %245, label %238

274:                                              ; preds = %232, %194, %189
  call void @llvm.lifetime.start.p0(i64 48, ptr nonnull %11) #23
  call void @llvm.memset.p0.i64(ptr noundef nonnull align 8 dereferenceable(48) %11, i8 0, i64 48, i1 false)
  %275 = load ptr, ptr %0, align 8, !tbaa !22
  %276 = getelementptr inbounds ptr, ptr %275, i64 3
  %277 = load ptr, ptr %276, align 8
  invoke void %277(ptr noundef nonnull align 8 dereferenceable(8552) %0, ptr noundef nonnull align 8 dereferenceable(24) %9, ptr noundef nonnull align 8 dereferenceable(24) %10, ptr noundef nonnull align 8 dereferenceable(48) %11)
          to label %278 unwind label %296

278:                                              ; preds = %274
  %279 = getelementptr inbounds %"struct.dealii::SubCellData", ptr %11, i64 0, i32 1
  %280 = load ptr, ptr %279, align 8, !tbaa !24
  %281 = icmp eq ptr %280, null
  br i1 %281, label %283, label %282

282:                                              ; preds = %278
  call void @_ZdlPv(ptr noundef nonnull %280) #25
  br label %283

283:                                              ; preds = %282, %278
  %284 = load ptr, ptr %11, align 8, !tbaa !26
  %285 = icmp eq ptr %284, null
  br i1 %285, label %287, label %286

286:                                              ; preds = %283
  call void @_ZdlPv(ptr noundef nonnull %284) #25
  br label %287

287:                                              ; preds = %286, %283
  call void @llvm.lifetime.end.p0(i64 48, ptr nonnull %11) #23
  br i1 %4, label %288, label %301

288:                                              ; preds = %287
  %289 = extractelement <2 x double> %50, i64 0
  %290 = extractelement <2 x double> %50, i64 1
  %291 = fcmp olt double %290, %289
  %292 = select i1 %291, double %290, double %289
  %293 = fcmp olt double %55, %292
  %294 = select i1 %293, double %55, double %292
  %295 = fmul double %294, 1.000000e-02
  invoke void @_ZN6dealii13GridGenerator35colorize_subdivided_hyper_rectangleILi3EEEvRNS_13TriangulationIXT_EXT_EEERKNS_5PointIXT_EEES8_d(ptr noundef nonnull align 8 dereferenceable(8552) %0, ptr noundef nonnull align 8 dereferenceable(24) %7, ptr noundef nonnull align 8 dereferenceable(24) %8, double noundef %295)
          to label %301 unwind label %299

296:                                              ; preds = %274
  %297 = landingpad { ptr, i32 }
          cleanup
  invoke void @_ZN6dealii11SubCellDataD2Ev(ptr noundef nonnull align 8 dereferenceable(48) %11)
          to label %298 unwind label %322

298:                                              ; preds = %296
  call void @llvm.lifetime.end.p0(i64 48, ptr nonnull %11) #23
  br label %310

299:                                              ; preds = %288
  %300 = landingpad { ptr, i32 }
          cleanup
  br label %310

301:                                              ; preds = %288, %287
  %302 = load ptr, ptr %10, align 8, !tbaa !14
  %303 = icmp eq ptr %302, null
  br i1 %303, label %305, label %304

304:                                              ; preds = %301
  call void @_ZdlPv(ptr noundef nonnull %302) #25
  br label %305

305:                                              ; preds = %304, %301
  call void @llvm.lifetime.end.p0(i64 24, ptr nonnull %10) #23
  %306 = load ptr, ptr %9, align 8, !tbaa !9
  %307 = icmp eq ptr %306, null
  br i1 %307, label %309, label %308

308:                                              ; preds = %305
  call void @_ZdlPv(ptr noundef nonnull %306) #25
  br label %309

309:                                              ; preds = %305, %308
  call void @llvm.lifetime.end.p0(i64 24, ptr nonnull %9) #23
  call void @llvm.lifetime.end.p0(i64 24, ptr nonnull %8) #23
  call void @llvm.lifetime.end.p0(i64 24, ptr nonnull %7) #23
  ret void

310:                                              ; preds = %299, %298, %213
  %311 = phi { ptr, i32 } [ %300, %299 ], [ %297, %298 ], [ %214, %213 ]
  %312 = load ptr, ptr %10, align 8, !tbaa !14
  %313 = icmp eq ptr %312, null
  br i1 %313, label %315, label %314

314:                                              ; preds = %310
  call void @_ZdlPv(ptr noundef nonnull %312) #25
  br label %315

315:                                              ; preds = %314, %310
  call void @llvm.lifetime.end.p0(i64 24, ptr nonnull %10) #23
  br label %316

316:                                              ; preds = %169, %171, %315
  %317 = phi { ptr, i32 } [ %311, %315 ], [ %170, %169 ], [ %172, %171 ]
  %318 = load ptr, ptr %9, align 8, !tbaa !9
  %319 = icmp eq ptr %318, null
  br i1 %319, label %321, label %320

320:                                              ; preds = %316
  call void @_ZdlPv(ptr noundef nonnull %318) #25
  br label %321

321:                                              ; preds = %320, %316
  call void @llvm.lifetime.end.p0(i64 24, ptr nonnull %9) #23
  call void @llvm.lifetime.end.p0(i64 24, ptr nonnull %8) #23
  call void @llvm.lifetime.end.p0(i64 24, ptr nonnull %7) #23
  resume { ptr, i32 } %317

322:                                              ; preds = %296
  %323 = landingpad { ptr, i32 }
          catch ptr null
  %324 = extractvalue { ptr, i32 } %323, 0
  call void @__clang_call_terminate(ptr %324) #26
  unreachable
}

; Function Attrs: sspstrong uwtable
define linkonce_odr dso_local void @_ZN6dealii13GridGenerator35colorize_subdivided_hyper_rectangleILi3EEEvRNS_13TriangulationIXT_EXT_EEERKNS_5PointIXT_EEES8_d(ptr noundef nonnull align 8 dereferenceable(8552) %0, ptr noundef nonnull align 8 dereferenceable(24) %1, ptr noundef nonnull align 8 dereferenceable(24) %2, double noundef %3) local_unnamed_addr #0 comdat align 2 {
  %5 = alloca %"class.dealii::TriaRawIterator.68", align 8
  %6 = alloca %"class.dealii::TriaRawIterator.68", align 8
  %7 = alloca %"class.dealii::TriaIterator", align 8
  %8 = alloca %"class.dealii::TriaRawIterator", align 8
  call void @llvm.lifetime.start.p0(i64 16, ptr nonnull %5) #23
  call void @_ZNK6dealii13TriangulationILi3ELi3EE14begin_raw_faceEv(ptr nonnull sret(%"class.dealii::TriaRawIterator.68") align 8 %5, ptr noundef nonnull align 8 dereferenceable(8552) %0)
  call void @llvm.lifetime.start.p0(i64 16, ptr nonnull %6) #23
  call void @_ZNK6dealii13TriangulationILi3ELi3EE8end_faceEv(ptr nonnull sret(%"class.dealii::TriaRawIterator.68") align 8 %6, ptr noundef nonnull align 8 dereferenceable(8552) %0)
  %9 = load i32, ptr %5, align 8, !tbaa !87
  %10 = load i32, ptr %6, align 8, !tbaa !87
  %11 = icmp eq i32 %9, %10
  br i1 %11, label %174, label %12

12:                                               ; preds = %4
  %13 = getelementptr inbounds %"class.dealii::TriaAccessorBase.66", ptr %5, i64 0, i32 1
  %14 = getelementptr inbounds [3 x double], ptr %1, i64 0, i64 1
  %15 = getelementptr inbounds [3 x double], ptr %2, i64 0, i64 1
  %16 = getelementptr inbounds [3 x double], ptr %1, i64 0, i64 2
  %17 = getelementptr inbounds [3 x double], ptr %2, i64 0, i64 2
  %18 = load ptr, ptr %13, align 8, !tbaa !89
  %19 = getelementptr inbounds %"class.dealii::Triangulation", ptr %18, i64 0, i32 2
  %20 = load ptr, ptr %19, align 8, !tbaa !42
  br label %21

21:                                               ; preds = %12, %170
  %22 = phi ptr [ %20, %12 ], [ %159, %170 ]
  %23 = phi ptr [ %18, %12 ], [ %157, %170 ]
  %24 = phi i32 [ %9, %12 ], [ %171, %170 ]
  %25 = getelementptr inbounds %"class.dealii::internal::Triangulation::TriaObjects.239", ptr %22, i64 0, i32 5
  %26 = sext i32 %24 to i64
  %27 = load ptr, ptr %25, align 8, !tbaa !80
  %28 = getelementptr inbounds i8, ptr %27, i64 %26
  %29 = load i8, ptr %28, align 1, !tbaa !82
  %30 = icmp eq i8 %29, 0
  br i1 %30, label %31, label %154

31:                                               ; preds = %21
  %32 = getelementptr inbounds %"class.dealii::Triangulation", ptr %23, i64 0, i32 3
  %33 = load ptr, ptr %22, align 8, !tbaa !90, !noalias !92
  %34 = getelementptr inbounds %"class.dealii::internal::Triangulation::TriaObject.276", ptr %33, i64 %26
  %35 = getelementptr inbounds %"class.dealii::internal::Triangulation::TriaObjectsQuad3D", ptr %22, i64 0, i32 1
  %36 = shl i32 %24, 2
  %37 = load ptr, ptr %35, align 8, !tbaa !97, !noalias !98
  %38 = lshr i32 %36, 6
  %39 = zext i32 %38 to i64
  %40 = getelementptr inbounds i64, ptr %37, i64 %39
  %41 = and i32 %36, 60
  %42 = load i64, ptr %40, align 8, !tbaa !99, !noalias !98
  %43 = getelementptr inbounds %"class.dealii::internal::Triangulation::TriaFaces", ptr %22, i64 0, i32 1
  %44 = load ptr, ptr %43, align 8, !tbaa !100, !noalias !98
  %45 = load ptr, ptr %32, align 8, !tbaa !9, !noalias !98
  %46 = load i32, ptr %34, align 4, !tbaa !18, !noalias !92
  %47 = zext i32 %41 to i64
  %48 = lshr i64 %42, %47
  %49 = and i64 %48, 1
  %50 = getelementptr inbounds [2 x [2 x i32]], ptr @_ZZN6dealii8internal12TriaAccessor14Implementation12vertex_indexILi3ELi3EEEjRKNS_12TriaAccessorILi2EXT_EXT0_EEEjE12switch_table, i64 0, i64 %49, i64 0
  %51 = load i32, ptr %50, align 8, !tbaa !18, !noalias !98
  %52 = sext i32 %46 to i64
  %53 = getelementptr inbounds %"class.dealii::internal::Triangulation::TriaObject.277", ptr %44, i64 %52
  %54 = zext i32 %51 to i64
  %55 = getelementptr inbounds [2 x i32], ptr %53, i64 0, i64 %54
  %56 = load i32, ptr %55, align 4, !tbaa !18, !noalias !98
  %57 = zext i32 %56 to i64
  %58 = getelementptr inbounds %"class.dealii::Point", ptr %45, i64 %57
  %59 = load double, ptr %58, align 8, !tbaa !5, !noalias !98
  %60 = fadd double %59, 0.000000e+00
  %61 = getelementptr inbounds [3 x double], ptr %58, i64 0, i64 1
  %62 = load double, ptr %61, align 8, !tbaa !5, !noalias !98
  %63 = fadd double %62, 0.000000e+00
  %64 = getelementptr inbounds [3 x double], ptr %58, i64 0, i64 2
  %65 = load double, ptr %64, align 8, !tbaa !5, !noalias !98
  %66 = fadd double %65, 0.000000e+00
  %67 = getelementptr inbounds [4 x i32], ptr %34, i64 0, i64 1
  %68 = load i32, ptr %67, align 4, !tbaa !18, !noalias !92
  %69 = or i32 %41, 1
  %70 = zext i32 %69 to i64
  %71 = lshr i64 %42, %70
  %72 = and i64 %71, 1
  %73 = getelementptr inbounds [2 x [2 x i32]], ptr @_ZZN6dealii8internal12TriaAccessor14Implementation12vertex_indexILi3ELi3EEEjRKNS_12TriaAccessorILi2EXT_EXT0_EEEjE12switch_table, i64 0, i64 %72, i64 0
  %74 = load i32, ptr %73, align 8, !tbaa !18, !noalias !98
  %75 = sext i32 %68 to i64
  %76 = getelementptr inbounds %"class.dealii::internal::Triangulation::TriaObject.277", ptr %44, i64 %75
  %77 = zext i32 %74 to i64
  %78 = getelementptr inbounds [2 x i32], ptr %76, i64 0, i64 %77
  %79 = load i32, ptr %78, align 4, !tbaa !18, !noalias !98
  %80 = zext i32 %79 to i64
  %81 = getelementptr inbounds %"class.dealii::Point", ptr %45, i64 %80
  %82 = load double, ptr %81, align 8, !tbaa !5, !noalias !98
  %83 = fadd double %60, %82
  %84 = getelementptr inbounds [3 x double], ptr %81, i64 0, i64 1
  %85 = load double, ptr %84, align 8, !tbaa !5, !noalias !98
  %86 = fadd double %63, %85
  %87 = getelementptr inbounds [3 x double], ptr %81, i64 0, i64 2
  %88 = load double, ptr %87, align 8, !tbaa !5, !noalias !98
  %89 = fadd double %66, %88
  %90 = getelementptr inbounds [2 x [2 x i32]], ptr @_ZZN6dealii8internal12TriaAccessor14Implementation12vertex_indexILi3ELi3EEEjRKNS_12TriaAccessorILi2EXT_EXT0_EEEjE12switch_table, i64 0, i64 %49, i64 1
  %91 = load i32, ptr %90, align 4, !tbaa !18, !noalias !98
  %92 = zext i32 %91 to i64
  %93 = getelementptr inbounds [2 x i32], ptr %53, i64 0, i64 %92
  %94 = load i32, ptr %93, align 4, !tbaa !18, !noalias !98
  %95 = zext i32 %94 to i64
  %96 = getelementptr inbounds %"class.dealii::Point", ptr %45, i64 %95
  %97 = load double, ptr %96, align 8, !tbaa !5, !noalias !98
  %98 = fadd double %83, %97
  %99 = getelementptr inbounds [3 x double], ptr %96, i64 0, i64 1
  %100 = load double, ptr %99, align 8, !tbaa !5, !noalias !98
  %101 = fadd double %86, %100
  %102 = getelementptr inbounds [3 x double], ptr %96, i64 0, i64 2
  %103 = load double, ptr %102, align 8, !tbaa !5, !noalias !98
  %104 = fadd double %89, %103
  %105 = getelementptr inbounds [2 x [2 x i32]], ptr @_ZZN6dealii8internal12TriaAccessor14Implementation12vertex_indexILi3ELi3EEEjRKNS_12TriaAccessorILi2EXT_EXT0_EEEjE12switch_table, i64 0, i64 %72, i64 1
  %106 = load i32, ptr %105, align 4, !tbaa !18, !noalias !98
  %107 = zext i32 %106 to i64
  %108 = getelementptr inbounds [2 x i32], ptr %76, i64 0, i64 %107
  %109 = load i32, ptr %108, align 4, !tbaa !18, !noalias !98
  %110 = zext i32 %109 to i64
  %111 = getelementptr inbounds %"class.dealii::Point", ptr %45, i64 %110
  %112 = load double, ptr %111, align 8, !tbaa !5, !noalias !98
  %113 = fadd double %98, %112
  %114 = getelementptr inbounds [3 x double], ptr %111, i64 0, i64 1
  %115 = load double, ptr %114, align 8, !tbaa !5, !noalias !98
  %116 = fadd double %101, %115
  %117 = getelementptr inbounds [3 x double], ptr %111, i64 0, i64 2
  %118 = load double, ptr %117, align 8, !tbaa !5, !noalias !98
  %119 = fadd double %104, %118
  %120 = fmul double %113, 2.500000e-01
  %121 = fmul double %116, 2.500000e-01
  %122 = fmul double %119, 2.500000e-01
  %123 = load double, ptr %1, align 8, !tbaa !5
  %124 = fsub double %120, %123
  %125 = call double @llvm.fabs.f64(double %124)
  %126 = fcmp olt double %125, %3
  br i1 %126, label %152, label %127

127:                                              ; preds = %31
  %128 = load double, ptr %2, align 8, !tbaa !5
  %129 = fsub double %120, %128
  %130 = call double @llvm.fabs.f64(double %129)
  %131 = fcmp olt double %130, %3
  br i1 %131, label %152, label %132

132:                                              ; preds = %127
  %133 = load double, ptr %14, align 8, !tbaa !5
  %134 = fsub double %121, %133
  %135 = call double @llvm.fabs.f64(double %134)
  %136 = fcmp olt double %135, %3
  br i1 %136, label %152, label %137

137:                                              ; preds = %132
  %138 = load double, ptr %15, align 8, !tbaa !5
  %139 = fsub double %121, %138
  %140 = call double @llvm.fabs.f64(double %139)
  %141 = fcmp olt double %140, %3
  br i1 %141, label %152, label %142

142:                                              ; preds = %137
  %143 = load double, ptr %16, align 8, !tbaa !5
  %144 = fsub double %122, %143
  %145 = call double @llvm.fabs.f64(double %144)
  %146 = fcmp olt double %145, %3
  br i1 %146, label %152, label %147

147:                                              ; preds = %142
  %148 = load double, ptr %17, align 8, !tbaa !5
  %149 = fsub double %122, %148
  %150 = call double @llvm.fabs.f64(double %149)
  %151 = fcmp olt double %150, %3
  br i1 %151, label %152, label %154

152:                                              ; preds = %147, %142, %137, %132, %127, %31
  %153 = phi i8 [ 0, %31 ], [ 1, %127 ], [ 2, %132 ], [ 3, %137 ], [ 4, %142 ], [ 5, %147 ]
  store i8 %153, ptr %28, align 1, !tbaa !82
  br label %154

154:                                              ; preds = %152, %147, %21
  %155 = load i32, ptr %5, align 8, !tbaa !87
  %156 = add nsw i32 %155, 1
  store i32 %156, ptr %5, align 8, !tbaa !87
  %157 = load ptr, ptr %13, align 8, !tbaa !89
  %158 = getelementptr inbounds %"class.dealii::Triangulation", ptr %157, i64 0, i32 2
  %159 = load ptr, ptr %158, align 8, !tbaa !42
  %160 = getelementptr inbounds %"struct.std::_Vector_base<dealii::internal::Triangulation::TriaObject<2>, std::allocator<dealii::internal::Triangulation::TriaObject<2> > >::_Vector_impl_data", ptr %159, i64 0, i32 1
  %161 = load ptr, ptr %160, align 8, !tbaa !102
  %162 = load ptr, ptr %159, align 8, !tbaa !90
  %163 = ptrtoint ptr %161 to i64
  %164 = ptrtoint ptr %162 to i64
  %165 = sub i64 %163, %164
  %166 = lshr exact i64 %165, 4
  %167 = trunc i64 %166 to i32
  %168 = icmp slt i32 %156, %167
  br i1 %168, label %170, label %169

169:                                              ; preds = %154
  store i32 -1, ptr %5, align 8, !tbaa !87
  br label %170

170:                                              ; preds = %154, %169
  %171 = phi i32 [ %156, %154 ], [ -1, %169 ]
  %172 = load i32, ptr %6, align 8, !tbaa !87
  %173 = icmp eq i32 %171, %172
  br i1 %173, label %174, label %21

174:                                              ; preds = %170, %4
  call void @llvm.lifetime.start.p0(i64 16, ptr nonnull %7) #23
  call void @_ZNK6dealii13TriangulationILi3ELi3EE5beginEj(ptr nonnull sret(%"class.dealii::TriaIterator") align 8 %7, ptr noundef nonnull align 8 dereferenceable(8552) %0, i32 noundef 0)
  call void @llvm.lifetime.start.p0(i64 16, ptr nonnull %8) #23
  call void @_ZNK6dealii13TriangulationILi3ELi3EE3endEv(ptr nonnull sret(%"class.dealii::TriaRawIterator") align 8 %8, ptr noundef nonnull align 8 dereferenceable(8552) %0)
  %175 = getelementptr inbounds %"class.dealii::TriaAccessorBase", ptr %7, i64 0, i32 1
  %176 = load i32, ptr %175, align 4, !tbaa !39
  %177 = getelementptr inbounds %"class.dealii::TriaAccessorBase", ptr %8, i64 0, i32 1
  %178 = load i32, ptr %177, align 4, !tbaa !39
  %179 = icmp ne i32 %176, %178
  %180 = load i32, ptr %7, align 8
  %181 = load i32, ptr %8, align 8
  %182 = icmp ne i32 %180, %181
  %183 = select i1 %179, i1 true, i1 %182
  call void @llvm.lifetime.end.p0(i64 16, ptr nonnull %8) #23
  br i1 %183, label %184, label %186

184:                                              ; preds = %174
  %185 = getelementptr inbounds %"class.dealii::TriaAccessorBase", ptr %7, i64 0, i32 2
  br label %262

186:                                              ; preds = %254, %174
  call void @llvm.lifetime.end.p0(i64 16, ptr nonnull %7) #23
  call void @llvm.lifetime.end.p0(i64 16, ptr nonnull %6) #23
  call void @llvm.lifetime.end.p0(i64 16, ptr nonnull %5) #23
  ret void

187:                                              ; preds = %239, %534
  %188 = phi i32 [ %236, %239 ], [ %544, %534 ]
  %189 = phi i32 [ %235, %239 ], [ %543, %534 ]
  %190 = add nsw i32 %189, 1
  %191 = sext i32 %188 to i64
  %192 = getelementptr inbounds ptr, ptr %542, i64 %191
  %193 = load ptr, ptr %192, align 8, !tbaa !38
  %194 = getelementptr inbounds %"class.dealii::internal::Triangulation::TriaLevel", ptr %193, i64 0, i32 4
  %195 = getelementptr inbounds %"class.dealii::internal::Triangulation::TriaLevel", ptr %193, i64 0, i32 4, i32 0, i32 0, i32 0, i32 0, i32 0, i32 1
  %196 = load ptr, ptr %195, align 8, !tbaa !103
  %197 = load ptr, ptr %194, align 8, !tbaa !40
  %198 = ptrtoint ptr %196 to i64
  %199 = ptrtoint ptr %197 to i64
  %200 = sub i64 %198, %199
  %201 = sdiv exact i64 %200, 24
  %202 = trunc i64 %201 to i32
  %203 = icmp slt i32 %190, %202
  br i1 %203, label %234, label %204

204:                                              ; preds = %187
  %205 = add nsw i64 %191, 1
  %206 = trunc i64 %205 to i32
  store i32 %206, ptr %7, align 8, !tbaa !35
  %207 = load ptr, ptr %546, align 8, !tbaa !104
  %208 = ptrtoint ptr %207 to i64
  %209 = sub i64 %208, %545
  %210 = shl i64 %209, 29
  %211 = ashr i64 %210, 32
  %212 = icmp slt i64 %205, %211
  br i1 %212, label %213, label %231

213:                                              ; preds = %204, %227
  %214 = phi i64 [ %228, %227 ], [ %205, %204 ]
  %215 = getelementptr inbounds ptr, ptr %542, i64 %214
  %216 = load ptr, ptr %215, align 8, !tbaa !38
  %217 = getelementptr inbounds %"class.dealii::internal::Triangulation::TriaLevel", ptr %216, i64 0, i32 4
  %218 = getelementptr inbounds %"class.dealii::internal::Triangulation::TriaLevel", ptr %216, i64 0, i32 4, i32 0, i32 0, i32 0, i32 0, i32 0, i32 1
  %219 = load ptr, ptr %218, align 8, !tbaa !103
  %220 = load ptr, ptr %217, align 8, !tbaa !40
  %221 = ptrtoint ptr %219 to i64
  %222 = ptrtoint ptr %220 to i64
  %223 = sub i64 %221, %222
  %224 = sdiv exact i64 %223, 24
  %225 = trunc i64 %224 to i32
  %226 = icmp sgt i32 %225, 0
  br i1 %226, label %232, label %227

227:                                              ; preds = %213
  %228 = add i64 %214, 1
  %229 = trunc i64 %228 to i32
  store i32 %229, ptr %7, align 8, !tbaa !35
  %230 = icmp eq i64 %228, %211
  br i1 %230, label %231, label %213, !llvm.loop !105

231:                                              ; preds = %227, %204
  store i32 -1, ptr %7, align 8, !tbaa !35
  br label %234

232:                                              ; preds = %213
  %233 = trunc i64 %214 to i32
  br label %234

234:                                              ; preds = %232, %231, %187
  %235 = phi i32 [ %190, %187 ], [ -1, %231 ], [ 0, %232 ]
  %236 = phi i32 [ %188, %187 ], [ -1, %231 ], [ %233, %232 ]
  %237 = or i32 %236, %235
  %238 = icmp sgt i32 %237, -1
  br i1 %238, label %239, label %254

239:                                              ; preds = %234
  %240 = zext i32 %236 to i64
  %241 = getelementptr inbounds ptr, ptr %542, i64 %240
  %242 = load ptr, ptr %241, align 8, !tbaa !38
  %243 = getelementptr inbounds %"class.dealii::internal::Triangulation::TriaLevel", ptr %242, i64 0, i32 4, i32 0, i32 3
  %244 = load ptr, ptr %243, align 8, !tbaa !97
  %245 = lshr i32 %235, 6
  %246 = zext i32 %245 to i64
  %247 = getelementptr inbounds i64, ptr %244, i64 %246
  %248 = and i32 %235, 63
  %249 = zext i32 %248 to i64
  %250 = shl nuw i64 1, %249
  %251 = load i64, ptr %247, align 8, !tbaa !99
  %252 = and i64 %251, %250
  %253 = icmp eq i64 %252, 0
  br i1 %253, label %187, label %254

254:                                              ; preds = %234, %239
  store i32 %235, ptr %175, align 4, !tbaa !39
  call void @llvm.lifetime.start.p0(i64 16, ptr nonnull %8) #23
  call void @_ZNK6dealii13TriangulationILi3ELi3EE3endEv(ptr nonnull sret(%"class.dealii::TriaRawIterator") align 8 %8, ptr noundef nonnull align 8 dereferenceable(8552) %0)
  %255 = load i32, ptr %175, align 4, !tbaa !39
  %256 = load i32, ptr %177, align 4, !tbaa !39
  %257 = icmp ne i32 %255, %256
  %258 = load i32, ptr %7, align 8
  %259 = load i32, ptr %8, align 8
  %260 = icmp ne i32 %258, %259
  %261 = select i1 %257, i1 true, i1 %260
  call void @llvm.lifetime.end.p0(i64 16, ptr nonnull %8) #23
  br i1 %261, label %349, label %186

262:                                              ; preds = %349, %184
  %263 = phi i32 [ 0, %184 ], [ %350, %349 ]
  %264 = phi double [ 0.000000e+00, %184 ], [ %351, %349 ]
  %265 = load ptr, ptr %185, align 8, !tbaa !28, !noalias !107
  %266 = getelementptr inbounds %"class.dealii::Triangulation", ptr %265, i64 0, i32 3
  %267 = lshr i32 %263, 2
  %268 = add nuw nsw i32 %267, 4
  %269 = getelementptr inbounds %"class.dealii::Triangulation", ptr %265, i64 0, i32 1
  %270 = load i32, ptr %7, align 8, !tbaa !35, !noalias !107
  %271 = sext i32 %270 to i64
  %272 = load ptr, ptr %269, align 8, !tbaa !36, !noalias !107
  %273 = getelementptr inbounds ptr, ptr %272, i64 %271
  %274 = load ptr, ptr %273, align 8, !tbaa !38, !noalias !107
  %275 = getelementptr inbounds %"class.dealii::internal::Triangulation::TriaLevel", ptr %274, i64 0, i32 4
  %276 = load i32, ptr %175, align 4, !tbaa !39, !noalias !107
  %277 = sext i32 %276 to i64
  %278 = load ptr, ptr %275, align 8, !tbaa !40, !noalias !110
  %279 = getelementptr inbounds %"class.dealii::internal::Triangulation::TriaObject", ptr %278, i64 %277
  %280 = zext i32 %268 to i64
  %281 = getelementptr inbounds [6 x i32], ptr %279, i64 0, i64 %280
  %282 = load i32, ptr %281, align 4, !tbaa !18, !noalias !110
  %283 = and i32 %263, 3
  %284 = getelementptr inbounds %"class.dealii::internal::Triangulation::TriaLevel", ptr %274, i64 0, i32 4, i32 1
  %285 = mul i32 %276, 6
  %286 = add i32 %285, %268
  %287 = load ptr, ptr %284, align 8, !tbaa !97, !noalias !107
  %288 = lshr i32 %286, 6
  %289 = zext i32 %288 to i64
  %290 = getelementptr inbounds i64, ptr %287, i64 %289
  %291 = and i32 %286, 63
  %292 = zext i32 %291 to i64
  %293 = shl nuw i64 1, %292
  %294 = load i64, ptr %290, align 8, !tbaa !99, !noalias !107
  %295 = and i64 %293, %294
  %296 = icmp ne i64 %295, 0
  %297 = getelementptr inbounds %"class.dealii::internal::Triangulation::TriaLevel", ptr %274, i64 0, i32 4, i32 2
  %298 = load ptr, ptr %297, align 8, !tbaa !97, !noalias !107
  %299 = getelementptr inbounds i64, ptr %298, i64 %289
  %300 = load i64, ptr %299, align 8, !tbaa !99, !noalias !107
  %301 = and i64 %300, %293
  %302 = icmp ne i64 %301, 0
  %303 = getelementptr inbounds %"class.dealii::internal::Triangulation::TriaLevel", ptr %274, i64 0, i32 4, i32 3
  %304 = load ptr, ptr %303, align 8, !tbaa !97, !noalias !107
  %305 = getelementptr inbounds i64, ptr %304, i64 %289
  %306 = load i64, ptr %305, align 8, !tbaa !99, !noalias !107
  %307 = and i64 %306, %293
  %308 = icmp ne i64 %307, 0
  %309 = call noundef i32 @_ZN6dealii12GeometryInfoILi3EE28standard_to_real_face_vertexEjbbb(i32 noundef %283, i1 noundef zeroext %296, i1 noundef zeroext %302, i1 noundef zeroext %308), !noalias !107
  %310 = and i32 %309, 1
  %311 = getelementptr inbounds %"class.dealii::Triangulation", ptr %265, i64 0, i32 2
  %312 = load ptr, ptr %311, align 8, !tbaa !42, !noalias !107
  %313 = sext i32 %282 to i64
  %314 = load ptr, ptr %312, align 8, !tbaa !90, !noalias !113
  %315 = getelementptr inbounds %"class.dealii::internal::Triangulation::TriaObject.276", ptr %314, i64 %313
  %316 = zext i32 %310 to i64
  %317 = getelementptr inbounds [4 x i32], ptr %315, i64 0, i64 %316
  %318 = load i32, ptr %317, align 4, !tbaa !18, !noalias !113
  %319 = getelementptr inbounds %"class.dealii::internal::Triangulation::TriaObjectsQuad3D", ptr %312, i64 0, i32 1
  %320 = shl i32 %282, 2
  %321 = load ptr, ptr %319, align 8, !tbaa !97, !noalias !107
  %322 = lshr i32 %320, 6
  %323 = zext i32 %322 to i64
  %324 = getelementptr inbounds i64, ptr %321, i64 %323
  %325 = and i32 %320, 60
  %326 = or i32 %310, %325
  %327 = zext i32 %326 to i64
  %328 = load i64, ptr %324, align 8, !tbaa !99, !noalias !107
  %329 = lshr i64 %328, %327
  %330 = and i64 %329, 1
  %331 = lshr i32 %309, 1
  %332 = zext i32 %331 to i64
  %333 = getelementptr inbounds [2 x [2 x i32]], ptr @_ZZN6dealii8internal12TriaAccessor14Implementation12vertex_indexILi3ELi3EEEjRKNS_12TriaAccessorILi2EXT_EXT0_EEEjE12switch_table, i64 0, i64 %330, i64 %332
  %334 = load i32, ptr %333, align 4, !tbaa !18, !noalias !107
  %335 = getelementptr inbounds %"class.dealii::internal::Triangulation::TriaFaces", ptr %312, i64 0, i32 1
  %336 = sext i32 %318 to i64
  %337 = load ptr, ptr %335, align 8, !tbaa !100, !noalias !107
  %338 = getelementptr inbounds %"class.dealii::internal::Triangulation::TriaObject.277", ptr %337, i64 %336
  %339 = zext i32 %334 to i64
  %340 = getelementptr inbounds [2 x i32], ptr %338, i64 0, i64 %339
  %341 = load i32, ptr %340, align 4, !tbaa !18, !noalias !107
  %342 = zext i32 %341 to i64
  %343 = load ptr, ptr %266, align 8, !tbaa !9, !noalias !107
  %344 = getelementptr inbounds %"class.dealii::Point", ptr %343, i64 %342
  %345 = load double, ptr %344, align 8, !tbaa !5, !noalias !107
  %346 = fadd double %264, %345
  %347 = add nuw nsw i32 %263, 1
  %348 = icmp eq i32 %347, 8
  br i1 %348, label %352, label %349

349:                                              ; preds = %262, %254
  %350 = phi i32 [ %347, %262 ], [ 0, %254 ]
  %351 = phi double [ %346, %262 ], [ 0.000000e+00, %254 ]
  br label %262

352:                                              ; preds = %262
  %353 = fmul double %346, 1.250000e-01
  br label %354

354:                                              ; preds = %354, %352
  %355 = phi i32 [ 0, %352 ], [ %439, %354 ]
  %356 = phi double [ 0.000000e+00, %352 ], [ %438, %354 ]
  %357 = load ptr, ptr %185, align 8, !tbaa !28, !noalias !116
  %358 = getelementptr inbounds %"class.dealii::Triangulation", ptr %357, i64 0, i32 3
  %359 = lshr i32 %355, 2
  %360 = add nuw nsw i32 %359, 4
  %361 = getelementptr inbounds %"class.dealii::Triangulation", ptr %357, i64 0, i32 1
  %362 = load i32, ptr %7, align 8, !tbaa !35, !noalias !116
  %363 = sext i32 %362 to i64
  %364 = load ptr, ptr %361, align 8, !tbaa !36, !noalias !116
  %365 = getelementptr inbounds ptr, ptr %364, i64 %363
  %366 = load ptr, ptr %365, align 8, !tbaa !38, !noalias !116
  %367 = getelementptr inbounds %"class.dealii::internal::Triangulation::TriaLevel", ptr %366, i64 0, i32 4
  %368 = load i32, ptr %175, align 4, !tbaa !39, !noalias !116
  %369 = sext i32 %368 to i64
  %370 = load ptr, ptr %367, align 8, !tbaa !40, !noalias !118
  %371 = getelementptr inbounds %"class.dealii::internal::Triangulation::TriaObject", ptr %370, i64 %369
  %372 = zext i32 %360 to i64
  %373 = getelementptr inbounds [6 x i32], ptr %371, i64 0, i64 %372
  %374 = load i32, ptr %373, align 4, !tbaa !18, !noalias !118
  %375 = and i32 %355, 3
  %376 = getelementptr inbounds %"class.dealii::internal::Triangulation::TriaLevel", ptr %366, i64 0, i32 4, i32 1
  %377 = mul i32 %368, 6
  %378 = add i32 %377, %360
  %379 = load ptr, ptr %376, align 8, !tbaa !97, !noalias !116
  %380 = lshr i32 %378, 6
  %381 = zext i32 %380 to i64
  %382 = getelementptr inbounds i64, ptr %379, i64 %381
  %383 = and i32 %378, 63
  %384 = zext i32 %383 to i64
  %385 = shl nuw i64 1, %384
  %386 = load i64, ptr %382, align 8, !tbaa !99, !noalias !116
  %387 = and i64 %385, %386
  %388 = icmp ne i64 %387, 0
  %389 = getelementptr inbounds %"class.dealii::internal::Triangulation::TriaLevel", ptr %366, i64 0, i32 4, i32 2
  %390 = load ptr, ptr %389, align 8, !tbaa !97, !noalias !116
  %391 = getelementptr inbounds i64, ptr %390, i64 %381
  %392 = load i64, ptr %391, align 8, !tbaa !99, !noalias !116
  %393 = and i64 %392, %385
  %394 = icmp ne i64 %393, 0
  %395 = getelementptr inbounds %"class.dealii::internal::Triangulation::TriaLevel", ptr %366, i64 0, i32 4, i32 3
  %396 = load ptr, ptr %395, align 8, !tbaa !97, !noalias !116
  %397 = getelementptr inbounds i64, ptr %396, i64 %381
  %398 = load i64, ptr %397, align 8, !tbaa !99, !noalias !116
  %399 = and i64 %398, %385
  %400 = icmp ne i64 %399, 0
  %401 = call noundef i32 @_ZN6dealii12GeometryInfoILi3EE28standard_to_real_face_vertexEjbbb(i32 noundef %375, i1 noundef zeroext %388, i1 noundef zeroext %394, i1 noundef zeroext %400), !noalias !116
  %402 = and i32 %401, 1
  %403 = getelementptr inbounds %"class.dealii::Triangulation", ptr %357, i64 0, i32 2
  %404 = load ptr, ptr %403, align 8, !tbaa !42, !noalias !116
  %405 = sext i32 %374 to i64
  %406 = load ptr, ptr %404, align 8, !tbaa !90, !noalias !119
  %407 = getelementptr inbounds %"class.dealii::internal::Triangulation::TriaObject.276", ptr %406, i64 %405
  %408 = zext i32 %402 to i64
  %409 = getelementptr inbounds [4 x i32], ptr %407, i64 0, i64 %408
  %410 = load i32, ptr %409, align 4, !tbaa !18, !noalias !119
  %411 = getelementptr inbounds %"class.dealii::internal::Triangulation::TriaObjectsQuad3D", ptr %404, i64 0, i32 1
  %412 = shl i32 %374, 2
  %413 = load ptr, ptr %411, align 8, !tbaa !97, !noalias !116
  %414 = lshr i32 %412, 6
  %415 = zext i32 %414 to i64
  %416 = getelementptr inbounds i64, ptr %413, i64 %415
  %417 = and i32 %412, 60
  %418 = or i32 %402, %417
  %419 = zext i32 %418 to i64
  %420 = load i64, ptr %416, align 8, !tbaa !99, !noalias !116
  %421 = lshr i64 %420, %419
  %422 = and i64 %421, 1
  %423 = lshr i32 %401, 1
  %424 = zext i32 %423 to i64
  %425 = getelementptr inbounds [2 x [2 x i32]], ptr @_ZZN6dealii8internal12TriaAccessor14Implementation12vertex_indexILi3ELi3EEEjRKNS_12TriaAccessorILi2EXT_EXT0_EEEjE12switch_table, i64 0, i64 %422, i64 %424
  %426 = load i32, ptr %425, align 4, !tbaa !18, !noalias !116
  %427 = getelementptr inbounds %"class.dealii::internal::Triangulation::TriaFaces", ptr %404, i64 0, i32 1
  %428 = sext i32 %410 to i64
  %429 = load ptr, ptr %427, align 8, !tbaa !100, !noalias !116
  %430 = getelementptr inbounds %"class.dealii::internal::Triangulation::TriaObject.277", ptr %429, i64 %428
  %431 = zext i32 %426 to i64
  %432 = getelementptr inbounds [2 x i32], ptr %430, i64 0, i64 %431
  %433 = load i32, ptr %432, align 4, !tbaa !18, !noalias !116
  %434 = zext i32 %433 to i64
  %435 = load ptr, ptr %358, align 8, !tbaa !9, !noalias !116
  %436 = getelementptr inbounds %"class.dealii::Point", ptr %435, i64 %434, i32 0, i32 0, i64 1
  %437 = load double, ptr %436, align 8, !tbaa !5, !noalias !116
  %438 = fadd double %356, %437
  %439 = add nuw nsw i32 %355, 1
  %440 = icmp eq i32 %439, 8
  br i1 %440, label %441, label %354

441:                                              ; preds = %354
  %442 = fcmp ogt double %353, 0.000000e+00
  %443 = zext i1 %442 to i8
  %444 = fmul double %438, 1.250000e-01
  %445 = fcmp ogt double %444, 0.000000e+00
  %446 = select i1 %445, i8 2, i8 0
  br label %447

447:                                              ; preds = %447, %441
  %448 = phi i32 [ 0, %441 ], [ %532, %447 ]
  %449 = phi double [ 0.000000e+00, %441 ], [ %531, %447 ]
  %450 = load ptr, ptr %185, align 8, !tbaa !28, !noalias !120
  %451 = getelementptr inbounds %"class.dealii::Triangulation", ptr %450, i64 0, i32 3
  %452 = lshr i32 %448, 2
  %453 = add nuw nsw i32 %452, 4
  %454 = getelementptr inbounds %"class.dealii::Triangulation", ptr %450, i64 0, i32 1
  %455 = load i32, ptr %7, align 8, !tbaa !35, !noalias !120
  %456 = sext i32 %455 to i64
  %457 = load ptr, ptr %454, align 8, !tbaa !36, !noalias !120
  %458 = getelementptr inbounds ptr, ptr %457, i64 %456
  %459 = load ptr, ptr %458, align 8, !tbaa !38, !noalias !120
  %460 = getelementptr inbounds %"class.dealii::internal::Triangulation::TriaLevel", ptr %459, i64 0, i32 4
  %461 = load i32, ptr %175, align 4, !tbaa !39, !noalias !120
  %462 = sext i32 %461 to i64
  %463 = load ptr, ptr %460, align 8, !tbaa !40, !noalias !122
  %464 = getelementptr inbounds %"class.dealii::internal::Triangulation::TriaObject", ptr %463, i64 %462
  %465 = zext i32 %453 to i64
  %466 = getelementptr inbounds [6 x i32], ptr %464, i64 0, i64 %465
  %467 = load i32, ptr %466, align 4, !tbaa !18, !noalias !122
  %468 = and i32 %448, 3
  %469 = getelementptr inbounds %"class.dealii::internal::Triangulation::TriaLevel", ptr %459, i64 0, i32 4, i32 1
  %470 = mul i32 %461, 6
  %471 = add i32 %470, %453
  %472 = load ptr, ptr %469, align 8, !tbaa !97, !noalias !120
  %473 = lshr i32 %471, 6
  %474 = zext i32 %473 to i64
  %475 = getelementptr inbounds i64, ptr %472, i64 %474
  %476 = and i32 %471, 63
  %477 = zext i32 %476 to i64
  %478 = shl nuw i64 1, %477
  %479 = load i64, ptr %475, align 8, !tbaa !99, !noalias !120
  %480 = and i64 %478, %479
  %481 = icmp ne i64 %480, 0
  %482 = getelementptr inbounds %"class.dealii::internal::Triangulation::TriaLevel", ptr %459, i64 0, i32 4, i32 2
  %483 = load ptr, ptr %482, align 8, !tbaa !97, !noalias !120
  %484 = getelementptr inbounds i64, ptr %483, i64 %474
  %485 = load i64, ptr %484, align 8, !tbaa !99, !noalias !120
  %486 = and i64 %485, %478
  %487 = icmp ne i64 %486, 0
  %488 = getelementptr inbounds %"class.dealii::internal::Triangulation::TriaLevel", ptr %459, i64 0, i32 4, i32 3
  %489 = load ptr, ptr %488, align 8, !tbaa !97, !noalias !120
  %490 = getelementptr inbounds i64, ptr %489, i64 %474
  %491 = load i64, ptr %490, align 8, !tbaa !99, !noalias !120
  %492 = and i64 %491, %478
  %493 = icmp ne i64 %492, 0
  %494 = call noundef i32 @_ZN6dealii12GeometryInfoILi3EE28standard_to_real_face_vertexEjbbb(i32 noundef %468, i1 noundef zeroext %481, i1 noundef zeroext %487, i1 noundef zeroext %493), !noalias !120
  %495 = and i32 %494, 1
  %496 = getelementptr inbounds %"class.dealii::Triangulation", ptr %450, i64 0, i32 2
  %497 = load ptr, ptr %496, align 8, !tbaa !42, !noalias !120
  %498 = sext i32 %467 to i64
  %499 = load ptr, ptr %497, align 8, !tbaa !90, !noalias !123
  %500 = getelementptr inbounds %"class.dealii::internal::Triangulation::TriaObject.276", ptr %499, i64 %498
  %501 = zext i32 %495 to i64
  %502 = getelementptr inbounds [4 x i32], ptr %500, i64 0, i64 %501
  %503 = load i32, ptr %502, align 4, !tbaa !18, !noalias !123
  %504 = getelementptr inbounds %"class.dealii::internal::Triangulation::TriaObjectsQuad3D", ptr %497, i64 0, i32 1
  %505 = shl i32 %467, 2
  %506 = load ptr, ptr %504, align 8, !tbaa !97, !noalias !120
  %507 = lshr i32 %505, 6
  %508 = zext i32 %507 to i64
  %509 = getelementptr inbounds i64, ptr %506, i64 %508
  %510 = and i32 %505, 60
  %511 = or i32 %495, %510
  %512 = zext i32 %511 to i64
  %513 = load i64, ptr %509, align 8, !tbaa !99, !noalias !120
  %514 = lshr i64 %513, %512
  %515 = and i64 %514, 1
  %516 = lshr i32 %494, 1
  %517 = zext i32 %516 to i64
  %518 = getelementptr inbounds [2 x [2 x i32]], ptr @_ZZN6dealii8internal12TriaAccessor14Implementation12vertex_indexILi3ELi3EEEjRKNS_12TriaAccessorILi2EXT_EXT0_EEEjE12switch_table, i64 0, i64 %515, i64 %517
  %519 = load i32, ptr %518, align 4, !tbaa !18, !noalias !120
  %520 = getelementptr inbounds %"class.dealii::internal::Triangulation::TriaFaces", ptr %497, i64 0, i32 1
  %521 = sext i32 %503 to i64
  %522 = load ptr, ptr %520, align 8, !tbaa !100, !noalias !120
  %523 = getelementptr inbounds %"class.dealii::internal::Triangulation::TriaObject.277", ptr %522, i64 %521
  %524 = zext i32 %519 to i64
  %525 = getelementptr inbounds [2 x i32], ptr %523, i64 0, i64 %524
  %526 = load i32, ptr %525, align 4, !tbaa !18, !noalias !120
  %527 = zext i32 %526 to i64
  %528 = load ptr, ptr %451, align 8, !tbaa !9, !noalias !120
  %529 = getelementptr inbounds %"class.dealii::Point", ptr %528, i64 %527, i32 0, i32 0, i64 2
  %530 = load double, ptr %529, align 8, !tbaa !5, !noalias !120
  %531 = fadd double %449, %530
  %532 = add nuw nsw i32 %448, 1
  %533 = icmp eq i32 %532, 8
  br i1 %533, label %534, label %447

534:                                              ; preds = %447
  %535 = or i8 %446, %443
  %536 = fmul double %531, 1.250000e-01
  %537 = fcmp ogt double %536, 0.000000e+00
  %538 = select i1 %537, i8 4, i8 0
  %539 = or i8 %538, %535
  call void @_ZNK6dealii12CellAccessorILi3ELi3EE15set_material_idEh(ptr noundef nonnull align 8 dereferenceable(16) %7, i8 noundef zeroext %539)
  %540 = load ptr, ptr %185, align 8, !tbaa !28
  %541 = getelementptr inbounds %"class.dealii::Triangulation", ptr %540, i64 0, i32 1
  %542 = load ptr, ptr %541, align 8, !tbaa !36
  %543 = load i32, ptr %175, align 4
  %544 = load i32, ptr %7, align 8, !tbaa !35
  %545 = ptrtoint ptr %542 to i64
  %546 = getelementptr inbounds %"class.dealii::Triangulation", ptr %540, i64 0, i32 1, i32 0, i32 0, i32 0, i32 1
  br label %187
}

; Function Attrs: sspstrong uwtable
define weak_odr dso_local void @_ZN6dealii13GridGenerator26subdivided_hyper_rectangleILi3EEEvRNS_13TriangulationIXT_EXT_EEERKSt6vectorIS5_IdSaIdEESaIS7_EERKNS_5PointIXT_EEESF_b(ptr noundef nonnull align 8 dereferenceable(8552) %0, ptr noundef nonnull align 8 dereferenceable(24) %1, ptr noundef nonnull align 8 dereferenceable(24) %2, ptr noundef nonnull align 8 dereferenceable(24) %3, i1 noundef zeroext %4) local_unnamed_addr #0 comdat align 2 personality ptr @__gxx_personality_v0 {
  %6 = alloca %"struct.dealii::CellData", align 8
  %7 = alloca %"class.dealii::Point", align 16
  %8 = alloca %"class.dealii::Point", align 16
  %9 = alloca %"class.std::vector.19", align 8
  %10 = alloca %"class.std::vector.38", align 8
  %11 = alloca %"struct.dealii::SubCellData", align 8
  call void @llvm.lifetime.start.p0(i64 24, ptr nonnull %7) #23
  %12 = getelementptr inbounds [3 x double], ptr %7, i64 0, i64 1
  %13 = load <2 x double>, ptr %2, align 8, !tbaa !5
  store <2 x double> %13, ptr %7, align 16, !tbaa !5
  %14 = getelementptr inbounds [3 x double], ptr %2, i64 0, i64 2
  %15 = load double, ptr %14, align 8, !tbaa !5
  %16 = getelementptr inbounds [3 x double], ptr %7, i64 0, i64 2
  store double %15, ptr %16, align 16, !tbaa !5
  call void @llvm.lifetime.start.p0(i64 24, ptr nonnull %8) #23
  %17 = getelementptr inbounds [3 x double], ptr %8, i64 0, i64 1
  %18 = load <2 x double>, ptr %3, align 8, !tbaa !5
  store <2 x double> %18, ptr %8, align 16, !tbaa !5
  %19 = getelementptr inbounds [3 x double], ptr %3, i64 0, i64 2
  %20 = load double, ptr %19, align 8, !tbaa !5
  %21 = getelementptr inbounds [3 x double], ptr %8, i64 0, i64 2
  store double %20, ptr %21, align 16, !tbaa !5
  %22 = getelementptr inbounds %"struct.std::_Vector_base<std::vector<double>, std::allocator<std::vector<double> > >::_Vector_impl_data", ptr %1, i64 0, i32 1
  %23 = load ptr, ptr %22, align 8, !tbaa !38
  %24 = load ptr, ptr %1, align 8, !tbaa !38
  %25 = ptrtoint ptr %23 to i64
  %26 = ptrtoint ptr %24 to i64
  %27 = sub i64 %25, %26
  %28 = icmp eq ptr %23, %24
  br i1 %28, label %35, label %29

29:                                               ; preds = %5
  %30 = sdiv exact i64 %27, 24
  %31 = icmp ugt i64 %30, 384307168202282325
  br i1 %31, label %32, label %33, !prof !124

32:                                               ; preds = %29
  tail call void @_ZSt28__throw_bad_array_new_lengthv() #27
  unreachable

33:                                               ; preds = %29
  %34 = tail call noalias noundef nonnull ptr @_Znwm(i64 noundef %27) #24
  br label %35

35:                                               ; preds = %33, %5
  %36 = phi ptr [ null, %5 ], [ %34, %33 ]
  %37 = invoke noundef ptr @_ZSt16__do_uninit_copyIN9__gnu_cxx17__normal_iteratorIPKSt6vectorIdSaIdEES2_IS4_SaIS4_EEEEPS4_ET0_T_SC_SB_(ptr %24, ptr %23, ptr noundef %36)
          to label %38 unwind label %45

38:                                               ; preds = %35
  %39 = ptrtoint ptr %37 to i64
  %40 = ptrtoint ptr %36 to i64
  %41 = sub i64 %39, %40
  %42 = sdiv i64 %41, 24
  %43 = fcmp ogt <2 x double> %13, %18
  %44 = extractelement <2 x i1> %43, i64 0
  br i1 %44, label %51, label %69

45:                                               ; preds = %35
  %46 = landingpad { ptr, i32 }
          cleanup
  %47 = icmp eq ptr %36, null
  br i1 %47, label %49, label %48

48:                                               ; preds = %45
  tail call void @_ZdlPv(ptr noundef nonnull %36) #25
  br label %49

49:                                               ; preds = %45, %48, %540
  %50 = phi { ptr, i32 } [ %527, %540 ], [ %46, %48 ], [ %46, %45 ]
  resume { ptr, i32 } %50

51:                                               ; preds = %38
  %52 = extractelement <2 x double> %18, i64 0
  %53 = extractelement <2 x double> %13, i64 0
  store double %52, ptr %7, align 16, !tbaa !5
  store double %53, ptr %8, align 16, !tbaa !5
  %54 = load ptr, ptr %36, align 8, !tbaa !38
  %55 = getelementptr inbounds %"struct.std::_Vector_base<double, std::allocator<double> >::_Vector_impl_data", ptr %36, i64 0, i32 1
  %56 = load ptr, ptr %55, align 8, !tbaa !38
  %57 = icmp ne ptr %54, %56
  %58 = getelementptr inbounds double, ptr %56, i64 -1
  %59 = icmp ugt ptr %58, %54
  %60 = select i1 %57, i1 %59, i1 false
  br i1 %60, label %61, label %69

61:                                               ; preds = %51, %61
  %62 = phi ptr [ %67, %61 ], [ %58, %51 ]
  %63 = phi ptr [ %66, %61 ], [ %54, %51 ]
  %64 = load double, ptr %63, align 8, !tbaa !5
  %65 = load double, ptr %62, align 8, !tbaa !5
  store double %65, ptr %63, align 8, !tbaa !5
  store double %64, ptr %62, align 8, !tbaa !5
  %66 = getelementptr inbounds double, ptr %63, i64 1
  %67 = getelementptr inbounds double, ptr %62, i64 -1
  %68 = icmp ult ptr %66, %67
  br i1 %68, label %61, label %69

69:                                               ; preds = %61, %51, %38
  %70 = add i64 %41, 23
  %71 = icmp ult i64 %70, 47
  br i1 %71, label %85, label %72

72:                                               ; preds = %69
  %73 = getelementptr inbounds %"struct.std::_Vector_base<double, std::allocator<double> >::_Vector_impl_data", ptr %36, i64 0, i32 1
  %74 = load ptr, ptr %73, align 8, !tbaa !125
  %75 = load ptr, ptr %36, align 8, !tbaa !127
  %76 = ptrtoint ptr %74 to i64
  %77 = ptrtoint ptr %75 to i64
  %78 = sub i64 %76, %77
  %79 = ashr exact i64 %78, 3
  br label %80

80:                                               ; preds = %80, %72
  %81 = phi i32 [ 0, %72 ], [ %84, %80 ]
  %82 = zext i32 %81 to i64
  %83 = icmp ugt i64 %79, %82
  %84 = add i32 %81, 1
  br i1 %83, label %80, label %88

85:                                               ; preds = %147, %109, %69
  %86 = phi i64 [ 0, %69 ], [ 1, %109 ], [ 2, %147 ]
  invoke void (ptr, ...) @_ZSt24__throw_out_of_range_fmtPKcz(ptr noundef nonnull @.str.29, i64 noundef %86, i64 noundef %42) #27
          to label %87 unwind label %169

87:                                               ; preds = %85
  unreachable

88:                                               ; preds = %80
  %89 = load double, ptr %12, align 8, !tbaa !5
  %90 = load double, ptr %17, align 8, !tbaa !5
  %91 = fcmp ogt double %89, %90
  br i1 %91, label %92, label %109

92:                                               ; preds = %88
  store double %90, ptr %12, align 8, !tbaa !5
  store double %89, ptr %17, align 8, !tbaa !5
  %93 = getelementptr inbounds %"class.std::vector.58", ptr %36, i64 1
  %94 = load ptr, ptr %93, align 8, !tbaa !38
  %95 = getelementptr inbounds %"class.std::vector.58", ptr %36, i64 1, i32 0, i32 0, i32 0, i32 1
  %96 = load ptr, ptr %95, align 8, !tbaa !38
  %97 = icmp ne ptr %94, %96
  %98 = getelementptr inbounds double, ptr %96, i64 -1
  %99 = icmp ugt ptr %98, %94
  %100 = select i1 %97, i1 %99, i1 false
  br i1 %100, label %101, label %109

101:                                              ; preds = %92, %101
  %102 = phi ptr [ %107, %101 ], [ %98, %92 ]
  %103 = phi ptr [ %106, %101 ], [ %94, %92 ]
  %104 = load double, ptr %103, align 8, !tbaa !5
  %105 = load double, ptr %102, align 8, !tbaa !5
  store double %105, ptr %103, align 8, !tbaa !5
  store double %104, ptr %102, align 8, !tbaa !5
  %106 = getelementptr inbounds double, ptr %103, i64 1
  %107 = getelementptr inbounds double, ptr %102, i64 -1
  %108 = icmp ult ptr %106, %107
  br i1 %108, label %101, label %109

109:                                              ; preds = %101, %92, %88
  %110 = add i64 %41, -24
  %111 = icmp ult i64 %110, 24
  br i1 %111, label %85, label %112

112:                                              ; preds = %109
  %113 = getelementptr inbounds %"class.std::vector.58", ptr %36, i64 1
  %114 = getelementptr inbounds %"class.std::vector.58", ptr %36, i64 1, i32 0, i32 0, i32 0, i32 1
  %115 = load ptr, ptr %114, align 8, !tbaa !125
  %116 = load ptr, ptr %113, align 8, !tbaa !127
  %117 = ptrtoint ptr %115 to i64
  %118 = ptrtoint ptr %116 to i64
  %119 = sub i64 %117, %118
  %120 = ashr exact i64 %119, 3
  br label %121

121:                                              ; preds = %121, %112
  %122 = phi i32 [ 0, %112 ], [ %125, %121 ]
  %123 = zext i32 %122 to i64
  %124 = icmp ugt i64 %120, %123
  %125 = add i32 %122, 1
  br i1 %124, label %121, label %126

126:                                              ; preds = %121
  %127 = load double, ptr %16, align 16, !tbaa !5
  %128 = load double, ptr %21, align 16, !tbaa !5
  %129 = fcmp ogt double %127, %128
  br i1 %129, label %130, label %147

130:                                              ; preds = %126
  store double %128, ptr %16, align 16, !tbaa !5
  store double %127, ptr %21, align 16, !tbaa !5
  %131 = getelementptr inbounds %"class.std::vector.58", ptr %36, i64 2
  %132 = load ptr, ptr %131, align 8, !tbaa !38
  %133 = getelementptr inbounds %"class.std::vector.58", ptr %36, i64 2, i32 0, i32 0, i32 0, i32 1
  %134 = load ptr, ptr %133, align 8, !tbaa !38
  %135 = icmp ne ptr %132, %134
  %136 = getelementptr inbounds double, ptr %134, i64 -1
  %137 = icmp ugt ptr %136, %132
  %138 = select i1 %135, i1 %137, i1 false
  br i1 %138, label %139, label %147

139:                                              ; preds = %130, %139
  %140 = phi ptr [ %145, %139 ], [ %136, %130 ]
  %141 = phi ptr [ %144, %139 ], [ %132, %130 ]
  %142 = load double, ptr %141, align 8, !tbaa !5
  %143 = load double, ptr %140, align 8, !tbaa !5
  store double %143, ptr %141, align 8, !tbaa !5
  store double %142, ptr %140, align 8, !tbaa !5
  %144 = getelementptr inbounds double, ptr %141, i64 1
  %145 = getelementptr inbounds double, ptr %140, i64 -1
  %146 = icmp ult ptr %144, %145
  br i1 %146, label %139, label %147

147:                                              ; preds = %139, %130, %126
  %148 = add i64 %41, -48
  %149 = icmp ult i64 %148, 24
  br i1 %149, label %85, label %150

150:                                              ; preds = %147
  %151 = getelementptr inbounds %"class.std::vector.58", ptr %36, i64 2
  %152 = getelementptr inbounds %"class.std::vector.58", ptr %36, i64 2, i32 0, i32 0, i32 0, i32 1
  %153 = load ptr, ptr %152, align 8, !tbaa !125
  %154 = load ptr, ptr %151, align 8, !tbaa !127
  %155 = ptrtoint ptr %153 to i64
  %156 = ptrtoint ptr %154 to i64
  %157 = sub i64 %155, %156
  %158 = ashr exact i64 %157, 3
  br label %159

159:                                              ; preds = %159, %150
  %160 = phi i32 [ 0, %150 ], [ %163, %159 ]
  %161 = zext i32 %160 to i64
  %162 = icmp ugt i64 %158, %161
  %163 = add i32 %160, 1
  br i1 %162, label %159, label %164

164:                                              ; preds = %159
  call void @llvm.lifetime.start.p0(i64 24, ptr nonnull %9) #23
  call void @llvm.memset.p0.i64(ptr noundef nonnull align 8 dereferenceable(24) %9, i8 0, i64 24, i1 false)
  %165 = getelementptr inbounds %"struct.std::_Vector_base<dealii::Point<3>, std::allocator<dealii::Point<3> > >::_Vector_impl_data", ptr %9, i64 0, i32 1
  %166 = getelementptr inbounds %"struct.std::_Vector_base<dealii::Point<3>, std::allocator<dealii::Point<3> > >::_Vector_impl_data", ptr %9, i64 0, i32 2
  %167 = getelementptr inbounds %"class.std::vector.58", ptr %36, i64 1, i32 0, i32 0, i32 0, i32 1
  %168 = getelementptr inbounds %"class.std::vector.58", ptr %36, i64 2, i32 0, i32 0, i32 0, i32 1
  br label %171

169:                                              ; preds = %85
  %170 = landingpad { ptr, i32 }
          cleanup
  br label %526

171:                                              ; preds = %164, %296
  %172 = phi ptr [ %251, %296 ], [ %74, %164 ]
  %173 = phi ptr [ %252, %296 ], [ null, %164 ]
  %174 = phi ptr [ %253, %296 ], [ null, %164 ]
  %175 = phi ptr [ %254, %296 ], [ null, %164 ]
  %176 = phi i32 [ %300, %296 ], [ 0, %164 ]
  %177 = phi double [ %299, %296 ], [ 0.000000e+00, %164 ]
  br label %178

178:                                              ; preds = %282, %171
  %179 = phi ptr [ %172, %171 ], [ %251, %282 ]
  %180 = phi ptr [ %173, %171 ], [ %252, %282 ]
  %181 = phi ptr [ %174, %171 ], [ %253, %282 ]
  %182 = phi ptr [ %175, %171 ], [ %254, %282 ]
  %183 = phi ptr [ %175, %171 ], [ %255, %282 ]
  %184 = phi double [ 0.000000e+00, %171 ], [ %285, %282 ]
  %185 = phi i32 [ 0, %171 ], [ %286, %282 ]
  br label %186

186:                                              ; preds = %178, %277
  %187 = phi ptr [ %179, %178 ], [ %251, %277 ]
  %188 = phi ptr [ %180, %178 ], [ %252, %277 ]
  %189 = phi ptr [ %181, %178 ], [ %253, %277 ]
  %190 = phi ptr [ %182, %178 ], [ %254, %277 ]
  %191 = phi ptr [ %183, %178 ], [ %255, %277 ]
  %192 = phi ptr [ %183, %178 ], [ %256, %277 ]
  %193 = phi double [ 0.000000e+00, %178 ], [ %280, %277 ]
  %194 = phi i32 [ 0, %178 ], [ %281, %277 ]
  %195 = load <2 x double>, ptr %7, align 16, !tbaa !5
  %196 = insertelement <2 x double> poison, double %193, i64 0
  %197 = insertelement <2 x double> %196, double %184, i64 1
  %198 = fadd <2 x double> %197, %195
  %199 = load double, ptr %16, align 16, !tbaa !5
  %200 = fadd double %177, %199
  %201 = icmp eq ptr %189, %192
  br i1 %201, label %205, label %202

202:                                              ; preds = %186
  store <2 x double> %198, ptr %189, align 8, !tbaa !5
  %203 = getelementptr inbounds [3 x double], ptr %189, i64 0, i64 2
  store double %200, ptr %203, align 8, !tbaa !5
  %204 = getelementptr inbounds %"class.dealii::Point", ptr %189, i64 1
  store ptr %204, ptr %165, align 8, !tbaa !13
  br label %250

205:                                              ; preds = %186
  %206 = ptrtoint ptr %189 to i64
  %207 = ptrtoint ptr %188 to i64
  %208 = sub i64 %206, %207
  %209 = icmp eq i64 %208, 9223372036854775800
  br i1 %209, label %210, label %212

210:                                              ; preds = %205
  invoke void @_ZSt20__throw_length_errorPKc(ptr noundef nonnull @.str.13) #27
          to label %211 unwind label %275

211:                                              ; preds = %210
  unreachable

212:                                              ; preds = %205
  %213 = sdiv exact i64 %208, 24
  %214 = tail call i64 @llvm.umax.i64(i64 %213, i64 1)
  %215 = add i64 %214, %213
  %216 = icmp ult i64 %215, %213
  %217 = icmp ugt i64 %215, 384307168202282325
  %218 = or i1 %216, %217
  %219 = select i1 %218, i64 384307168202282325, i64 %215
  %220 = icmp eq i64 %219, 0
  br i1 %220, label %224, label %221

221:                                              ; preds = %212
  %222 = mul nuw nsw i64 %219, 24
  %223 = invoke noalias noundef nonnull ptr @_Znwm(i64 noundef %222) #24
          to label %224 unwind label %273

224:                                              ; preds = %221, %212
  %225 = phi ptr [ null, %212 ], [ %223, %221 ]
  %226 = getelementptr inbounds %"class.dealii::Point", ptr %225, i64 %213
  store <2 x double> %198, ptr %226, align 8, !tbaa !5
  %227 = getelementptr inbounds [3 x double], ptr %226, i64 0, i64 2
  store double %200, ptr %227, align 8, !tbaa !5
  %228 = icmp eq ptr %188, %189
  br i1 %228, label %242, label %229

229:                                              ; preds = %224, %229
  %230 = phi ptr [ %240, %229 ], [ %225, %224 ]
  %231 = phi ptr [ %239, %229 ], [ %188, %224 ]
  %232 = load double, ptr %231, align 8, !tbaa !5
  store double %232, ptr %230, align 8, !tbaa !5
  %233 = getelementptr inbounds [3 x double], ptr %231, i64 0, i64 1
  %234 = load double, ptr %233, align 8, !tbaa !5
  %235 = getelementptr inbounds [3 x double], ptr %230, i64 0, i64 1
  store double %234, ptr %235, align 8, !tbaa !5
  %236 = getelementptr inbounds [3 x double], ptr %231, i64 0, i64 2
  %237 = load double, ptr %236, align 8, !tbaa !5
  %238 = getelementptr inbounds [3 x double], ptr %230, i64 0, i64 2
  store double %237, ptr %238, align 8, !tbaa !5
  %239 = getelementptr inbounds %"class.dealii::Point", ptr %231, i64 1
  %240 = getelementptr inbounds %"class.dealii::Point", ptr %230, i64 1
  %241 = icmp eq ptr %239, %189
  br i1 %241, label %242, label %229

242:                                              ; preds = %229, %224
  %243 = phi ptr [ %225, %224 ], [ %240, %229 ]
  %244 = getelementptr inbounds %"class.dealii::Point", ptr %243, i64 1
  %245 = icmp eq ptr %188, null
  br i1 %245, label %247, label %246

246:                                              ; preds = %242
  tail call void @_ZdlPv(ptr noundef nonnull %188) #25
  br label %247

247:                                              ; preds = %246, %242
  store ptr %225, ptr %9, align 8, !tbaa !9
  store ptr %244, ptr %165, align 8, !tbaa !13
  %248 = getelementptr inbounds %"class.dealii::Point", ptr %225, i64 %219
  store ptr %248, ptr %166, align 8, !tbaa !12
  %249 = load ptr, ptr %73, align 8, !tbaa !125
  br label %250

250:                                              ; preds = %247, %202
  %251 = phi ptr [ %249, %247 ], [ %187, %202 ]
  %252 = phi ptr [ %225, %247 ], [ %188, %202 ]
  %253 = phi ptr [ %244, %247 ], [ %204, %202 ]
  %254 = phi ptr [ %248, %247 ], [ %190, %202 ]
  %255 = phi ptr [ %248, %247 ], [ %191, %202 ]
  %256 = phi ptr [ %248, %247 ], [ %192, %202 ]
  %257 = zext i32 %194 to i64
  %258 = load ptr, ptr %36, align 8, !tbaa !127
  %259 = ptrtoint ptr %251 to i64
  %260 = ptrtoint ptr %258 to i64
  %261 = sub i64 %259, %260
  %262 = ashr exact i64 %261, 3
  %263 = icmp eq i64 %262, %257
  br i1 %263, label %264, label %277

264:                                              ; preds = %250
  %265 = zext i32 %185 to i64
  %266 = load ptr, ptr %167, align 8, !tbaa !125
  %267 = load ptr, ptr %113, align 8, !tbaa !127
  %268 = ptrtoint ptr %266 to i64
  %269 = ptrtoint ptr %267 to i64
  %270 = sub i64 %268, %269
  %271 = ashr exact i64 %270, 3
  %272 = icmp eq i64 %271, %265
  br i1 %272, label %287, label %282

273:                                              ; preds = %221
  %274 = landingpad { ptr, i32 }
          cleanup
  br label %520

275:                                              ; preds = %210
  %276 = landingpad { ptr, i32 }
          cleanup
  br label %520

277:                                              ; preds = %250
  %278 = getelementptr inbounds double, ptr %258, i64 %257
  %279 = load double, ptr %278, align 8, !tbaa !5
  %280 = fadd double %193, %279
  %281 = add i32 %194, 1
  br label %186

282:                                              ; preds = %264
  %283 = getelementptr inbounds double, ptr %267, i64 %265
  %284 = load double, ptr %283, align 8, !tbaa !5
  %285 = fadd double %184, %284
  %286 = add i32 %185, 1
  br label %178

287:                                              ; preds = %264
  %288 = zext i32 %176 to i64
  %289 = load ptr, ptr %168, align 8, !tbaa !125
  %290 = load ptr, ptr %151, align 8, !tbaa !127
  %291 = ptrtoint ptr %289 to i64
  %292 = ptrtoint ptr %290 to i64
  %293 = sub i64 %291, %292
  %294 = ashr exact i64 %293, 3
  %295 = icmp eq i64 %294, %288
  br i1 %295, label %301, label %296

296:                                              ; preds = %287
  %297 = getelementptr inbounds double, ptr %290, i64 %288
  %298 = load double, ptr %297, align 8, !tbaa !5
  %299 = fadd double %177, %298
  %300 = add i32 %176, 1
  br label %171

301:                                              ; preds = %287
  call void @llvm.lifetime.start.p0(i64 24, ptr nonnull %10) #23
  call void @llvm.memset.p0.i64(ptr noundef nonnull align 8 dereferenceable(24) %10, i8 0, i64 24, i1 false)
  %302 = add i32 %194, 1
  %303 = add i32 %194, 1
  %304 = add i32 %185, 1
  %305 = mul i32 %304, %303
  %306 = mul nuw i64 %265, %257
  %307 = mul i64 %306, %288
  call void @llvm.lifetime.start.p0(i64 36, ptr nonnull %6)
  call void @llvm.memset.p0.i64(ptr noundef nonnull align 8 dereferenceable(36) %6, i8 0, i64 36, i1 false)
  %308 = icmp eq i64 %307, 0
  br i1 %308, label %317, label %309

309:                                              ; preds = %301
  invoke void @_ZNSt6vectorIN6dealii8CellDataILi3EEESaIS2_EE14_M_fill_insertEN9__gnu_cxx17__normal_iteratorIPS2_S4_EEmRKS2_(ptr noundef nonnull align 8 dereferenceable(24) %10, ptr null, i64 noundef %307, ptr noundef nonnull align 4 dereferenceable(36) %6)
          to label %310 unwind label %405

310:                                              ; preds = %309
  %311 = load ptr, ptr %168, align 8, !tbaa !125
  %312 = load ptr, ptr %151, align 8, !tbaa !127
  %313 = ptrtoint ptr %311 to i64
  %314 = ptrtoint ptr %312 to i64
  %315 = sub i64 %313, %314
  %316 = ashr exact i64 %315, 3
  br label %317

317:                                              ; preds = %301, %310
  %318 = phi i64 [ %316, %310 ], [ %294, %301 ]
  %319 = phi ptr [ %312, %310 ], [ %290, %301 ]
  %320 = phi ptr [ %311, %310 ], [ %289, %301 ]
  call void @llvm.lifetime.end.p0(i64 36, ptr nonnull %6)
  %321 = icmp eq ptr %320, %319
  br i1 %321, label %407, label %322

322:                                              ; preds = %317
  %323 = load ptr, ptr %167, align 8, !tbaa !125
  %324 = load ptr, ptr %113, align 8, !tbaa !127
  %325 = ptrtoint ptr %323 to i64
  %326 = ptrtoint ptr %324 to i64
  %327 = sub i64 %325, %326
  %328 = ashr exact i64 %327, 3
  %329 = icmp eq ptr %323, %324
  br i1 %329, label %400, label %330

330:                                              ; preds = %322
  %331 = load ptr, ptr %73, align 8, !tbaa !125
  %332 = load ptr, ptr %36, align 8, !tbaa !127
  %333 = ptrtoint ptr %331 to i64
  %334 = ptrtoint ptr %332 to i64
  %335 = sub i64 %333, %334
  %336 = ashr exact i64 %335, 3
  %337 = icmp eq ptr %331, %332
  br i1 %337, label %389, label %338

338:                                              ; preds = %330, %386
  %339 = phi i64 [ %387, %386 ], [ 0, %330 ]
  %340 = phi i32 [ %344, %386 ], [ 0, %330 ]
  %341 = mul i64 %328, %339
  %342 = mul i32 %340, %305
  %343 = load ptr, ptr %10, align 8
  %344 = add i32 %340, 1
  %345 = mul i32 %344, %305
  br label %346

346:                                              ; preds = %383, %338
  %347 = phi i64 [ 0, %338 ], [ %384, %383 ]
  %348 = phi i32 [ 0, %338 ], [ %353, %383 ]
  %349 = add i64 %341, %347
  %350 = mul i64 %349, %336
  %351 = mul i32 %348, %302
  %352 = add i32 %351, %342
  %353 = add i32 %348, 1
  %354 = mul i32 %353, %302
  %355 = add i32 %354, %342
  %356 = add i32 %351, %345
  %357 = add i32 %354, %345
  br label %358

358:                                              ; preds = %358, %346
  %359 = phi i64 [ 0, %346 ], [ %381, %358 ]
  %360 = phi i32 [ 0, %346 ], [ %380, %358 ]
  %361 = add i64 %350, %359
  %362 = add i32 %352, %360
  %363 = and i64 %361, 4294967295
  %364 = getelementptr inbounds %"struct.dealii::CellData", ptr %343, i64 %363
  store i32 %362, ptr %364, align 4, !tbaa !18
  %365 = add i32 %362, 1
  %366 = getelementptr inbounds [8 x i32], ptr %364, i64 0, i64 1
  store i32 %365, ptr %366, align 4, !tbaa !18
  %367 = add i32 %355, %360
  %368 = getelementptr inbounds [8 x i32], ptr %364, i64 0, i64 2
  store i32 %367, ptr %368, align 4, !tbaa !18
  %369 = add i32 %367, 1
  %370 = getelementptr inbounds [8 x i32], ptr %364, i64 0, i64 3
  store i32 %369, ptr %370, align 4, !tbaa !18
  %371 = add i32 %356, %360
  %372 = getelementptr inbounds [8 x i32], ptr %364, i64 0, i64 4
  store i32 %371, ptr %372, align 4, !tbaa !18
  %373 = add i32 %371, 1
  %374 = getelementptr inbounds [8 x i32], ptr %364, i64 0, i64 5
  store i32 %373, ptr %374, align 4, !tbaa !18
  %375 = add i32 %357, %360
  %376 = getelementptr inbounds [8 x i32], ptr %364, i64 0, i64 6
  store i32 %375, ptr %376, align 4, !tbaa !18
  %377 = add i32 %375, 1
  %378 = getelementptr inbounds [8 x i32], ptr %364, i64 0, i64 7
  store i32 %377, ptr %378, align 4, !tbaa !18
  %379 = getelementptr inbounds %"struct.dealii::CellData", ptr %343, i64 %363, i32 1
  store i8 0, ptr %379, align 4, !tbaa !20
  %380 = add i32 %360, 1
  %381 = zext i32 %380 to i64
  %382 = icmp ugt i64 %336, %381
  br i1 %382, label %358, label %383

383:                                              ; preds = %358
  %384 = zext i32 %353 to i64
  %385 = icmp ugt i64 %328, %384
  br i1 %385, label %346, label %386

386:                                              ; preds = %383
  %387 = zext i32 %344 to i64
  %388 = icmp ugt i64 %318, %387
  br i1 %388, label %338, label %407

389:                                              ; preds = %330, %396
  %390 = phi i32 [ %397, %396 ], [ 0, %330 ]
  br label %391

391:                                              ; preds = %389, %391
  %392 = phi i32 [ 0, %389 ], [ %393, %391 ]
  %393 = add i32 %392, 1
  %394 = zext i32 %393 to i64
  %395 = icmp ugt i64 %328, %394
  br i1 %395, label %391, label %396

396:                                              ; preds = %391
  %397 = add i32 %390, 1
  %398 = zext i32 %397 to i64
  %399 = icmp ugt i64 %318, %398
  br i1 %399, label %389, label %407

400:                                              ; preds = %322, %400
  %401 = phi i32 [ %402, %400 ], [ 0, %322 ]
  %402 = add i32 %401, 1
  %403 = zext i32 %402 to i64
  %404 = icmp ugt i64 %318, %403
  br i1 %404, label %400, label %407

405:                                              ; preds = %309
  %406 = landingpad { ptr, i32 }
          cleanup
  br label %514

407:                                              ; preds = %386, %396, %400, %317
  call void @llvm.lifetime.start.p0(i64 48, ptr nonnull %11) #23
  call void @llvm.memset.p0.i64(ptr noundef nonnull align 8 dereferenceable(48) %11, i8 0, i64 48, i1 false)
  %408 = load ptr, ptr %0, align 8, !tbaa !22
  %409 = getelementptr inbounds ptr, ptr %408, i64 3
  %410 = load ptr, ptr %409, align 8
  invoke void %410(ptr noundef nonnull align 8 dereferenceable(8552) %0, ptr noundef nonnull align 8 dereferenceable(24) %9, ptr noundef nonnull align 8 dereferenceable(24) %10, ptr noundef nonnull align 8 dereferenceable(48) %11)
          to label %411 unwind label %449

411:                                              ; preds = %407
  %412 = getelementptr inbounds %"struct.dealii::SubCellData", ptr %11, i64 0, i32 1
  %413 = load ptr, ptr %412, align 8, !tbaa !24
  %414 = icmp eq ptr %413, null
  br i1 %414, label %416, label %415

415:                                              ; preds = %411
  call void @_ZdlPv(ptr noundef nonnull %413) #25
  br label %416

416:                                              ; preds = %415, %411
  %417 = load ptr, ptr %11, align 8, !tbaa !26
  %418 = icmp eq ptr %417, null
  br i1 %418, label %420, label %419

419:                                              ; preds = %416
  call void @_ZdlPv(ptr noundef nonnull %417) #25
  br label %420

420:                                              ; preds = %419, %416
  call void @llvm.lifetime.end.p0(i64 48, ptr nonnull %11) #23
  br i1 %4, label %421, label %495

421:                                              ; preds = %420
  %422 = load ptr, ptr %36, align 8, !tbaa !38
  %423 = load ptr, ptr %73, align 8, !tbaa !38
  %424 = icmp eq ptr %422, %423
  %425 = getelementptr inbounds double, ptr %422, i64 1
  %426 = icmp eq ptr %425, %423
  %427 = select i1 %424, i1 true, i1 %426
  br i1 %427, label %440, label %428

428:                                              ; preds = %421
  %429 = load double, ptr %422, align 8, !tbaa !5
  br label %430

430:                                              ; preds = %430, %428
  %431 = phi double [ %436, %430 ], [ %429, %428 ]
  %432 = phi ptr [ %438, %430 ], [ %425, %428 ]
  %433 = phi ptr [ %437, %430 ], [ %422, %428 ]
  %434 = load double, ptr %432, align 8, !tbaa !5
  %435 = fcmp olt double %434, %431
  %436 = select i1 %435, double %434, double %431
  %437 = select i1 %435, ptr %432, ptr %433
  %438 = getelementptr inbounds double, ptr %432, i64 1
  %439 = icmp eq ptr %438, %423
  br i1 %439, label %440, label %430

440:                                              ; preds = %430, %421
  %441 = phi ptr [ %422, %421 ], [ %437, %430 ]
  %442 = load double, ptr %441, align 8, !tbaa !5
  %443 = load ptr, ptr %113, align 8, !tbaa !38
  %444 = load ptr, ptr %114, align 8, !tbaa !38
  %445 = icmp eq ptr %443, %444
  %446 = getelementptr inbounds double, ptr %443, i64 1
  %447 = icmp eq ptr %446, %444
  %448 = select i1 %445, i1 true, i1 %447
  br i1 %448, label %464, label %452

449:                                              ; preds = %407
  %450 = landingpad { ptr, i32 }
          cleanup
  invoke void @_ZN6dealii11SubCellDataD2Ev(ptr noundef nonnull align 8 dereferenceable(48) %11)
          to label %451 unwind label %541

451:                                              ; preds = %449
  call void @llvm.lifetime.end.p0(i64 48, ptr nonnull %11) #23
  br label %514

452:                                              ; preds = %440
  %453 = load double, ptr %443, align 8, !tbaa !5
  br label %454

454:                                              ; preds = %454, %452
  %455 = phi double [ %460, %454 ], [ %453, %452 ]
  %456 = phi ptr [ %462, %454 ], [ %446, %452 ]
  %457 = phi ptr [ %461, %454 ], [ %443, %452 ]
  %458 = load double, ptr %456, align 8, !tbaa !5
  %459 = fcmp olt double %458, %455
  %460 = select i1 %459, double %458, double %455
  %461 = select i1 %459, ptr %456, ptr %457
  %462 = getelementptr inbounds double, ptr %456, i64 1
  %463 = icmp eq ptr %462, %444
  br i1 %463, label %464, label %454

464:                                              ; preds = %454, %440
  %465 = phi ptr [ %443, %440 ], [ %461, %454 ]
  %466 = load double, ptr %465, align 8, !tbaa !5
  %467 = fcmp olt double %466, %442
  %468 = select i1 %467, double %466, double %442
  %469 = load ptr, ptr %151, align 8, !tbaa !38
  %470 = load ptr, ptr %152, align 8, !tbaa !38
  %471 = icmp eq ptr %469, %470
  %472 = getelementptr inbounds double, ptr %469, i64 1
  %473 = icmp eq ptr %472, %470
  %474 = select i1 %471, i1 true, i1 %473
  br i1 %474, label %487, label %475

475:                                              ; preds = %464
  %476 = load double, ptr %469, align 8, !tbaa !5
  br label %477

477:                                              ; preds = %477, %475
  %478 = phi double [ %483, %477 ], [ %476, %475 ]
  %479 = phi ptr [ %485, %477 ], [ %472, %475 ]
  %480 = phi ptr [ %484, %477 ], [ %469, %475 ]
  %481 = load double, ptr %479, align 8, !tbaa !5
  %482 = fcmp olt double %481, %478
  %483 = select i1 %482, double %481, double %478
  %484 = select i1 %482, ptr %479, ptr %480
  %485 = getelementptr inbounds double, ptr %479, i64 1
  %486 = icmp eq ptr %485, %470
  br i1 %486, label %487, label %477

487:                                              ; preds = %477, %464
  %488 = phi ptr [ %469, %464 ], [ %484, %477 ]
  %489 = load double, ptr %488, align 8, !tbaa !5
  %490 = fcmp olt double %489, %468
  %491 = select i1 %490, double %489, double %468
  %492 = fmul double %491, 1.000000e-02
  invoke void @_ZN6dealii13GridGenerator35colorize_subdivided_hyper_rectangleILi3EEEvRNS_13TriangulationIXT_EXT_EEERKNS_5PointIXT_EEES8_d(ptr noundef nonnull align 8 dereferenceable(8552) %0, ptr noundef nonnull align 8 dereferenceable(24) %7, ptr noundef nonnull align 8 dereferenceable(24) %8, double noundef %492)
          to label %495 unwind label %493

493:                                              ; preds = %487
  %494 = landingpad { ptr, i32 }
          cleanup
  br label %514

495:                                              ; preds = %487, %420
  %496 = load ptr, ptr %10, align 8, !tbaa !14
  %497 = icmp eq ptr %496, null
  br i1 %497, label %499, label %498

498:                                              ; preds = %495
  call void @_ZdlPv(ptr noundef nonnull %496) #25
  br label %499

499:                                              ; preds = %498, %495
  call void @llvm.lifetime.end.p0(i64 24, ptr nonnull %10) #23
  %500 = load ptr, ptr %9, align 8, !tbaa !9
  %501 = icmp eq ptr %500, null
  br i1 %501, label %503, label %502

502:                                              ; preds = %499
  call void @_ZdlPv(ptr noundef nonnull %500) #25
  br label %503

503:                                              ; preds = %502, %499
  call void @llvm.lifetime.end.p0(i64 24, ptr nonnull %9) #23
  %504 = icmp eq ptr %36, %37
  br i1 %504, label %513, label %505

505:                                              ; preds = %503, %510
  %506 = phi ptr [ %511, %510 ], [ %36, %503 ]
  %507 = load ptr, ptr %506, align 8, !tbaa !127
  %508 = icmp eq ptr %507, null
  br i1 %508, label %510, label %509

509:                                              ; preds = %505
  call void @_ZdlPv(ptr noundef nonnull %507) #25
  br label %510

510:                                              ; preds = %509, %505
  %511 = getelementptr inbounds %"class.std::vector.58", ptr %506, i64 1
  %512 = icmp eq ptr %511, %37
  br i1 %512, label %513, label %505

513:                                              ; preds = %510, %503
  call void @_ZdlPv(ptr noundef nonnull %36) #25
  call void @llvm.lifetime.end.p0(i64 24, ptr nonnull %8) #23
  call void @llvm.lifetime.end.p0(i64 24, ptr nonnull %7) #23
  ret void

514:                                              ; preds = %493, %451, %405
  %515 = phi { ptr, i32 } [ %450, %451 ], [ %406, %405 ], [ %494, %493 ]
  %516 = load ptr, ptr %10, align 8, !tbaa !14
  %517 = icmp eq ptr %516, null
  br i1 %517, label %519, label %518

518:                                              ; preds = %514
  call void @_ZdlPv(ptr noundef nonnull %516) #25
  br label %519

519:                                              ; preds = %518, %514
  call void @llvm.lifetime.end.p0(i64 24, ptr nonnull %10) #23
  br label %520

520:                                              ; preds = %273, %275, %519
  %521 = phi { ptr, i32 } [ %515, %519 ], [ %274, %273 ], [ %276, %275 ]
  %522 = load ptr, ptr %9, align 8, !tbaa !9
  %523 = icmp eq ptr %522, null
  br i1 %523, label %525, label %524

524:                                              ; preds = %520
  call void @_ZdlPv(ptr noundef nonnull %522) #25
  br label %525

525:                                              ; preds = %524, %520
  call void @llvm.lifetime.end.p0(i64 24, ptr nonnull %9) #23
  br label %526

526:                                              ; preds = %169, %525
  %527 = phi { ptr, i32 } [ %521, %525 ], [ %170, %169 ]
  %528 = icmp eq ptr %36, %37
  br i1 %528, label %537, label %529

529:                                              ; preds = %526, %534
  %530 = phi ptr [ %535, %534 ], [ %36, %526 ]
  %531 = load ptr, ptr %530, align 8, !tbaa !127
  %532 = icmp eq ptr %531, null
  br i1 %532, label %534, label %533

533:                                              ; preds = %529
  call void @_ZdlPv(ptr noundef nonnull %531) #25
  br label %534

534:                                              ; preds = %533, %529
  %535 = getelementptr inbounds %"class.std::vector.58", ptr %530, i64 1
  %536 = icmp eq ptr %535, %37
  br i1 %536, label %537, label %529

537:                                              ; preds = %534, %526
  %538 = icmp eq ptr %36, null
  br i1 %538, label %540, label %539

539:                                              ; preds = %537
  call void @_ZdlPv(ptr noundef nonnull %36) #25
  br label %540

540:                                              ; preds = %539, %537
  call void @llvm.lifetime.end.p0(i64 24, ptr nonnull %8) #23
  call void @llvm.lifetime.end.p0(i64 24, ptr nonnull %7) #23
  br label %49

541:                                              ; preds = %449
  %542 = landingpad { ptr, i32 }
          catch ptr null
  %543 = extractvalue { ptr, i32 } %542, 0
  call void @__clang_call_terminate(ptr %543) #26
  unreachable
}

; Function Attrs: sspstrong uwtable
define weak_odr dso_local void @_ZN6dealii13GridGenerator13parallelogramILi3EEEvRNS_13TriangulationIXT_EXT_EEERKNS_6TensorILi2EXT_EEEb(ptr noundef nonnull align 8 dereferenceable(8552) %0, ptr noundef nonnull align 8 dereferenceable(72) %1, i1 noundef zeroext %2) local_unnamed_addr #0 comdat align 2 personality ptr @__gxx_personality_v0 {
  %4 = alloca %"class.dealii::TriaIterator", align 8
  %5 = alloca %"class.std::vector.19", align 8
  %6 = alloca %"class.std::vector.38", align 8
  %7 = alloca %"struct.dealii::SubCellData", align 8
  call void @llvm.lifetime.start.p0(i64 24, ptr nonnull %5) #23
  %8 = tail call noalias noundef nonnull dereferenceable(192) ptr @_Znwm(i64 noundef 192) #24
  store ptr %8, ptr %5, align 8, !tbaa !9
  %9 = getelementptr inbounds %"class.dealii::Point", ptr %8, i64 8
  %10 = getelementptr inbounds %"struct.std::_Vector_base<dealii::Point<3>, std::allocator<dealii::Point<3> > >::_Vector_impl_data", ptr %5, i64 0, i32 2
  store ptr %9, ptr %10, align 8, !tbaa !12
  tail call void @llvm.memset.p0.i64(ptr noundef nonnull align 8 dereferenceable(192) %8, i8 0, i64 192, i1 false), !tbaa !5
  %11 = getelementptr inbounds %"struct.std::_Vector_base<dealii::Point<3>, std::allocator<dealii::Point<3> > >::_Vector_impl_data", ptr %5, i64 0, i32 1
  store ptr %9, ptr %11, align 8, !tbaa !13
  %12 = getelementptr inbounds [3 x double], ptr %1, i64 0, i64 2
  %13 = load double, ptr %12, align 8, !tbaa !5
  %14 = getelementptr inbounds %"class.dealii::Point", ptr %8, i64 1
  %15 = getelementptr inbounds %"class.dealii::Point", ptr %8, i64 1, i32 0, i32 0, i64 2
  store double %13, ptr %15, align 8, !tbaa !5
  %16 = getelementptr inbounds [3 x %"class.dealii::Tensor"], ptr %1, i64 0, i64 1
  %17 = getelementptr inbounds [3 x %"class.dealii::Tensor"], ptr %1, i64 0, i64 1, i32 0, i64 2
  %18 = load double, ptr %17, align 8, !tbaa !5
  %19 = getelementptr inbounds %"class.dealii::Point", ptr %8, i64 2
  %20 = getelementptr inbounds %"class.dealii::Point", ptr %8, i64 2, i32 0, i32 0, i64 2
  store double %18, ptr %20, align 8, !tbaa !5
  %21 = getelementptr inbounds %"class.dealii::Point", ptr %8, i64 3
  %22 = getelementptr inbounds %"class.dealii::Point", ptr %8, i64 3, i32 0, i32 0, i64 2
  %23 = load <2 x double>, ptr %1, align 8, !tbaa !5
  store <2 x double> %23, ptr %14, align 8, !tbaa !5
  %24 = load <2 x double>, ptr %16, align 8, !tbaa !5
  store <2 x double> %24, ptr %19, align 8, !tbaa !5
  %25 = fadd <2 x double> %23, %24
  store <2 x double> %25, ptr %21, align 8, !tbaa !5
  %26 = fadd double %13, %18
  store double %26, ptr %22, align 8, !tbaa !5
  call void @llvm.lifetime.start.p0(i64 24, ptr nonnull %6) #23
  %27 = invoke noalias noundef nonnull dereferenceable(36) ptr @_Znwm(i64 noundef 36) #24
          to label %28 unwind label %37

28:                                               ; preds = %3
  store ptr %27, ptr %6, align 8, !tbaa !14
  %29 = getelementptr inbounds %"struct.std::_Vector_base<dealii::CellData<3>, std::allocator<dealii::CellData<3> > >::_Vector_impl_data", ptr %6, i64 0, i32 1
  %30 = getelementptr inbounds %"struct.dealii::CellData", ptr %27, i64 1
  %31 = getelementptr inbounds %"struct.std::_Vector_base<dealii::CellData<3>, std::allocator<dealii::CellData<3> > >::_Vector_impl_data", ptr %6, i64 0, i32 2
  store ptr %30, ptr %31, align 8, !tbaa !16
  %32 = getelementptr inbounds i8, ptr %27, i64 32
  store i32 0, ptr %32, align 4
  store ptr %30, ptr %29, align 8, !tbaa !17
  store <8 x i32> <i32 0, i32 1, i32 2, i32 3, i32 4, i32 5, i32 6, i32 7>, ptr %27, align 4, !tbaa !18
  %33 = getelementptr inbounds %"struct.dealii::CellData", ptr %27, i64 0, i32 1
  store i8 0, ptr %33, align 4, !tbaa !20
  call void @llvm.lifetime.start.p0(i64 48, ptr nonnull %7) #23
  call void @llvm.memset.p0.i64(ptr noundef nonnull align 8 dereferenceable(48) %7, i8 0, i64 48, i1 false)
  %34 = load ptr, ptr %0, align 8, !tbaa !22
  %35 = getelementptr inbounds ptr, ptr %34, i64 3
  %36 = load ptr, ptr %35, align 8
  invoke void %36(ptr noundef nonnull align 8 dereferenceable(8552) %0, ptr noundef nonnull align 8 dereferenceable(24) %5, ptr noundef nonnull align 8 dereferenceable(24) %6, ptr noundef nonnull align 8 dereferenceable(48) %7)
          to label %39 unwind label %169

37:                                               ; preds = %3
  %38 = landingpad { ptr, i32 }
          cleanup
  br label %186

39:                                               ; preds = %28
  %40 = getelementptr inbounds %"struct.dealii::SubCellData", ptr %7, i64 0, i32 1
  %41 = load ptr, ptr %40, align 8, !tbaa !24
  %42 = icmp eq ptr %41, null
  br i1 %42, label %44, label %43

43:                                               ; preds = %39
  call void @_ZdlPv(ptr noundef nonnull %41) #25
  br label %44

44:                                               ; preds = %43, %39
  %45 = load ptr, ptr %7, align 8, !tbaa !26
  %46 = icmp eq ptr %45, null
  br i1 %46, label %48, label %47

47:                                               ; preds = %44
  call void @_ZdlPv(ptr noundef nonnull %45) #25
  br label %48

48:                                               ; preds = %47, %44
  call void @llvm.lifetime.end.p0(i64 48, ptr nonnull %7) #23
  br i1 %2, label %49, label %172

49:                                               ; preds = %48
  call void @llvm.lifetime.start.p0(i64 16, ptr nonnull %4) #23
  invoke void @_ZNK6dealii13TriangulationILi3ELi3EE5beginEj(ptr nonnull sret(%"class.dealii::TriaIterator") align 8 %4, ptr noundef nonnull align 8 dereferenceable(8552) %0, i32 noundef 0)
          to label %50 unwind label %167

50:                                               ; preds = %49
  %51 = getelementptr inbounds %"class.dealii::TriaAccessorBase", ptr %4, i64 0, i32 2
  %52 = getelementptr inbounds %"class.dealii::TriaAccessorBase", ptr %4, i64 0, i32 1
  %53 = load ptr, ptr %51, align 8, !tbaa !28, !noalias !128
  %54 = getelementptr inbounds %"class.dealii::Triangulation", ptr %53, i64 0, i32 1
  %55 = load i32, ptr %4, align 8, !tbaa !35, !noalias !128
  %56 = sext i32 %55 to i64
  %57 = load ptr, ptr %54, align 8, !tbaa !36, !noalias !128
  %58 = getelementptr inbounds ptr, ptr %57, i64 %56
  %59 = load ptr, ptr %58, align 8, !tbaa !38, !noalias !128
  %60 = getelementptr inbounds %"class.dealii::internal::Triangulation::TriaLevel", ptr %59, i64 0, i32 4
  %61 = load i32, ptr %52, align 4, !tbaa !39, !noalias !128
  %62 = sext i32 %61 to i64
  %63 = load ptr, ptr %60, align 8, !tbaa !40, !noalias !128
  %64 = getelementptr inbounds %"class.dealii::internal::Triangulation::TriaObject", ptr %63, i64 %62
  %65 = load i32, ptr %64, align 4, !tbaa !18, !noalias !128
  %66 = getelementptr inbounds %"class.dealii::Triangulation", ptr %53, i64 0, i32 2
  %67 = load ptr, ptr %66, align 8, !tbaa !42
  %68 = getelementptr inbounds %"class.dealii::internal::Triangulation::TriaObjects.239", ptr %67, i64 0, i32 5
  %69 = sext i32 %65 to i64
  %70 = load ptr, ptr %68, align 8, !tbaa !80
  %71 = getelementptr inbounds i8, ptr %70, i64 %69
  store i8 0, ptr %71, align 1, !tbaa !82
  %72 = load ptr, ptr %51, align 8, !tbaa !28, !noalias !128
  %73 = getelementptr inbounds %"class.dealii::Triangulation", ptr %72, i64 0, i32 1
  %74 = load i32, ptr %4, align 8, !tbaa !35, !noalias !128
  %75 = sext i32 %74 to i64
  %76 = load ptr, ptr %73, align 8, !tbaa !36, !noalias !128
  %77 = getelementptr inbounds ptr, ptr %76, i64 %75
  %78 = load ptr, ptr %77, align 8, !tbaa !38, !noalias !128
  %79 = getelementptr inbounds %"class.dealii::internal::Triangulation::TriaLevel", ptr %78, i64 0, i32 4
  %80 = load i32, ptr %52, align 4, !tbaa !39, !noalias !128
  %81 = sext i32 %80 to i64
  %82 = load ptr, ptr %79, align 8, !tbaa !40, !noalias !128
  %83 = getelementptr inbounds %"class.dealii::internal::Triangulation::TriaObject", ptr %82, i64 %81, i32 0, i64 1
  %84 = load i32, ptr %83, align 4, !tbaa !18, !noalias !128
  %85 = getelementptr inbounds %"class.dealii::Triangulation", ptr %72, i64 0, i32 2
  %86 = load ptr, ptr %85, align 8, !tbaa !42
  %87 = getelementptr inbounds %"class.dealii::internal::Triangulation::TriaObjects.239", ptr %86, i64 0, i32 5
  %88 = sext i32 %84 to i64
  %89 = load ptr, ptr %87, align 8, !tbaa !80
  %90 = getelementptr inbounds i8, ptr %89, i64 %88
  store i8 1, ptr %90, align 1, !tbaa !82
  %91 = load ptr, ptr %51, align 8, !tbaa !28, !noalias !128
  %92 = getelementptr inbounds %"class.dealii::Triangulation", ptr %91, i64 0, i32 1
  %93 = load i32, ptr %4, align 8, !tbaa !35, !noalias !128
  %94 = sext i32 %93 to i64
  %95 = load ptr, ptr %92, align 8, !tbaa !36, !noalias !128
  %96 = getelementptr inbounds ptr, ptr %95, i64 %94
  %97 = load ptr, ptr %96, align 8, !tbaa !38, !noalias !128
  %98 = getelementptr inbounds %"class.dealii::internal::Triangulation::TriaLevel", ptr %97, i64 0, i32 4
  %99 = load i32, ptr %52, align 4, !tbaa !39, !noalias !128
  %100 = sext i32 %99 to i64
  %101 = load ptr, ptr %98, align 8, !tbaa !40, !noalias !128
  %102 = getelementptr inbounds %"class.dealii::internal::Triangulation::TriaObject", ptr %101, i64 %100, i32 0, i64 2
  %103 = load i32, ptr %102, align 4, !tbaa !18, !noalias !128
  %104 = getelementptr inbounds %"class.dealii::Triangulation", ptr %91, i64 0, i32 2
  %105 = load ptr, ptr %104, align 8, !tbaa !42
  %106 = getelementptr inbounds %"class.dealii::internal::Triangulation::TriaObjects.239", ptr %105, i64 0, i32 5
  %107 = sext i32 %103 to i64
  %108 = load ptr, ptr %106, align 8, !tbaa !80
  %109 = getelementptr inbounds i8, ptr %108, i64 %107
  store i8 2, ptr %109, align 1, !tbaa !82
  %110 = load ptr, ptr %51, align 8, !tbaa !28, !noalias !128
  %111 = getelementptr inbounds %"class.dealii::Triangulation", ptr %110, i64 0, i32 1
  %112 = load i32, ptr %4, align 8, !tbaa !35, !noalias !128
  %113 = sext i32 %112 to i64
  %114 = load ptr, ptr %111, align 8, !tbaa !36, !noalias !128
  %115 = getelementptr inbounds ptr, ptr %114, i64 %113
  %116 = load ptr, ptr %115, align 8, !tbaa !38, !noalias !128
  %117 = getelementptr inbounds %"class.dealii::internal::Triangulation::TriaLevel", ptr %116, i64 0, i32 4
  %118 = load i32, ptr %52, align 4, !tbaa !39, !noalias !128
  %119 = sext i32 %118 to i64
  %120 = load ptr, ptr %117, align 8, !tbaa !40, !noalias !128
  %121 = getelementptr inbounds %"class.dealii::internal::Triangulation::TriaObject", ptr %120, i64 %119, i32 0, i64 3
  %122 = load i32, ptr %121, align 4, !tbaa !18, !noalias !128
  %123 = getelementptr inbounds %"class.dealii::Triangulation", ptr %110, i64 0, i32 2
  %124 = load ptr, ptr %123, align 8, !tbaa !42
  %125 = getelementptr inbounds %"class.dealii::internal::Triangulation::TriaObjects.239", ptr %124, i64 0, i32 5
  %126 = sext i32 %122 to i64
  %127 = load ptr, ptr %125, align 8, !tbaa !80
  %128 = getelementptr inbounds i8, ptr %127, i64 %126
  store i8 3, ptr %128, align 1, !tbaa !82
  %129 = load ptr, ptr %51, align 8, !tbaa !28, !noalias !128
  %130 = getelementptr inbounds %"class.dealii::Triangulation", ptr %129, i64 0, i32 1
  %131 = load i32, ptr %4, align 8, !tbaa !35, !noalias !128
  %132 = sext i32 %131 to i64
  %133 = load ptr, ptr %130, align 8, !tbaa !36, !noalias !128
  %134 = getelementptr inbounds ptr, ptr %133, i64 %132
  %135 = load ptr, ptr %134, align 8, !tbaa !38, !noalias !128
  %136 = getelementptr inbounds %"class.dealii::internal::Triangulation::TriaLevel", ptr %135, i64 0, i32 4
  %137 = load i32, ptr %52, align 4, !tbaa !39, !noalias !128
  %138 = sext i32 %137 to i64
  %139 = load ptr, ptr %136, align 8, !tbaa !40, !noalias !128
  %140 = getelementptr inbounds %"class.dealii::internal::Triangulation::TriaObject", ptr %139, i64 %138, i32 0, i64 4
  %141 = load i32, ptr %140, align 4, !tbaa !18, !noalias !128
  %142 = getelementptr inbounds %"class.dealii::Triangulation", ptr %129, i64 0, i32 2
  %143 = load ptr, ptr %142, align 8, !tbaa !42
  %144 = getelementptr inbounds %"class.dealii::internal::Triangulation::TriaObjects.239", ptr %143, i64 0, i32 5
  %145 = sext i32 %141 to i64
  %146 = load ptr, ptr %144, align 8, !tbaa !80
  %147 = getelementptr inbounds i8, ptr %146, i64 %145
  store i8 4, ptr %147, align 1, !tbaa !82
  %148 = load ptr, ptr %51, align 8, !tbaa !28, !noalias !128
  %149 = getelementptr inbounds %"class.dealii::Triangulation", ptr %148, i64 0, i32 1
  %150 = load i32, ptr %4, align 8, !tbaa !35, !noalias !128
  %151 = sext i32 %150 to i64
  %152 = load ptr, ptr %149, align 8, !tbaa !36, !noalias !128
  %153 = getelementptr inbounds ptr, ptr %152, i64 %151
  %154 = load ptr, ptr %153, align 8, !tbaa !38, !noalias !128
  %155 = getelementptr inbounds %"class.dealii::internal::Triangulation::TriaLevel", ptr %154, i64 0, i32 4
  %156 = load i32, ptr %52, align 4, !tbaa !39, !noalias !128
  %157 = sext i32 %156 to i64
  %158 = load ptr, ptr %155, align 8, !tbaa !40, !noalias !128
  %159 = getelementptr inbounds %"class.dealii::internal::Triangulation::TriaObject", ptr %158, i64 %157, i32 0, i64 5
  %160 = load i32, ptr %159, align 4, !tbaa !18, !noalias !128
  %161 = getelementptr inbounds %"class.dealii::Triangulation", ptr %148, i64 0, i32 2
  %162 = load ptr, ptr %161, align 8, !tbaa !42
  %163 = getelementptr inbounds %"class.dealii::internal::Triangulation::TriaObjects.239", ptr %162, i64 0, i32 5
  %164 = sext i32 %160 to i64
  %165 = load ptr, ptr %163, align 8, !tbaa !80
  %166 = getelementptr inbounds i8, ptr %165, i64 %164
  store i8 5, ptr %166, align 1, !tbaa !82
  call void @llvm.lifetime.end.p0(i64 16, ptr nonnull %4) #23
  br label %172

167:                                              ; preds = %49
  %168 = landingpad { ptr, i32 }
          cleanup
  br label %181

169:                                              ; preds = %28
  %170 = landingpad { ptr, i32 }
          cleanup
  invoke void @_ZN6dealii11SubCellDataD2Ev(ptr noundef nonnull align 8 dereferenceable(48) %7)
          to label %171 unwind label %192

171:                                              ; preds = %169
  call void @llvm.lifetime.end.p0(i64 48, ptr nonnull %7) #23
  br label %181

172:                                              ; preds = %50, %48
  %173 = load ptr, ptr %6, align 8, !tbaa !14
  %174 = icmp eq ptr %173, null
  br i1 %174, label %176, label %175

175:                                              ; preds = %172
  call void @_ZdlPv(ptr noundef nonnull %173) #25
  br label %176

176:                                              ; preds = %175, %172
  call void @llvm.lifetime.end.p0(i64 24, ptr nonnull %6) #23
  %177 = load ptr, ptr %5, align 8, !tbaa !9
  %178 = icmp eq ptr %177, null
  br i1 %178, label %180, label %179

179:                                              ; preds = %176
  call void @_ZdlPv(ptr noundef nonnull %177) #25
  br label %180

180:                                              ; preds = %176, %179
  call void @llvm.lifetime.end.p0(i64 24, ptr nonnull %5) #23
  ret void

181:                                              ; preds = %171, %167
  %182 = phi { ptr, i32 } [ %168, %167 ], [ %170, %171 ]
  %183 = load ptr, ptr %6, align 8, !tbaa !14
  %184 = icmp eq ptr %183, null
  br i1 %184, label %186, label %185

185:                                              ; preds = %181
  call void @_ZdlPv(ptr noundef nonnull %183) #25
  br label %186

186:                                              ; preds = %185, %181, %37
  %187 = phi { ptr, i32 } [ %38, %37 ], [ %182, %181 ], [ %182, %185 ]
  call void @llvm.lifetime.end.p0(i64 24, ptr nonnull %6) #23
  %188 = load ptr, ptr %5, align 8, !tbaa !9
  %189 = icmp eq ptr %188, null
  br i1 %189, label %191, label %190

190:                                              ; preds = %186
  call void @_ZdlPv(ptr noundef nonnull %188) #25
  br label %191

191:                                              ; preds = %190, %186
  call void @llvm.lifetime.end.p0(i64 24, ptr nonnull %5) #23
  resume { ptr, i32 } %187

192:                                              ; preds = %169
  %193 = landingpad { ptr, i32 }
          catch ptr null
  %194 = extractvalue { ptr, i32 } %193, 0
  call void @__clang_call_terminate(ptr %194) #26
  unreachable
}

; Function Attrs: sspstrong uwtable
define weak_odr dso_local void @_ZN6dealii13GridGenerator19enclosed_hyper_cubeILi3EEEvRNS_13TriangulationIXT_EXT_EEEdddb(ptr noundef nonnull align 8 dereferenceable(8552) %0, double noundef %1, double noundef %2, double noundef %3, i1 noundef zeroext %4) local_unnamed_addr #0 comdat align 2 personality ptr @__gxx_personality_v0 {
  %6 = alloca %"class.std::vector.19", align 8
  %7 = alloca %"class.std::vector.38", align 8
  %8 = alloca %"struct.dealii::SubCellData", align 8
  call void @llvm.lifetime.start.p0(i64 24, ptr nonnull %6) #23
  %9 = tail call noalias noundef nonnull dereferenceable(1536) ptr @_Znwm(i64 noundef 1536) #24
  store ptr %9, ptr %6, align 8, !tbaa !9
  %10 = getelementptr inbounds %"class.dealii::Point", ptr %9, i64 64
  %11 = getelementptr inbounds %"struct.std::_Vector_base<dealii::Point<3>, std::allocator<dealii::Point<3> > >::_Vector_impl_data", ptr %6, i64 0, i32 2
  store ptr %10, ptr %11, align 8, !tbaa !12
  tail call void @llvm.memset.p0.i64(ptr noundef nonnull align 8 dereferenceable(1536) %9, i8 0, i64 1536, i1 false), !tbaa !5
  %12 = getelementptr inbounds %"struct.std::_Vector_base<dealii::Point<3>, std::allocator<dealii::Point<3> > >::_Vector_impl_data", ptr %6, i64 0, i32 1
  store ptr %10, ptr %12, align 8, !tbaa !13
  %13 = fsub double %1, %3
  %14 = fadd double %2, %3
  store double %13, ptr %9, align 8, !tbaa !5
  %15 = getelementptr inbounds [3 x double], ptr %9, i64 0, i64 1
  store double %13, ptr %15, align 8, !tbaa !5
  %16 = getelementptr inbounds [3 x double], ptr %9, i64 0, i64 2
  store double %13, ptr %16, align 8, !tbaa !5
  %17 = getelementptr inbounds %"class.dealii::Point", ptr %9, i64 1
  store double %1, ptr %17, align 8, !tbaa !5
  %18 = getelementptr inbounds %"class.dealii::Point", ptr %9, i64 1, i32 0, i32 0, i64 1
  store double %13, ptr %18, align 8, !tbaa !5
  %19 = getelementptr inbounds %"class.dealii::Point", ptr %9, i64 1, i32 0, i32 0, i64 2
  store double %13, ptr %19, align 8, !tbaa !5
  %20 = getelementptr inbounds %"class.dealii::Point", ptr %9, i64 2
  store double %2, ptr %20, align 8, !tbaa !5
  %21 = getelementptr inbounds %"class.dealii::Point", ptr %9, i64 2, i32 0, i32 0, i64 1
  store double %13, ptr %21, align 8, !tbaa !5
  %22 = getelementptr inbounds %"class.dealii::Point", ptr %9, i64 2, i32 0, i32 0, i64 2
  store double %13, ptr %22, align 8, !tbaa !5
  %23 = getelementptr inbounds %"class.dealii::Point", ptr %9, i64 3
  store double %14, ptr %23, align 8, !tbaa !5
  %24 = getelementptr inbounds %"class.dealii::Point", ptr %9, i64 3, i32 0, i32 0, i64 1
  store double %13, ptr %24, align 8, !tbaa !5
  %25 = getelementptr inbounds %"class.dealii::Point", ptr %9, i64 3, i32 0, i32 0, i64 2
  store double %13, ptr %25, align 8, !tbaa !5
  %26 = getelementptr inbounds %"class.dealii::Point", ptr %9, i64 4
  store double %13, ptr %26, align 8, !tbaa !5
  %27 = getelementptr inbounds %"class.dealii::Point", ptr %9, i64 4, i32 0, i32 0, i64 1
  store double %1, ptr %27, align 8, !tbaa !5
  %28 = getelementptr inbounds %"class.dealii::Point", ptr %9, i64 4, i32 0, i32 0, i64 2
  store double %13, ptr %28, align 8, !tbaa !5
  %29 = getelementptr inbounds %"class.dealii::Point", ptr %9, i64 5
  store double %1, ptr %29, align 8, !tbaa !5
  %30 = getelementptr inbounds %"class.dealii::Point", ptr %9, i64 5, i32 0, i32 0, i64 1
  store double %1, ptr %30, align 8, !tbaa !5
  %31 = getelementptr inbounds %"class.dealii::Point", ptr %9, i64 5, i32 0, i32 0, i64 2
  store double %13, ptr %31, align 8, !tbaa !5
  %32 = getelementptr inbounds %"class.dealii::Point", ptr %9, i64 6
  store double %2, ptr %32, align 8, !tbaa !5
  %33 = getelementptr inbounds %"class.dealii::Point", ptr %9, i64 6, i32 0, i32 0, i64 1
  store double %1, ptr %33, align 8, !tbaa !5
  %34 = getelementptr inbounds %"class.dealii::Point", ptr %9, i64 6, i32 0, i32 0, i64 2
  store double %13, ptr %34, align 8, !tbaa !5
  %35 = getelementptr inbounds %"class.dealii::Point", ptr %9, i64 7
  store double %14, ptr %35, align 8, !tbaa !5
  %36 = getelementptr inbounds %"class.dealii::Point", ptr %9, i64 7, i32 0, i32 0, i64 1
  store double %1, ptr %36, align 8, !tbaa !5
  %37 = getelementptr inbounds %"class.dealii::Point", ptr %9, i64 7, i32 0, i32 0, i64 2
  store double %13, ptr %37, align 8, !tbaa !5
  %38 = getelementptr inbounds %"class.dealii::Point", ptr %9, i64 8
  store double %13, ptr %38, align 8, !tbaa !5
  %39 = getelementptr inbounds %"class.dealii::Point", ptr %9, i64 8, i32 0, i32 0, i64 1
  store double %2, ptr %39, align 8, !tbaa !5
  %40 = getelementptr inbounds %"class.dealii::Point", ptr %9, i64 8, i32 0, i32 0, i64 2
  store double %13, ptr %40, align 8, !tbaa !5
  %41 = getelementptr inbounds %"class.dealii::Point", ptr %9, i64 9
  store double %1, ptr %41, align 8, !tbaa !5
  %42 = getelementptr inbounds %"class.dealii::Point", ptr %9, i64 9, i32 0, i32 0, i64 1
  store double %2, ptr %42, align 8, !tbaa !5
  %43 = getelementptr inbounds %"class.dealii::Point", ptr %9, i64 9, i32 0, i32 0, i64 2
  store double %13, ptr %43, align 8, !tbaa !5
  %44 = getelementptr inbounds %"class.dealii::Point", ptr %9, i64 10
  store double %2, ptr %44, align 8, !tbaa !5
  %45 = getelementptr inbounds %"class.dealii::Point", ptr %9, i64 10, i32 0, i32 0, i64 1
  store double %2, ptr %45, align 8, !tbaa !5
  %46 = getelementptr inbounds %"class.dealii::Point", ptr %9, i64 10, i32 0, i32 0, i64 2
  store double %13, ptr %46, align 8, !tbaa !5
  %47 = getelementptr inbounds %"class.dealii::Point", ptr %9, i64 11
  store double %14, ptr %47, align 8, !tbaa !5
  %48 = getelementptr inbounds %"class.dealii::Point", ptr %9, i64 11, i32 0, i32 0, i64 1
  store double %2, ptr %48, align 8, !tbaa !5
  %49 = getelementptr inbounds %"class.dealii::Point", ptr %9, i64 11, i32 0, i32 0, i64 2
  store double %13, ptr %49, align 8, !tbaa !5
  %50 = getelementptr inbounds %"class.dealii::Point", ptr %9, i64 12
  store double %13, ptr %50, align 8, !tbaa !5
  %51 = getelementptr inbounds %"class.dealii::Point", ptr %9, i64 12, i32 0, i32 0, i64 1
  store double %14, ptr %51, align 8, !tbaa !5
  %52 = getelementptr inbounds %"class.dealii::Point", ptr %9, i64 12, i32 0, i32 0, i64 2
  store double %13, ptr %52, align 8, !tbaa !5
  %53 = getelementptr inbounds %"class.dealii::Point", ptr %9, i64 13
  store double %1, ptr %53, align 8, !tbaa !5
  %54 = getelementptr inbounds %"class.dealii::Point", ptr %9, i64 13, i32 0, i32 0, i64 1
  store double %14, ptr %54, align 8, !tbaa !5
  %55 = getelementptr inbounds %"class.dealii::Point", ptr %9, i64 13, i32 0, i32 0, i64 2
  store double %13, ptr %55, align 8, !tbaa !5
  %56 = getelementptr inbounds %"class.dealii::Point", ptr %9, i64 14
  store double %2, ptr %56, align 8, !tbaa !5
  %57 = getelementptr inbounds %"class.dealii::Point", ptr %9, i64 14, i32 0, i32 0, i64 1
  store double %14, ptr %57, align 8, !tbaa !5
  %58 = getelementptr inbounds %"class.dealii::Point", ptr %9, i64 14, i32 0, i32 0, i64 2
  store double %13, ptr %58, align 8, !tbaa !5
  %59 = getelementptr inbounds %"class.dealii::Point", ptr %9, i64 15
  store double %14, ptr %59, align 8, !tbaa !5
  %60 = getelementptr inbounds %"class.dealii::Point", ptr %9, i64 15, i32 0, i32 0, i64 1
  store double %14, ptr %60, align 8, !tbaa !5
  %61 = getelementptr inbounds %"class.dealii::Point", ptr %9, i64 15, i32 0, i32 0, i64 2
  store double %13, ptr %61, align 8, !tbaa !5
  %62 = getelementptr inbounds %"class.dealii::Point", ptr %9, i64 16
  store double %13, ptr %62, align 8, !tbaa !5
  %63 = getelementptr inbounds %"class.dealii::Point", ptr %9, i64 16, i32 0, i32 0, i64 1
  store double %13, ptr %63, align 8, !tbaa !5
  %64 = getelementptr inbounds %"class.dealii::Point", ptr %9, i64 16, i32 0, i32 0, i64 2
  store double %1, ptr %64, align 8, !tbaa !5
  %65 = getelementptr inbounds %"class.dealii::Point", ptr %9, i64 17
  store double %1, ptr %65, align 8, !tbaa !5
  %66 = getelementptr inbounds %"class.dealii::Point", ptr %9, i64 17, i32 0, i32 0, i64 1
  store double %13, ptr %66, align 8, !tbaa !5
  %67 = getelementptr inbounds %"class.dealii::Point", ptr %9, i64 17, i32 0, i32 0, i64 2
  store double %1, ptr %67, align 8, !tbaa !5
  %68 = getelementptr inbounds %"class.dealii::Point", ptr %9, i64 18
  store double %2, ptr %68, align 8, !tbaa !5
  %69 = getelementptr inbounds %"class.dealii::Point", ptr %9, i64 18, i32 0, i32 0, i64 1
  store double %13, ptr %69, align 8, !tbaa !5
  %70 = getelementptr inbounds %"class.dealii::Point", ptr %9, i64 18, i32 0, i32 0, i64 2
  store double %1, ptr %70, align 8, !tbaa !5
  %71 = getelementptr inbounds %"class.dealii::Point", ptr %9, i64 19
  store double %14, ptr %71, align 8, !tbaa !5
  %72 = getelementptr inbounds %"class.dealii::Point", ptr %9, i64 19, i32 0, i32 0, i64 1
  store double %13, ptr %72, align 8, !tbaa !5
  %73 = getelementptr inbounds %"class.dealii::Point", ptr %9, i64 19, i32 0, i32 0, i64 2
  store double %1, ptr %73, align 8, !tbaa !5
  %74 = getelementptr inbounds %"class.dealii::Point", ptr %9, i64 20
  store double %13, ptr %74, align 8, !tbaa !5
  %75 = getelementptr inbounds %"class.dealii::Point", ptr %9, i64 20, i32 0, i32 0, i64 1
  store double %1, ptr %75, align 8, !tbaa !5
  %76 = getelementptr inbounds %"class.dealii::Point", ptr %9, i64 20, i32 0, i32 0, i64 2
  store double %1, ptr %76, align 8, !tbaa !5
  %77 = getelementptr inbounds %"class.dealii::Point", ptr %9, i64 21
  store double %1, ptr %77, align 8, !tbaa !5
  %78 = getelementptr inbounds %"class.dealii::Point", ptr %9, i64 21, i32 0, i32 0, i64 1
  store double %1, ptr %78, align 8, !tbaa !5
  %79 = getelementptr inbounds %"class.dealii::Point", ptr %9, i64 21, i32 0, i32 0, i64 2
  store double %1, ptr %79, align 8, !tbaa !5
  %80 = getelementptr inbounds %"class.dealii::Point", ptr %9, i64 22
  store double %2, ptr %80, align 8, !tbaa !5
  %81 = getelementptr inbounds %"class.dealii::Point", ptr %9, i64 22, i32 0, i32 0, i64 1
  store double %1, ptr %81, align 8, !tbaa !5
  %82 = getelementptr inbounds %"class.dealii::Point", ptr %9, i64 22, i32 0, i32 0, i64 2
  store double %1, ptr %82, align 8, !tbaa !5
  %83 = getelementptr inbounds %"class.dealii::Point", ptr %9, i64 23
  store double %14, ptr %83, align 8, !tbaa !5
  %84 = getelementptr inbounds %"class.dealii::Point", ptr %9, i64 23, i32 0, i32 0, i64 1
  store double %1, ptr %84, align 8, !tbaa !5
  %85 = getelementptr inbounds %"class.dealii::Point", ptr %9, i64 23, i32 0, i32 0, i64 2
  store double %1, ptr %85, align 8, !tbaa !5
  %86 = getelementptr inbounds %"class.dealii::Point", ptr %9, i64 24
  store double %13, ptr %86, align 8, !tbaa !5
  %87 = getelementptr inbounds %"class.dealii::Point", ptr %9, i64 24, i32 0, i32 0, i64 1
  store double %2, ptr %87, align 8, !tbaa !5
  %88 = getelementptr inbounds %"class.dealii::Point", ptr %9, i64 24, i32 0, i32 0, i64 2
  store double %1, ptr %88, align 8, !tbaa !5
  %89 = getelementptr inbounds %"class.dealii::Point", ptr %9, i64 25
  store double %1, ptr %89, align 8, !tbaa !5
  %90 = getelementptr inbounds %"class.dealii::Point", ptr %9, i64 25, i32 0, i32 0, i64 1
  store double %2, ptr %90, align 8, !tbaa !5
  %91 = getelementptr inbounds %"class.dealii::Point", ptr %9, i64 25, i32 0, i32 0, i64 2
  store double %1, ptr %91, align 8, !tbaa !5
  %92 = getelementptr inbounds %"class.dealii::Point", ptr %9, i64 26
  store double %2, ptr %92, align 8, !tbaa !5
  %93 = getelementptr inbounds %"class.dealii::Point", ptr %9, i64 26, i32 0, i32 0, i64 1
  store double %2, ptr %93, align 8, !tbaa !5
  %94 = getelementptr inbounds %"class.dealii::Point", ptr %9, i64 26, i32 0, i32 0, i64 2
  store double %1, ptr %94, align 8, !tbaa !5
  %95 = getelementptr inbounds %"class.dealii::Point", ptr %9, i64 27
  store double %14, ptr %95, align 8, !tbaa !5
  %96 = getelementptr inbounds %"class.dealii::Point", ptr %9, i64 27, i32 0, i32 0, i64 1
  store double %2, ptr %96, align 8, !tbaa !5
  %97 = getelementptr inbounds %"class.dealii::Point", ptr %9, i64 27, i32 0, i32 0, i64 2
  store double %1, ptr %97, align 8, !tbaa !5
  %98 = getelementptr inbounds %"class.dealii::Point", ptr %9, i64 28
  store double %13, ptr %98, align 8, !tbaa !5
  %99 = getelementptr inbounds %"class.dealii::Point", ptr %9, i64 28, i32 0, i32 0, i64 1
  store double %14, ptr %99, align 8, !tbaa !5
  %100 = getelementptr inbounds %"class.dealii::Point", ptr %9, i64 28, i32 0, i32 0, i64 2
  store double %1, ptr %100, align 8, !tbaa !5
  %101 = getelementptr inbounds %"class.dealii::Point", ptr %9, i64 29
  store double %1, ptr %101, align 8, !tbaa !5
  %102 = getelementptr inbounds %"class.dealii::Point", ptr %9, i64 29, i32 0, i32 0, i64 1
  store double %14, ptr %102, align 8, !tbaa !5
  %103 = getelementptr inbounds %"class.dealii::Point", ptr %9, i64 29, i32 0, i32 0, i64 2
  store double %1, ptr %103, align 8, !tbaa !5
  %104 = getelementptr inbounds %"class.dealii::Point", ptr %9, i64 30
  store double %2, ptr %104, align 8, !tbaa !5
  %105 = getelementptr inbounds %"class.dealii::Point", ptr %9, i64 30, i32 0, i32 0, i64 1
  store double %14, ptr %105, align 8, !tbaa !5
  %106 = getelementptr inbounds %"class.dealii::Point", ptr %9, i64 30, i32 0, i32 0, i64 2
  store double %1, ptr %106, align 8, !tbaa !5
  %107 = getelementptr inbounds %"class.dealii::Point", ptr %9, i64 31
  store double %14, ptr %107, align 8, !tbaa !5
  %108 = getelementptr inbounds %"class.dealii::Point", ptr %9, i64 31, i32 0, i32 0, i64 1
  store double %14, ptr %108, align 8, !tbaa !5
  %109 = getelementptr inbounds %"class.dealii::Point", ptr %9, i64 31, i32 0, i32 0, i64 2
  store double %1, ptr %109, align 8, !tbaa !5
  %110 = getelementptr inbounds %"class.dealii::Point", ptr %9, i64 32
  store double %13, ptr %110, align 8, !tbaa !5
  %111 = getelementptr inbounds %"class.dealii::Point", ptr %9, i64 32, i32 0, i32 0, i64 1
  store double %13, ptr %111, align 8, !tbaa !5
  %112 = getelementptr inbounds %"class.dealii::Point", ptr %9, i64 32, i32 0, i32 0, i64 2
  store double %2, ptr %112, align 8, !tbaa !5
  %113 = getelementptr inbounds %"class.dealii::Point", ptr %9, i64 33
  store double %1, ptr %113, align 8, !tbaa !5
  %114 = getelementptr inbounds %"class.dealii::Point", ptr %9, i64 33, i32 0, i32 0, i64 1
  store double %13, ptr %114, align 8, !tbaa !5
  %115 = getelementptr inbounds %"class.dealii::Point", ptr %9, i64 33, i32 0, i32 0, i64 2
  store double %2, ptr %115, align 8, !tbaa !5
  %116 = getelementptr inbounds %"class.dealii::Point", ptr %9, i64 34
  store double %2, ptr %116, align 8, !tbaa !5
  %117 = getelementptr inbounds %"class.dealii::Point", ptr %9, i64 34, i32 0, i32 0, i64 1
  store double %13, ptr %117, align 8, !tbaa !5
  %118 = getelementptr inbounds %"class.dealii::Point", ptr %9, i64 34, i32 0, i32 0, i64 2
  store double %2, ptr %118, align 8, !tbaa !5
  %119 = getelementptr inbounds %"class.dealii::Point", ptr %9, i64 35
  store double %14, ptr %119, align 8, !tbaa !5
  %120 = getelementptr inbounds %"class.dealii::Point", ptr %9, i64 35, i32 0, i32 0, i64 1
  store double %13, ptr %120, align 8, !tbaa !5
  %121 = getelementptr inbounds %"class.dealii::Point", ptr %9, i64 35, i32 0, i32 0, i64 2
  store double %2, ptr %121, align 8, !tbaa !5
  %122 = getelementptr inbounds %"class.dealii::Point", ptr %9, i64 36
  store double %13, ptr %122, align 8, !tbaa !5
  %123 = getelementptr inbounds %"class.dealii::Point", ptr %9, i64 36, i32 0, i32 0, i64 1
  store double %1, ptr %123, align 8, !tbaa !5
  %124 = getelementptr inbounds %"class.dealii::Point", ptr %9, i64 36, i32 0, i32 0, i64 2
  store double %2, ptr %124, align 8, !tbaa !5
  %125 = getelementptr inbounds %"class.dealii::Point", ptr %9, i64 37
  store double %1, ptr %125, align 8, !tbaa !5
  %126 = getelementptr inbounds %"class.dealii::Point", ptr %9, i64 37, i32 0, i32 0, i64 1
  store double %1, ptr %126, align 8, !tbaa !5
  %127 = getelementptr inbounds %"class.dealii::Point", ptr %9, i64 37, i32 0, i32 0, i64 2
  store double %2, ptr %127, align 8, !tbaa !5
  %128 = getelementptr inbounds %"class.dealii::Point", ptr %9, i64 38
  store double %2, ptr %128, align 8, !tbaa !5
  %129 = getelementptr inbounds %"class.dealii::Point", ptr %9, i64 38, i32 0, i32 0, i64 1
  store double %1, ptr %129, align 8, !tbaa !5
  %130 = getelementptr inbounds %"class.dealii::Point", ptr %9, i64 38, i32 0, i32 0, i64 2
  store double %2, ptr %130, align 8, !tbaa !5
  %131 = getelementptr inbounds %"class.dealii::Point", ptr %9, i64 39
  store double %14, ptr %131, align 8, !tbaa !5
  %132 = getelementptr inbounds %"class.dealii::Point", ptr %9, i64 39, i32 0, i32 0, i64 1
  store double %1, ptr %132, align 8, !tbaa !5
  %133 = getelementptr inbounds %"class.dealii::Point", ptr %9, i64 39, i32 0, i32 0, i64 2
  store double %2, ptr %133, align 8, !tbaa !5
  %134 = getelementptr inbounds %"class.dealii::Point", ptr %9, i64 40
  store double %13, ptr %134, align 8, !tbaa !5
  %135 = getelementptr inbounds %"class.dealii::Point", ptr %9, i64 40, i32 0, i32 0, i64 1
  store double %2, ptr %135, align 8, !tbaa !5
  %136 = getelementptr inbounds %"class.dealii::Point", ptr %9, i64 40, i32 0, i32 0, i64 2
  store double %2, ptr %136, align 8, !tbaa !5
  %137 = getelementptr inbounds %"class.dealii::Point", ptr %9, i64 41
  store double %1, ptr %137, align 8, !tbaa !5
  %138 = getelementptr inbounds %"class.dealii::Point", ptr %9, i64 41, i32 0, i32 0, i64 1
  store double %2, ptr %138, align 8, !tbaa !5
  %139 = getelementptr inbounds %"class.dealii::Point", ptr %9, i64 41, i32 0, i32 0, i64 2
  store double %2, ptr %139, align 8, !tbaa !5
  %140 = getelementptr inbounds %"class.dealii::Point", ptr %9, i64 42
  store double %2, ptr %140, align 8, !tbaa !5
  %141 = getelementptr inbounds %"class.dealii::Point", ptr %9, i64 42, i32 0, i32 0, i64 1
  store double %2, ptr %141, align 8, !tbaa !5
  %142 = getelementptr inbounds %"class.dealii::Point", ptr %9, i64 42, i32 0, i32 0, i64 2
  store double %2, ptr %142, align 8, !tbaa !5
  %143 = getelementptr inbounds %"class.dealii::Point", ptr %9, i64 43
  store double %14, ptr %143, align 8, !tbaa !5
  %144 = getelementptr inbounds %"class.dealii::Point", ptr %9, i64 43, i32 0, i32 0, i64 1
  store double %2, ptr %144, align 8, !tbaa !5
  %145 = getelementptr inbounds %"class.dealii::Point", ptr %9, i64 43, i32 0, i32 0, i64 2
  store double %2, ptr %145, align 8, !tbaa !5
  %146 = getelementptr inbounds %"class.dealii::Point", ptr %9, i64 44
  store double %13, ptr %146, align 8, !tbaa !5
  %147 = getelementptr inbounds %"class.dealii::Point", ptr %9, i64 44, i32 0, i32 0, i64 1
  store double %14, ptr %147, align 8, !tbaa !5
  %148 = getelementptr inbounds %"class.dealii::Point", ptr %9, i64 44, i32 0, i32 0, i64 2
  store double %2, ptr %148, align 8, !tbaa !5
  %149 = getelementptr inbounds %"class.dealii::Point", ptr %9, i64 45
  store double %1, ptr %149, align 8, !tbaa !5
  %150 = getelementptr inbounds %"class.dealii::Point", ptr %9, i64 45, i32 0, i32 0, i64 1
  store double %14, ptr %150, align 8, !tbaa !5
  %151 = getelementptr inbounds %"class.dealii::Point", ptr %9, i64 45, i32 0, i32 0, i64 2
  store double %2, ptr %151, align 8, !tbaa !5
  %152 = getelementptr inbounds %"class.dealii::Point", ptr %9, i64 46
  store double %2, ptr %152, align 8, !tbaa !5
  %153 = getelementptr inbounds %"class.dealii::Point", ptr %9, i64 46, i32 0, i32 0, i64 1
  store double %14, ptr %153, align 8, !tbaa !5
  %154 = getelementptr inbounds %"class.dealii::Point", ptr %9, i64 46, i32 0, i32 0, i64 2
  store double %2, ptr %154, align 8, !tbaa !5
  %155 = getelementptr inbounds %"class.dealii::Point", ptr %9, i64 47
  store double %14, ptr %155, align 8, !tbaa !5
  %156 = getelementptr inbounds %"class.dealii::Point", ptr %9, i64 47, i32 0, i32 0, i64 1
  store double %14, ptr %156, align 8, !tbaa !5
  %157 = getelementptr inbounds %"class.dealii::Point", ptr %9, i64 47, i32 0, i32 0, i64 2
  store double %2, ptr %157, align 8, !tbaa !5
  %158 = getelementptr inbounds %"class.dealii::Point", ptr %9, i64 48
  store double %13, ptr %158, align 8, !tbaa !5
  %159 = getelementptr inbounds %"class.dealii::Point", ptr %9, i64 48, i32 0, i32 0, i64 1
  store double %13, ptr %159, align 8, !tbaa !5
  %160 = getelementptr inbounds %"class.dealii::Point", ptr %9, i64 48, i32 0, i32 0, i64 2
  store double %14, ptr %160, align 8, !tbaa !5
  %161 = getelementptr inbounds %"class.dealii::Point", ptr %9, i64 49
  store double %1, ptr %161, align 8, !tbaa !5
  %162 = getelementptr inbounds %"class.dealii::Point", ptr %9, i64 49, i32 0, i32 0, i64 1
  store double %13, ptr %162, align 8, !tbaa !5
  %163 = getelementptr inbounds %"class.dealii::Point", ptr %9, i64 49, i32 0, i32 0, i64 2
  store double %14, ptr %163, align 8, !tbaa !5
  %164 = getelementptr inbounds %"class.dealii::Point", ptr %9, i64 50
  store double %2, ptr %164, align 8, !tbaa !5
  %165 = getelementptr inbounds %"class.dealii::Point", ptr %9, i64 50, i32 0, i32 0, i64 1
  store double %13, ptr %165, align 8, !tbaa !5
  %166 = getelementptr inbounds %"class.dealii::Point", ptr %9, i64 50, i32 0, i32 0, i64 2
  store double %14, ptr %166, align 8, !tbaa !5
  %167 = getelementptr inbounds %"class.dealii::Point", ptr %9, i64 51
  store double %14, ptr %167, align 8, !tbaa !5
  %168 = getelementptr inbounds %"class.dealii::Point", ptr %9, i64 51, i32 0, i32 0, i64 1
  store double %13, ptr %168, align 8, !tbaa !5
  %169 = getelementptr inbounds %"class.dealii::Point", ptr %9, i64 51, i32 0, i32 0, i64 2
  store double %14, ptr %169, align 8, !tbaa !5
  %170 = getelementptr inbounds %"class.dealii::Point", ptr %9, i64 52
  store double %13, ptr %170, align 8, !tbaa !5
  %171 = getelementptr inbounds %"class.dealii::Point", ptr %9, i64 52, i32 0, i32 0, i64 1
  store double %1, ptr %171, align 8, !tbaa !5
  %172 = getelementptr inbounds %"class.dealii::Point", ptr %9, i64 52, i32 0, i32 0, i64 2
  store double %14, ptr %172, align 8, !tbaa !5
  %173 = getelementptr inbounds %"class.dealii::Point", ptr %9, i64 53
  store double %1, ptr %173, align 8, !tbaa !5
  %174 = getelementptr inbounds %"class.dealii::Point", ptr %9, i64 53, i32 0, i32 0, i64 1
  store double %1, ptr %174, align 8, !tbaa !5
  %175 = getelementptr inbounds %"class.dealii::Point", ptr %9, i64 53, i32 0, i32 0, i64 2
  store double %14, ptr %175, align 8, !tbaa !5
  %176 = getelementptr inbounds %"class.dealii::Point", ptr %9, i64 54
  store double %2, ptr %176, align 8, !tbaa !5
  %177 = getelementptr inbounds %"class.dealii::Point", ptr %9, i64 54, i32 0, i32 0, i64 1
  store double %1, ptr %177, align 8, !tbaa !5
  %178 = getelementptr inbounds %"class.dealii::Point", ptr %9, i64 54, i32 0, i32 0, i64 2
  store double %14, ptr %178, align 8, !tbaa !5
  %179 = getelementptr inbounds %"class.dealii::Point", ptr %9, i64 55
  store double %14, ptr %179, align 8, !tbaa !5
  %180 = getelementptr inbounds %"class.dealii::Point", ptr %9, i64 55, i32 0, i32 0, i64 1
  store double %1, ptr %180, align 8, !tbaa !5
  %181 = getelementptr inbounds %"class.dealii::Point", ptr %9, i64 55, i32 0, i32 0, i64 2
  store double %14, ptr %181, align 8, !tbaa !5
  %182 = getelementptr inbounds %"class.dealii::Point", ptr %9, i64 56
  store double %13, ptr %182, align 8, !tbaa !5
  %183 = getelementptr inbounds %"class.dealii::Point", ptr %9, i64 56, i32 0, i32 0, i64 1
  store double %2, ptr %183, align 8, !tbaa !5
  %184 = getelementptr inbounds %"class.dealii::Point", ptr %9, i64 56, i32 0, i32 0, i64 2
  store double %14, ptr %184, align 8, !tbaa !5
  %185 = getelementptr inbounds %"class.dealii::Point", ptr %9, i64 57
  store double %1, ptr %185, align 8, !tbaa !5
  %186 = getelementptr inbounds %"class.dealii::Point", ptr %9, i64 57, i32 0, i32 0, i64 1
  store double %2, ptr %186, align 8, !tbaa !5
  %187 = getelementptr inbounds %"class.dealii::Point", ptr %9, i64 57, i32 0, i32 0, i64 2
  store double %14, ptr %187, align 8, !tbaa !5
  %188 = getelementptr inbounds %"class.dealii::Point", ptr %9, i64 58
  store double %2, ptr %188, align 8, !tbaa !5
  %189 = getelementptr inbounds %"class.dealii::Point", ptr %9, i64 58, i32 0, i32 0, i64 1
  store double %2, ptr %189, align 8, !tbaa !5
  %190 = getelementptr inbounds %"class.dealii::Point", ptr %9, i64 58, i32 0, i32 0, i64 2
  store double %14, ptr %190, align 8, !tbaa !5
  %191 = getelementptr inbounds %"class.dealii::Point", ptr %9, i64 59
  store double %14, ptr %191, align 8, !tbaa !5
  %192 = getelementptr inbounds %"class.dealii::Point", ptr %9, i64 59, i32 0, i32 0, i64 1
  store double %2, ptr %192, align 8, !tbaa !5
  %193 = getelementptr inbounds %"class.dealii::Point", ptr %9, i64 59, i32 0, i32 0, i64 2
  store double %14, ptr %193, align 8, !tbaa !5
  %194 = getelementptr inbounds %"class.dealii::Point", ptr %9, i64 60
  store double %13, ptr %194, align 8, !tbaa !5
  %195 = getelementptr inbounds %"class.dealii::Point", ptr %9, i64 60, i32 0, i32 0, i64 1
  store double %14, ptr %195, align 8, !tbaa !5
  %196 = getelementptr inbounds %"class.dealii::Point", ptr %9, i64 60, i32 0, i32 0, i64 2
  store double %14, ptr %196, align 8, !tbaa !5
  %197 = getelementptr inbounds %"class.dealii::Point", ptr %9, i64 61
  store double %1, ptr %197, align 8, !tbaa !5
  %198 = getelementptr inbounds %"class.dealii::Point", ptr %9, i64 61, i32 0, i32 0, i64 1
  store double %14, ptr %198, align 8, !tbaa !5
  %199 = getelementptr inbounds %"class.dealii::Point", ptr %9, i64 61, i32 0, i32 0, i64 2
  store double %14, ptr %199, align 8, !tbaa !5
  %200 = getelementptr inbounds %"class.dealii::Point", ptr %9, i64 62
  store double %2, ptr %200, align 8, !tbaa !5
  %201 = getelementptr inbounds %"class.dealii::Point", ptr %9, i64 62, i32 0, i32 0, i64 1
  store double %14, ptr %201, align 8, !tbaa !5
  %202 = getelementptr inbounds %"class.dealii::Point", ptr %9, i64 62, i32 0, i32 0, i64 2
  store double %14, ptr %202, align 8, !tbaa !5
  %203 = getelementptr inbounds %"class.dealii::Point", ptr %9, i64 63
  store double %14, ptr %203, align 8, !tbaa !5
  %204 = getelementptr inbounds %"class.dealii::Point", ptr %9, i64 63, i32 0, i32 0, i64 1
  store double %14, ptr %204, align 8, !tbaa !5
  %205 = getelementptr inbounds %"class.dealii::Point", ptr %9, i64 63, i32 0, i32 0, i64 2
  store double %14, ptr %205, align 8, !tbaa !5
  call void @llvm.lifetime.start.p0(i64 24, ptr nonnull %7) #23
  %206 = invoke noalias noundef nonnull dereferenceable(972) ptr @_Znwm(i64 noundef 972) #24
          to label %207 unwind label %266

207:                                              ; preds = %5
  store ptr %206, ptr %7, align 8, !tbaa !14
  %208 = getelementptr inbounds %"struct.std::_Vector_base<dealii::CellData<3>, std::allocator<dealii::CellData<3> > >::_Vector_impl_data", ptr %7, i64 0, i32 1
  %209 = getelementptr inbounds %"struct.dealii::CellData", ptr %206, i64 27
  %210 = getelementptr inbounds %"struct.std::_Vector_base<dealii::CellData<3>, std::allocator<dealii::CellData<3> > >::_Vector_impl_data", ptr %7, i64 0, i32 2
  store ptr %209, ptr %210, align 8, !tbaa !16
  %211 = getelementptr inbounds %"struct.dealii::CellData", ptr %206, i64 1
  %212 = getelementptr inbounds %"struct.dealii::CellData", ptr %206, i64 2
  %213 = getelementptr inbounds %"struct.dealii::CellData", ptr %206, i64 3
  %214 = getelementptr inbounds %"struct.dealii::CellData", ptr %206, i64 4
  %215 = getelementptr inbounds %"struct.dealii::CellData", ptr %206, i64 5
  %216 = getelementptr inbounds %"struct.dealii::CellData", ptr %206, i64 6
  %217 = getelementptr inbounds %"struct.dealii::CellData", ptr %206, i64 7
  %218 = getelementptr inbounds %"struct.dealii::CellData", ptr %206, i64 8
  %219 = getelementptr inbounds %"struct.dealii::CellData", ptr %206, i64 9
  %220 = getelementptr inbounds %"struct.dealii::CellData", ptr %206, i64 10
  %221 = getelementptr inbounds %"struct.dealii::CellData", ptr %206, i64 11
  %222 = getelementptr inbounds %"struct.dealii::CellData", ptr %206, i64 12
  %223 = getelementptr inbounds %"struct.dealii::CellData", ptr %206, i64 13
  %224 = getelementptr inbounds %"struct.dealii::CellData", ptr %206, i64 14
  %225 = getelementptr inbounds %"struct.dealii::CellData", ptr %206, i64 15
  %226 = getelementptr inbounds %"struct.dealii::CellData", ptr %206, i64 16
  %227 = getelementptr inbounds %"struct.dealii::CellData", ptr %206, i64 17
  %228 = getelementptr inbounds %"struct.dealii::CellData", ptr %206, i64 18
  %229 = getelementptr inbounds %"struct.dealii::CellData", ptr %206, i64 19
  %230 = getelementptr inbounds %"struct.dealii::CellData", ptr %206, i64 20
  %231 = getelementptr inbounds %"struct.dealii::CellData", ptr %206, i64 21
  %232 = getelementptr inbounds %"struct.dealii::CellData", ptr %206, i64 22
  %233 = getelementptr inbounds %"struct.dealii::CellData", ptr %206, i64 23
  %234 = getelementptr inbounds %"struct.dealii::CellData", ptr %206, i64 24
  %235 = getelementptr inbounds %"struct.dealii::CellData", ptr %206, i64 25
  %236 = getelementptr inbounds %"struct.dealii::CellData", ptr %206, i64 26
  tail call void @llvm.memset.p0.i64(ptr noundef nonnull align 4 dereferenceable(972) %206, i8 0, i64 972, i1 false)
  store ptr %209, ptr %208, align 8, !tbaa !17
  store <8 x i32> <i32 0, i32 1, i32 4, i32 5, i32 16, i32 17, i32 20, i32 21>, ptr %206, align 4, !tbaa !18
  br i1 %4, label %238, label %237

237:                                              ; preds = %207
  store <8 x i32> <i32 1, i32 2, i32 5, i32 6, i32 17, i32 18, i32 21, i32 22>, ptr %211, align 4, !tbaa !18
  store <8 x i32> <i32 2, i32 3, i32 6, i32 7, i32 18, i32 19, i32 22, i32 23>, ptr %212, align 4, !tbaa !18
  store <8 x i32> <i32 4, i32 5, i32 8, i32 9, i32 20, i32 21, i32 24, i32 25>, ptr %213, align 4, !tbaa !18
  store <8 x i32> <i32 5, i32 6, i32 9, i32 10, i32 21, i32 22, i32 25, i32 26>, ptr %214, align 4, !tbaa !18
  store <8 x i32> <i32 6, i32 7, i32 10, i32 11, i32 22, i32 23, i32 26, i32 27>, ptr %215, align 4, !tbaa !18
  store <8 x i32> <i32 8, i32 9, i32 12, i32 13, i32 24, i32 25, i32 28, i32 29>, ptr %216, align 4, !tbaa !18
  store <8 x i32> <i32 9, i32 10, i32 13, i32 14, i32 25, i32 26, i32 29, i32 30>, ptr %217, align 4, !tbaa !18
  store <8 x i32> <i32 10, i32 11, i32 14, i32 15, i32 26, i32 27, i32 30, i32 31>, ptr %218, align 4, !tbaa !18
  store <8 x i32> <i32 16, i32 17, i32 20, i32 21, i32 32, i32 33, i32 36, i32 37>, ptr %219, align 4, !tbaa !18
  store <8 x i32> <i32 17, i32 18, i32 21, i32 22, i32 33, i32 34, i32 37, i32 38>, ptr %220, align 4, !tbaa !18
  store <8 x i32> <i32 18, i32 19, i32 22, i32 23, i32 34, i32 35, i32 38, i32 39>, ptr %221, align 4, !tbaa !18
  store <8 x i32> <i32 20, i32 21, i32 24, i32 25, i32 36, i32 37, i32 40, i32 41>, ptr %222, align 4, !tbaa !18
  store <8 x i32> <i32 21, i32 22, i32 25, i32 26, i32 37, i32 38, i32 41, i32 42>, ptr %223, align 4, !tbaa !18
  store <8 x i32> <i32 22, i32 23, i32 26, i32 27, i32 38, i32 39, i32 42, i32 43>, ptr %224, align 4, !tbaa !18
  store <8 x i32> <i32 24, i32 25, i32 28, i32 29, i32 40, i32 41, i32 44, i32 45>, ptr %225, align 4, !tbaa !18
  store <8 x i32> <i32 25, i32 26, i32 29, i32 30, i32 41, i32 42, i32 45, i32 46>, ptr %226, align 4, !tbaa !18
  store <8 x i32> <i32 26, i32 27, i32 30, i32 31, i32 42, i32 43, i32 46, i32 47>, ptr %227, align 4, !tbaa !18
  store <8 x i32> <i32 32, i32 33, i32 36, i32 37, i32 48, i32 49, i32 52, i32 53>, ptr %228, align 4, !tbaa !18
  store <8 x i32> <i32 33, i32 34, i32 37, i32 38, i32 49, i32 50, i32 53, i32 54>, ptr %229, align 4, !tbaa !18
  store <8 x i32> <i32 34, i32 35, i32 38, i32 39, i32 50, i32 51, i32 54, i32 55>, ptr %230, align 4, !tbaa !18
  store <8 x i32> <i32 36, i32 37, i32 40, i32 41, i32 52, i32 53, i32 56, i32 57>, ptr %231, align 4, !tbaa !18
  store <8 x i32> <i32 37, i32 38, i32 41, i32 42, i32 53, i32 54, i32 57, i32 58>, ptr %232, align 4, !tbaa !18
  store <8 x i32> <i32 38, i32 39, i32 42, i32 43, i32 54, i32 55, i32 58, i32 59>, ptr %233, align 4, !tbaa !18
  store <8 x i32> <i32 40, i32 41, i32 44, i32 45, i32 56, i32 57, i32 60, i32 61>, ptr %234, align 4, !tbaa !18
  store <8 x i32> <i32 41, i32 42, i32 45, i32 46, i32 57, i32 58, i32 61, i32 62>, ptr %235, align 4, !tbaa !18
  store <8 x i32> <i32 42, i32 43, i32 46, i32 47, i32 58, i32 59, i32 62, i32 63>, ptr %236, align 4, !tbaa !18
  br label %268

238:                                              ; preds = %207
  %239 = getelementptr inbounds %"struct.dealii::CellData", ptr %206, i64 0, i32 1
  store i8 21, ptr %239, align 4, !tbaa !20
  store <8 x i32> <i32 1, i32 2, i32 5, i32 6, i32 17, i32 18, i32 21, i32 22>, ptr %211, align 4, !tbaa !18
  %240 = getelementptr inbounds %"struct.dealii::CellData", ptr %206, i64 1, i32 1
  store i8 20, ptr %240, align 4, !tbaa !20
  store <8 x i32> <i32 2, i32 3, i32 6, i32 7, i32 18, i32 19, i32 22, i32 23>, ptr %212, align 4, !tbaa !18
  %241 = getelementptr inbounds %"struct.dealii::CellData", ptr %206, i64 2, i32 1
  store i8 22, ptr %241, align 4, !tbaa !20
  store <8 x i32> <i32 4, i32 5, i32 8, i32 9, i32 20, i32 21, i32 24, i32 25>, ptr %213, align 4, !tbaa !18
  %242 = getelementptr inbounds %"struct.dealii::CellData", ptr %206, i64 3, i32 1
  store i8 17, ptr %242, align 4, !tbaa !20
  store <8 x i32> <i32 5, i32 6, i32 9, i32 10, i32 21, i32 22, i32 25, i32 26>, ptr %214, align 4, !tbaa !18
  %243 = getelementptr inbounds %"struct.dealii::CellData", ptr %206, i64 4, i32 1
  store i8 16, ptr %243, align 4, !tbaa !20
  store <8 x i32> <i32 6, i32 7, i32 10, i32 11, i32 22, i32 23, i32 26, i32 27>, ptr %215, align 4, !tbaa !18
  %244 = getelementptr inbounds %"struct.dealii::CellData", ptr %206, i64 5, i32 1
  store i8 18, ptr %244, align 4, !tbaa !20
  store <8 x i32> <i32 8, i32 9, i32 12, i32 13, i32 24, i32 25, i32 28, i32 29>, ptr %216, align 4, !tbaa !18
  %245 = getelementptr inbounds %"struct.dealii::CellData", ptr %206, i64 6, i32 1
  store i8 25, ptr %245, align 4, !tbaa !20
  store <8 x i32> <i32 9, i32 10, i32 13, i32 14, i32 25, i32 26, i32 29, i32 30>, ptr %217, align 4, !tbaa !18
  %246 = getelementptr inbounds %"struct.dealii::CellData", ptr %206, i64 7, i32 1
  store i8 24, ptr %246, align 4, !tbaa !20
  store <8 x i32> <i32 10, i32 11, i32 14, i32 15, i32 26, i32 27, i32 30, i32 31>, ptr %218, align 4, !tbaa !18
  %247 = getelementptr inbounds %"struct.dealii::CellData", ptr %206, i64 8, i32 1
  store i8 26, ptr %247, align 4, !tbaa !20
  store <8 x i32> <i32 16, i32 17, i32 20, i32 21, i32 32, i32 33, i32 36, i32 37>, ptr %219, align 4, !tbaa !18
  %248 = getelementptr inbounds %"struct.dealii::CellData", ptr %206, i64 9, i32 1
  store i8 5, ptr %248, align 4, !tbaa !20
  store <8 x i32> <i32 17, i32 18, i32 21, i32 22, i32 33, i32 34, i32 37, i32 38>, ptr %220, align 4, !tbaa !18
  %249 = getelementptr inbounds %"struct.dealii::CellData", ptr %206, i64 10, i32 1
  store i8 4, ptr %249, align 4, !tbaa !20
  store <8 x i32> <i32 18, i32 19, i32 22, i32 23, i32 34, i32 35, i32 38, i32 39>, ptr %221, align 4, !tbaa !18
  %250 = getelementptr inbounds %"struct.dealii::CellData", ptr %206, i64 11, i32 1
  store i8 6, ptr %250, align 4, !tbaa !20
  store <8 x i32> <i32 20, i32 21, i32 24, i32 25, i32 36, i32 37, i32 40, i32 41>, ptr %222, align 4, !tbaa !18
  %251 = getelementptr inbounds %"struct.dealii::CellData", ptr %206, i64 12, i32 1
  store i8 1, ptr %251, align 4, !tbaa !20
  store <8 x i32> <i32 21, i32 22, i32 25, i32 26, i32 37, i32 38, i32 41, i32 42>, ptr %223, align 4, !tbaa !18
  %252 = getelementptr inbounds %"struct.dealii::CellData", ptr %206, i64 13, i32 1
  store i8 0, ptr %252, align 4, !tbaa !20
  store <8 x i32> <i32 22, i32 23, i32 26, i32 27, i32 38, i32 39, i32 42, i32 43>, ptr %224, align 4, !tbaa !18
  %253 = getelementptr inbounds %"struct.dealii::CellData", ptr %206, i64 14, i32 1
  store i8 2, ptr %253, align 4, !tbaa !20
  store <8 x i32> <i32 24, i32 25, i32 28, i32 29, i32 40, i32 41, i32 44, i32 45>, ptr %225, align 4, !tbaa !18
  %254 = getelementptr inbounds %"struct.dealii::CellData", ptr %206, i64 15, i32 1
  store i8 9, ptr %254, align 4, !tbaa !20
  store <8 x i32> <i32 25, i32 26, i32 29, i32 30, i32 41, i32 42, i32 45, i32 46>, ptr %226, align 4, !tbaa !18
  %255 = getelementptr inbounds %"struct.dealii::CellData", ptr %206, i64 16, i32 1
  store i8 8, ptr %255, align 4, !tbaa !20
  store <8 x i32> <i32 26, i32 27, i32 30, i32 31, i32 42, i32 43, i32 46, i32 47>, ptr %227, align 4, !tbaa !18
  %256 = getelementptr inbounds %"struct.dealii::CellData", ptr %206, i64 17, i32 1
  store i8 10, ptr %256, align 4, !tbaa !20
  store <8 x i32> <i32 32, i32 33, i32 36, i32 37, i32 48, i32 49, i32 52, i32 53>, ptr %228, align 4, !tbaa !18
  %257 = getelementptr inbounds %"struct.dealii::CellData", ptr %206, i64 18, i32 1
  store i8 37, ptr %257, align 4, !tbaa !20
  store <8 x i32> <i32 33, i32 34, i32 37, i32 38, i32 49, i32 50, i32 53, i32 54>, ptr %229, align 4, !tbaa !18
  %258 = getelementptr inbounds %"struct.dealii::CellData", ptr %206, i64 19, i32 1
  store i8 36, ptr %258, align 4, !tbaa !20
  store <8 x i32> <i32 34, i32 35, i32 38, i32 39, i32 50, i32 51, i32 54, i32 55>, ptr %230, align 4, !tbaa !18
  %259 = getelementptr inbounds %"struct.dealii::CellData", ptr %206, i64 20, i32 1
  store i8 38, ptr %259, align 4, !tbaa !20
  store <8 x i32> <i32 36, i32 37, i32 40, i32 41, i32 52, i32 53, i32 56, i32 57>, ptr %231, align 4, !tbaa !18
  %260 = getelementptr inbounds %"struct.dealii::CellData", ptr %206, i64 21, i32 1
  store i8 33, ptr %260, align 4, !tbaa !20
  store <8 x i32> <i32 37, i32 38, i32 41, i32 42, i32 53, i32 54, i32 57, i32 58>, ptr %232, align 4, !tbaa !18
  %261 = getelementptr inbounds %"struct.dealii::CellData", ptr %206, i64 22, i32 1
  store i8 32, ptr %261, align 4, !tbaa !20
  store <8 x i32> <i32 38, i32 39, i32 42, i32 43, i32 54, i32 55, i32 58, i32 59>, ptr %233, align 4, !tbaa !18
  %262 = getelementptr inbounds %"struct.dealii::CellData", ptr %206, i64 23, i32 1
  store i8 34, ptr %262, align 4, !tbaa !20
  store <8 x i32> <i32 40, i32 41, i32 44, i32 45, i32 56, i32 57, i32 60, i32 61>, ptr %234, align 4, !tbaa !18
  %263 = getelementptr inbounds %"struct.dealii::CellData", ptr %206, i64 24, i32 1
  store i8 41, ptr %263, align 4, !tbaa !20
  store <8 x i32> <i32 41, i32 42, i32 45, i32 46, i32 57, i32 58, i32 61, i32 62>, ptr %235, align 4, !tbaa !18
  %264 = getelementptr inbounds %"struct.dealii::CellData", ptr %206, i64 25, i32 1
  store i8 40, ptr %264, align 4, !tbaa !20
  store <8 x i32> <i32 42, i32 43, i32 46, i32 47, i32 58, i32 59, i32 62, i32 63>, ptr %236, align 4, !tbaa !18
  %265 = getelementptr inbounds %"struct.dealii::CellData", ptr %206, i64 26, i32 1
  store i8 42, ptr %265, align 4, !tbaa !20
  br label %268

266:                                              ; preds = %5
  %267 = landingpad { ptr, i32 }
          cleanup
  br label %296

268:                                              ; preds = %237, %238
  call void @llvm.lifetime.start.p0(i64 48, ptr nonnull %8) #23
  call void @llvm.memset.p0.i64(ptr noundef nonnull align 8 dereferenceable(48) %8, i8 0, i64 48, i1 false)
  %269 = load ptr, ptr %0, align 8, !tbaa !22
  %270 = getelementptr inbounds ptr, ptr %269, i64 3
  %271 = load ptr, ptr %270, align 8
  invoke void %271(ptr noundef nonnull align 8 dereferenceable(8552) %0, ptr noundef nonnull align 8 dereferenceable(24) %6, ptr noundef nonnull align 8 dereferenceable(24) %7, ptr noundef nonnull align 8 dereferenceable(48) %8)
          to label %272 unwind label %290

272:                                              ; preds = %268
  %273 = getelementptr inbounds %"struct.dealii::SubCellData", ptr %8, i64 0, i32 1
  %274 = load ptr, ptr %273, align 8, !tbaa !24
  %275 = icmp eq ptr %274, null
  br i1 %275, label %277, label %276

276:                                              ; preds = %272
  call void @_ZdlPv(ptr noundef nonnull %274) #25
  br label %277

277:                                              ; preds = %276, %272
  %278 = load ptr, ptr %8, align 8, !tbaa !26
  %279 = icmp eq ptr %278, null
  br i1 %279, label %281, label %280

280:                                              ; preds = %277
  call void @_ZdlPv(ptr noundef nonnull %278) #25
  br label %281

281:                                              ; preds = %280, %277
  call void @llvm.lifetime.end.p0(i64 48, ptr nonnull %8) #23
  %282 = load ptr, ptr %7, align 8, !tbaa !14
  %283 = icmp eq ptr %282, null
  br i1 %283, label %285, label %284

284:                                              ; preds = %281
  call void @_ZdlPv(ptr noundef nonnull %282) #25
  br label %285

285:                                              ; preds = %284, %281
  call void @llvm.lifetime.end.p0(i64 24, ptr nonnull %7) #23
  %286 = load ptr, ptr %6, align 8, !tbaa !9
  %287 = icmp eq ptr %286, null
  br i1 %287, label %289, label %288

288:                                              ; preds = %285
  call void @_ZdlPv(ptr noundef nonnull %286) #25
  br label %289

289:                                              ; preds = %285, %288
  call void @llvm.lifetime.end.p0(i64 24, ptr nonnull %6) #23
  ret void

290:                                              ; preds = %268
  %291 = landingpad { ptr, i32 }
          cleanup
  invoke void @_ZN6dealii11SubCellDataD2Ev(ptr noundef nonnull align 8 dereferenceable(48) %8)
          to label %292 unwind label %302

292:                                              ; preds = %290
  call void @llvm.lifetime.end.p0(i64 48, ptr nonnull %8) #23
  %293 = load ptr, ptr %7, align 8, !tbaa !14
  %294 = icmp eq ptr %293, null
  br i1 %294, label %296, label %295

295:                                              ; preds = %292
  call void @_ZdlPv(ptr noundef nonnull %293) #25
  br label %296

296:                                              ; preds = %295, %292, %266
  %297 = phi { ptr, i32 } [ %267, %266 ], [ %291, %292 ], [ %291, %295 ]
  call void @llvm.lifetime.end.p0(i64 24, ptr nonnull %7) #23
  %298 = load ptr, ptr %6, align 8, !tbaa !9
  %299 = icmp eq ptr %298, null
  br i1 %299, label %301, label %300

300:                                              ; preds = %296
  call void @_ZdlPv(ptr noundef nonnull %298) #25
  br label %301

301:                                              ; preds = %300, %296
  call void @llvm.lifetime.end.p0(i64 24, ptr nonnull %6) #23
  resume { ptr, i32 } %297

302:                                              ; preds = %290
  %303 = landingpad { ptr, i32 }
          catch ptr null
  %304 = extractvalue { ptr, i32 } %303, 0
  call void @__clang_call_terminate(ptr %304) #26
  unreachable
}

; Function Attrs: mustprogress nocallback nofree nounwind willreturn memory(argmem: readwrite)
declare void @llvm.memcpy.p0.p0.i64(ptr noalias nocapture writeonly, ptr noalias nocapture readonly, i64, i1 immarg) #6

; Function Attrs: sspstrong uwtable
define weak_odr dso_local void @_ZN6dealii13GridGenerator10hyper_ballILi3EEEvRNS_13TriangulationIXT_EXT_EEERKNS_5PointIXT_EEEd(ptr noundef nonnull align 8 dereferenceable(8552) %0, ptr noundef nonnull align 8 dereferenceable(24) %1, double noundef %2) local_unnamed_addr #0 comdat align 2 personality ptr @__gxx_personality_v0 {
  %4 = alloca %"class.std::vector.38", align 8
  %5 = alloca %"class.std::vector.19", align 8
  %6 = alloca %"struct.dealii::SubCellData", align 8
  %7 = load double, ptr %1, align 8, !tbaa !5, !noalias !133
  %8 = getelementptr inbounds [3 x double], ptr %1, i64 0, i64 1
  %9 = load double, ptr %8, align 8, !tbaa !5, !noalias !133
  %10 = getelementptr inbounds [3 x double], ptr %1, i64 0, i64 2
  %11 = load double, ptr %10, align 8, !tbaa !5, !noalias !133
  call void @llvm.lifetime.start.p0(i64 24, ptr nonnull %4) #23
  %12 = tail call noalias noundef nonnull dereferenceable(252) ptr @_Znwm(i64 noundef 252) #24
  store ptr %12, ptr %4, align 8, !tbaa !14
  %13 = getelementptr inbounds %"struct.std::_Vector_base<dealii::CellData<3>, std::allocator<dealii::CellData<3> > >::_Vector_impl_data", ptr %4, i64 0, i32 1
  %14 = getelementptr inbounds %"struct.dealii::CellData", ptr %12, i64 7
  %15 = getelementptr inbounds %"struct.std::_Vector_base<dealii::CellData<3>, std::allocator<dealii::CellData<3> > >::_Vector_impl_data", ptr %4, i64 0, i32 2
  store ptr %14, ptr %15, align 8, !tbaa !16
  %16 = getelementptr inbounds %"struct.dealii::CellData", ptr %12, i64 1
  %17 = getelementptr inbounds %"struct.dealii::CellData", ptr %12, i64 2
  %18 = getelementptr inbounds %"struct.dealii::CellData", ptr %12, i64 3
  %19 = getelementptr inbounds %"struct.dealii::CellData", ptr %12, i64 4
  %20 = getelementptr inbounds %"struct.dealii::CellData", ptr %12, i64 5
  %21 = getelementptr inbounds %"struct.dealii::CellData", ptr %12, i64 6
  store ptr %14, ptr %13, align 8, !tbaa !17
  %22 = getelementptr inbounds i8, ptr %12, i64 32
  store i32 0, ptr %22, align 4
  tail call void @llvm.memcpy.p0.p0.i64(ptr noundef nonnull align 4 dereferenceable(32) %12, ptr noundef nonnull align 16 dereferenceable(32) @__const._ZN6dealii13GridGenerator10hyper_ballILi3EEEvRNS_13TriangulationIXT_EXT_EEERKNS_5PointIXT_EEEd.cell_vertices, i64 32, i1 false), !tbaa !18
  %23 = getelementptr inbounds %"struct.dealii::CellData", ptr %12, i64 1, i32 1
  store i32 0, ptr %23, align 4
  tail call void @llvm.memcpy.p0.p0.i64(ptr noundef nonnull align 4 dereferenceable(32) %16, ptr noundef nonnull align 16 dereferenceable(32) getelementptr inbounds ([7 x [8 x i32]], ptr @__const._ZN6dealii13GridGenerator10hyper_ballILi3EEEvRNS_13TriangulationIXT_EXT_EEERKNS_5PointIXT_EEEd.cell_vertices, i64 0, i64 1, i64 0), i64 32, i1 false), !tbaa !18
  %24 = getelementptr inbounds %"struct.dealii::CellData", ptr %12, i64 2, i32 1
  store i32 0, ptr %24, align 4
  tail call void @llvm.memcpy.p0.p0.i64(ptr noundef nonnull align 4 dereferenceable(32) %17, ptr noundef nonnull align 16 dereferenceable(32) getelementptr inbounds ([7 x [8 x i32]], ptr @__const._ZN6dealii13GridGenerator10hyper_ballILi3EEEvRNS_13TriangulationIXT_EXT_EEERKNS_5PointIXT_EEEd.cell_vertices, i64 0, i64 2, i64 0), i64 32, i1 false), !tbaa !18
  %25 = getelementptr inbounds %"struct.dealii::CellData", ptr %12, i64 3, i32 1
  store i32 0, ptr %25, align 4
  tail call void @llvm.memcpy.p0.p0.i64(ptr noundef nonnull align 4 dereferenceable(32) %18, ptr noundef nonnull align 16 dereferenceable(32) getelementptr inbounds ([7 x [8 x i32]], ptr @__const._ZN6dealii13GridGenerator10hyper_ballILi3EEEvRNS_13TriangulationIXT_EXT_EEERKNS_5PointIXT_EEEd.cell_vertices, i64 0, i64 3, i64 0), i64 32, i1 false), !tbaa !18
  %26 = getelementptr inbounds %"struct.dealii::CellData", ptr %12, i64 4, i32 1
  store i32 0, ptr %26, align 4
  tail call void @llvm.memcpy.p0.p0.i64(ptr noundef nonnull align 4 dereferenceable(32) %19, ptr noundef nonnull align 16 dereferenceable(32) getelementptr inbounds ([7 x [8 x i32]], ptr @__const._ZN6dealii13GridGenerator10hyper_ballILi3EEEvRNS_13TriangulationIXT_EXT_EEERKNS_5PointIXT_EEEd.cell_vertices, i64 0, i64 4, i64 0), i64 32, i1 false), !tbaa !18
  %27 = getelementptr inbounds %"struct.dealii::CellData", ptr %12, i64 5, i32 1
  store i32 0, ptr %27, align 4
  tail call void @llvm.memcpy.p0.p0.i64(ptr noundef nonnull align 4 dereferenceable(32) %20, ptr noundef nonnull align 16 dereferenceable(32) getelementptr inbounds ([7 x [8 x i32]], ptr @__const._ZN6dealii13GridGenerator10hyper_ballILi3EEEvRNS_13TriangulationIXT_EXT_EEERKNS_5PointIXT_EEEd.cell_vertices, i64 0, i64 5, i64 0), i64 32, i1 false), !tbaa !18
  %28 = getelementptr inbounds %"struct.dealii::CellData", ptr %12, i64 6, i32 1
  store i32 0, ptr %28, align 4
  tail call void @llvm.memcpy.p0.p0.i64(ptr noundef nonnull align 4 dereferenceable(32) %21, ptr noundef nonnull align 16 dereferenceable(32) getelementptr inbounds ([7 x [8 x i32]], ptr @__const._ZN6dealii13GridGenerator10hyper_ballILi3EEEvRNS_13TriangulationIXT_EXT_EEERKNS_5PointIXT_EEEd.cell_vertices, i64 0, i64 6, i64 0), i64 32, i1 false), !tbaa !18
  call void @llvm.lifetime.start.p0(i64 24, ptr nonnull %5) #23
  %29 = invoke noalias noundef nonnull dereferenceable(384) ptr @_Znwm(i64 noundef 384) #24
          to label %30 unwind label %99

30:                                               ; preds = %3
  %31 = fdiv double %2, 0x3FFBB67AE8584CAA
  %32 = fadd double %31, %9
  %33 = fadd double %31, %11
  %34 = fadd double %31, %7
  %35 = fsub double %11, %31
  %36 = fsub double %9, %31
  %37 = fsub double %7, %31
  %38 = fmul double %31, 0x3FD76CF5D0B09955
  %39 = fadd double %38, %9
  %40 = fadd double %38, %11
  %41 = fadd double %38, %7
  %42 = fsub double %11, %38
  %43 = fsub double %9, %38
  %44 = fsub double %7, %38
  store ptr %29, ptr %5, align 8, !tbaa !9
  %45 = getelementptr inbounds %"class.dealii::Point", ptr %29, i64 16
  %46 = getelementptr inbounds %"struct.std::_Vector_base<dealii::Point<3>, std::allocator<dealii::Point<3> > >::_Vector_impl_data", ptr %5, i64 0, i32 2
  store ptr %45, ptr %46, align 8, !tbaa !12
  store double %44, ptr %29, align 8, !tbaa !5
  %47 = getelementptr inbounds [3 x double], ptr %29, i64 0, i64 1
  store double %43, ptr %47, align 8, !tbaa !5
  %48 = getelementptr inbounds [3 x double], ptr %29, i64 0, i64 2
  store double %42, ptr %48, align 8, !tbaa !5
  %49 = getelementptr inbounds %"class.dealii::Point", ptr %29, i64 1
  store double %41, ptr %49, align 8, !tbaa !5
  %50 = getelementptr inbounds %"class.dealii::Point", ptr %29, i64 1, i32 0, i32 0, i64 1
  store double %43, ptr %50, align 8, !tbaa !5
  %51 = getelementptr inbounds %"class.dealii::Point", ptr %29, i64 1, i32 0, i32 0, i64 2
  store double %42, ptr %51, align 8, !tbaa !5
  %52 = getelementptr inbounds %"class.dealii::Point", ptr %29, i64 2
  store double %41, ptr %52, align 8, !tbaa !5
  %53 = getelementptr inbounds %"class.dealii::Point", ptr %29, i64 2, i32 0, i32 0, i64 1
  store double %43, ptr %53, align 8, !tbaa !5
  %54 = getelementptr inbounds %"class.dealii::Point", ptr %29, i64 2, i32 0, i32 0, i64 2
  store double %40, ptr %54, align 8, !tbaa !5
  %55 = getelementptr inbounds %"class.dealii::Point", ptr %29, i64 3
  store double %44, ptr %55, align 8, !tbaa !5
  %56 = getelementptr inbounds %"class.dealii::Point", ptr %29, i64 3, i32 0, i32 0, i64 1
  store double %43, ptr %56, align 8, !tbaa !5
  %57 = getelementptr inbounds %"class.dealii::Point", ptr %29, i64 3, i32 0, i32 0, i64 2
  store double %40, ptr %57, align 8, !tbaa !5
  %58 = getelementptr inbounds %"class.dealii::Point", ptr %29, i64 4
  store double %44, ptr %58, align 8, !tbaa !5
  %59 = getelementptr inbounds %"class.dealii::Point", ptr %29, i64 4, i32 0, i32 0, i64 1
  store double %39, ptr %59, align 8, !tbaa !5
  %60 = getelementptr inbounds %"class.dealii::Point", ptr %29, i64 4, i32 0, i32 0, i64 2
  store double %42, ptr %60, align 8, !tbaa !5
  %61 = getelementptr inbounds %"class.dealii::Point", ptr %29, i64 5
  store double %41, ptr %61, align 8, !tbaa !5
  %62 = getelementptr inbounds %"class.dealii::Point", ptr %29, i64 5, i32 0, i32 0, i64 1
  store double %39, ptr %62, align 8, !tbaa !5
  %63 = getelementptr inbounds %"class.dealii::Point", ptr %29, i64 5, i32 0, i32 0, i64 2
  store double %42, ptr %63, align 8, !tbaa !5
  %64 = getelementptr inbounds %"class.dealii::Point", ptr %29, i64 6
  store double %41, ptr %64, align 8, !tbaa !5
  %65 = getelementptr inbounds %"class.dealii::Point", ptr %29, i64 6, i32 0, i32 0, i64 1
  store double %39, ptr %65, align 8, !tbaa !5
  %66 = getelementptr inbounds %"class.dealii::Point", ptr %29, i64 6, i32 0, i32 0, i64 2
  store double %40, ptr %66, align 8, !tbaa !5
  %67 = getelementptr inbounds %"class.dealii::Point", ptr %29, i64 7
  store double %44, ptr %67, align 8, !tbaa !5
  %68 = getelementptr inbounds %"class.dealii::Point", ptr %29, i64 7, i32 0, i32 0, i64 1
  store double %39, ptr %68, align 8, !tbaa !5
  %69 = getelementptr inbounds %"class.dealii::Point", ptr %29, i64 7, i32 0, i32 0, i64 2
  store double %40, ptr %69, align 8, !tbaa !5
  %70 = getelementptr inbounds %"class.dealii::Point", ptr %29, i64 8
  store double %37, ptr %70, align 8, !tbaa !5
  %71 = getelementptr inbounds %"class.dealii::Point", ptr %29, i64 8, i32 0, i32 0, i64 1
  store double %36, ptr %71, align 8, !tbaa !5
  %72 = getelementptr inbounds %"class.dealii::Point", ptr %29, i64 8, i32 0, i32 0, i64 2
  store double %35, ptr %72, align 8, !tbaa !5
  %73 = getelementptr inbounds %"class.dealii::Point", ptr %29, i64 9
  store double %34, ptr %73, align 8, !tbaa !5
  %74 = getelementptr inbounds %"class.dealii::Point", ptr %29, i64 9, i32 0, i32 0, i64 1
  store double %36, ptr %74, align 8, !tbaa !5
  %75 = getelementptr inbounds %"class.dealii::Point", ptr %29, i64 9, i32 0, i32 0, i64 2
  store double %35, ptr %75, align 8, !tbaa !5
  %76 = getelementptr inbounds %"class.dealii::Point", ptr %29, i64 10
  store double %34, ptr %76, align 8, !tbaa !5
  %77 = getelementptr inbounds %"class.dealii::Point", ptr %29, i64 10, i32 0, i32 0, i64 1
  store double %36, ptr %77, align 8, !tbaa !5
  %78 = getelementptr inbounds %"class.dealii::Point", ptr %29, i64 10, i32 0, i32 0, i64 2
  store double %33, ptr %78, align 8, !tbaa !5
  %79 = getelementptr inbounds %"class.dealii::Point", ptr %29, i64 11
  store double %37, ptr %79, align 8, !tbaa !5
  %80 = getelementptr inbounds %"class.dealii::Point", ptr %29, i64 11, i32 0, i32 0, i64 1
  store double %36, ptr %80, align 8, !tbaa !5
  %81 = getelementptr inbounds %"class.dealii::Point", ptr %29, i64 11, i32 0, i32 0, i64 2
  store double %33, ptr %81, align 8, !tbaa !5
  %82 = getelementptr inbounds %"class.dealii::Point", ptr %29, i64 12
  store double %37, ptr %82, align 8, !tbaa !5
  %83 = getelementptr inbounds %"class.dealii::Point", ptr %29, i64 12, i32 0, i32 0, i64 1
  store double %32, ptr %83, align 8, !tbaa !5
  %84 = getelementptr inbounds %"class.dealii::Point", ptr %29, i64 12, i32 0, i32 0, i64 2
  store double %35, ptr %84, align 8, !tbaa !5
  %85 = getelementptr inbounds %"class.dealii::Point", ptr %29, i64 13
  store double %34, ptr %85, align 8, !tbaa !5
  %86 = getelementptr inbounds %"class.dealii::Point", ptr %29, i64 13, i32 0, i32 0, i64 1
  store double %32, ptr %86, align 8, !tbaa !5
  %87 = getelementptr inbounds %"class.dealii::Point", ptr %29, i64 13, i32 0, i32 0, i64 2
  store double %35, ptr %87, align 8, !tbaa !5
  %88 = getelementptr inbounds %"class.dealii::Point", ptr %29, i64 14
  store double %34, ptr %88, align 8, !tbaa !5
  %89 = getelementptr inbounds %"class.dealii::Point", ptr %29, i64 14, i32 0, i32 0, i64 1
  store double %32, ptr %89, align 8, !tbaa !5
  %90 = getelementptr inbounds %"class.dealii::Point", ptr %29, i64 14, i32 0, i32 0, i64 2
  store double %33, ptr %90, align 8, !tbaa !5
  %91 = getelementptr inbounds %"class.dealii::Point", ptr %29, i64 15
  store double %37, ptr %91, align 8, !tbaa !5
  %92 = getelementptr inbounds %"class.dealii::Point", ptr %29, i64 15, i32 0, i32 0, i64 1
  store double %32, ptr %92, align 8, !tbaa !5
  %93 = getelementptr inbounds %"class.dealii::Point", ptr %29, i64 15, i32 0, i32 0, i64 2
  store double %33, ptr %93, align 8, !tbaa !5
  %94 = getelementptr inbounds %"class.dealii::Point", ptr %29, i64 16
  %95 = getelementptr inbounds %"struct.std::_Vector_base<dealii::Point<3>, std::allocator<dealii::Point<3> > >::_Vector_impl_data", ptr %5, i64 0, i32 1
  store ptr %94, ptr %95, align 8, !tbaa !13
  call void @llvm.lifetime.start.p0(i64 48, ptr nonnull %6) #23
  call void @llvm.memset.p0.i64(ptr noundef nonnull align 8 dereferenceable(48) %6, i8 0, i64 48, i1 false)
  %96 = load ptr, ptr %0, align 8, !tbaa !22
  %97 = getelementptr inbounds ptr, ptr %96, i64 3
  %98 = load ptr, ptr %97, align 8
  invoke void %98(ptr noundef nonnull align 8 dereferenceable(8552) %0, ptr noundef nonnull align 8 dereferenceable(24) %5, ptr noundef nonnull align 8 dereferenceable(24) %4, ptr noundef nonnull align 8 dereferenceable(48) %6)
          to label %101 unwind label %119

99:                                               ; preds = %3
  %100 = landingpad { ptr, i32 }
          cleanup
  br label %125

101:                                              ; preds = %30
  %102 = getelementptr inbounds %"struct.dealii::SubCellData", ptr %6, i64 0, i32 1
  %103 = load ptr, ptr %102, align 8, !tbaa !24
  %104 = icmp eq ptr %103, null
  br i1 %104, label %106, label %105

105:                                              ; preds = %101
  call void @_ZdlPv(ptr noundef nonnull %103) #25
  br label %106

106:                                              ; preds = %105, %101
  %107 = load ptr, ptr %6, align 8, !tbaa !26
  %108 = icmp eq ptr %107, null
  br i1 %108, label %110, label %109

109:                                              ; preds = %106
  call void @_ZdlPv(ptr noundef nonnull %107) #25
  br label %110

110:                                              ; preds = %109, %106
  call void @llvm.lifetime.end.p0(i64 48, ptr nonnull %6) #23
  %111 = load ptr, ptr %5, align 8, !tbaa !9
  %112 = icmp eq ptr %111, null
  br i1 %112, label %114, label %113

113:                                              ; preds = %110
  call void @_ZdlPv(ptr noundef nonnull %111) #25
  br label %114

114:                                              ; preds = %113, %110
  call void @llvm.lifetime.end.p0(i64 24, ptr nonnull %5) #23
  %115 = load ptr, ptr %4, align 8, !tbaa !14
  %116 = icmp eq ptr %115, null
  br i1 %116, label %118, label %117

117:                                              ; preds = %114
  call void @_ZdlPv(ptr noundef nonnull %115) #25
  br label %118

118:                                              ; preds = %114, %117
  call void @llvm.lifetime.end.p0(i64 24, ptr nonnull %4) #23
  ret void

119:                                              ; preds = %30
  %120 = landingpad { ptr, i32 }
          cleanup
  invoke void @_ZN6dealii11SubCellDataD2Ev(ptr noundef nonnull align 8 dereferenceable(48) %6)
          to label %121 unwind label %131

121:                                              ; preds = %119
  call void @llvm.lifetime.end.p0(i64 48, ptr nonnull %6) #23
  %122 = load ptr, ptr %5, align 8, !tbaa !9
  %123 = icmp eq ptr %122, null
  br i1 %123, label %125, label %124

124:                                              ; preds = %121
  call void @_ZdlPv(ptr noundef nonnull %122) #25
  br label %125

125:                                              ; preds = %99, %124, %121
  %126 = phi { ptr, i32 } [ %100, %99 ], [ %120, %121 ], [ %120, %124 ]
  call void @llvm.lifetime.end.p0(i64 24, ptr nonnull %5) #23
  %127 = load ptr, ptr %4, align 8, !tbaa !14
  %128 = icmp eq ptr %127, null
  br i1 %128, label %130, label %129

129:                                              ; preds = %125
  call void @_ZdlPv(ptr noundef nonnull %127) #25
  br label %130

130:                                              ; preds = %129, %125
  call void @llvm.lifetime.end.p0(i64 24, ptr nonnull %4) #23
  resume { ptr, i32 } %126

131:                                              ; preds = %119
  %132 = landingpad { ptr, i32 }
          catch ptr null
  %133 = extractvalue { ptr, i32 } %132, 0
  call void @__clang_call_terminate(ptr %133) #26
  unreachable
}

; Function Attrs: mustprogress nofree nounwind willreturn memory(write)
declare double @sqrt(double noundef) local_unnamed_addr #7

; Function Attrs: sspstrong uwtable
define weak_odr dso_local void @_ZN6dealii13GridGenerator8cylinderILi3EEEvRNS_13TriangulationIXT_EXT_EEEdd(ptr noundef nonnull align 8 dereferenceable(8552) %0, double noundef %1, double noundef %2) local_unnamed_addr #0 comdat align 2 personality ptr @__gxx_personality_v0 {
  %4 = alloca %"class.std::vector.38", align 8
  %5 = alloca %"class.std::vector.19", align 8
  %6 = alloca %"struct.dealii::SubCellData", align 8
  %7 = alloca %"class.dealii::TriaIterator", align 8
  %8 = alloca %"class.dealii::TriaRawIterator", align 8
  %9 = fdiv double %1, 0x3FF6A09E667F3BCD
  %10 = fdiv double %9, 0x4003504F333F9DE6
  call void @llvm.lifetime.start.p0(i64 24, ptr nonnull %4) #23
  %11 = tail call noalias noundef nonnull dereferenceable(360) ptr @_Znwm(i64 noundef 360) #24
  store ptr %11, ptr %4, align 8, !tbaa !14
  %12 = getelementptr inbounds %"struct.std::_Vector_base<dealii::CellData<3>, std::allocator<dealii::CellData<3> > >::_Vector_impl_data", ptr %4, i64 0, i32 1
  %13 = getelementptr inbounds %"struct.dealii::CellData", ptr %11, i64 10
  %14 = getelementptr inbounds %"struct.std::_Vector_base<dealii::CellData<3>, std::allocator<dealii::CellData<3> > >::_Vector_impl_data", ptr %4, i64 0, i32 2
  store ptr %13, ptr %14, align 8, !tbaa !16
  %15 = getelementptr inbounds %"struct.dealii::CellData", ptr %11, i64 1
  %16 = getelementptr inbounds %"struct.dealii::CellData", ptr %11, i64 2
  %17 = getelementptr inbounds %"struct.dealii::CellData", ptr %11, i64 3
  %18 = getelementptr inbounds %"struct.dealii::CellData", ptr %11, i64 4
  %19 = getelementptr inbounds %"struct.dealii::CellData", ptr %11, i64 5
  %20 = getelementptr inbounds %"struct.dealii::CellData", ptr %11, i64 6
  %21 = getelementptr inbounds %"struct.dealii::CellData", ptr %11, i64 7
  %22 = getelementptr inbounds %"struct.dealii::CellData", ptr %11, i64 8
  %23 = getelementptr inbounds %"struct.dealii::CellData", ptr %11, i64 9
  %24 = getelementptr inbounds i8, ptr %11, i64 32
  tail call void @llvm.memset.p0.i64(ptr noundef nonnull align 4 dereferenceable(328) %24, i8 0, i64 328, i1 false)
  store ptr %13, ptr %12, align 8, !tbaa !17
  store <8 x i32> <i32 0, i32 1, i32 8, i32 9, i32 2, i32 3, i32 10, i32 11>, ptr %11, align 4, !tbaa !18
  %25 = getelementptr inbounds %"struct.dealii::CellData", ptr %11, i64 0, i32 1
  store i8 0, ptr %25, align 4, !tbaa !20
  store <8 x i32> <i32 0, i32 2, i32 8, i32 10, i32 6, i32 4, i32 14, i32 12>, ptr %15, align 4, !tbaa !18
  %26 = getelementptr inbounds %"struct.dealii::CellData", ptr %11, i64 1, i32 1
  store i8 0, ptr %26, align 4, !tbaa !20
  store <8 x i32> <i32 2, i32 3, i32 10, i32 11, i32 4, i32 5, i32 12, i32 13>, ptr %16, align 4, !tbaa !18
  %27 = getelementptr inbounds %"struct.dealii::CellData", ptr %11, i64 2, i32 1
  store i8 0, ptr %27, align 4, !tbaa !20
  store <8 x i32> <i32 1, i32 7, i32 9, i32 15, i32 3, i32 5, i32 11, i32 13>, ptr %17, align 4, !tbaa !18
  %28 = getelementptr inbounds %"struct.dealii::CellData", ptr %11, i64 3, i32 1
  store i8 0, ptr %28, align 4, !tbaa !20
  store <8 x i32> <i32 6, i32 4, i32 14, i32 12, i32 7, i32 5, i32 15, i32 13>, ptr %18, align 4, !tbaa !18
  %29 = getelementptr inbounds %"struct.dealii::CellData", ptr %11, i64 4, i32 1
  store i8 0, ptr %29, align 4, !tbaa !20
  store <8 x i32> <i32 8, i32 9, i32 16, i32 17, i32 10, i32 11, i32 18, i32 19>, ptr %19, align 4, !tbaa !18
  %30 = getelementptr inbounds %"struct.dealii::CellData", ptr %11, i64 5, i32 1
  store i8 0, ptr %30, align 4, !tbaa !20
  store <8 x i32> <i32 8, i32 10, i32 16, i32 18, i32 14, i32 12, i32 22, i32 20>, ptr %20, align 4, !tbaa !18
  %31 = getelementptr inbounds %"struct.dealii::CellData", ptr %11, i64 6, i32 1
  store i8 0, ptr %31, align 4, !tbaa !20
  store <8 x i32> <i32 10, i32 11, i32 18, i32 19, i32 12, i32 13, i32 20, i32 21>, ptr %21, align 4, !tbaa !18
  %32 = getelementptr inbounds %"struct.dealii::CellData", ptr %11, i64 7, i32 1
  store i8 0, ptr %32, align 4, !tbaa !20
  store <8 x i32> <i32 9, i32 15, i32 17, i32 23, i32 11, i32 13, i32 19, i32 21>, ptr %22, align 4, !tbaa !18
  %33 = getelementptr inbounds %"struct.dealii::CellData", ptr %11, i64 8, i32 1
  store i8 0, ptr %33, align 4, !tbaa !20
  store <8 x i32> <i32 14, i32 12, i32 22, i32 20, i32 15, i32 13, i32 23, i32 21>, ptr %23, align 4, !tbaa !18
  %34 = getelementptr inbounds %"struct.dealii::CellData", ptr %11, i64 9, i32 1
  store i8 0, ptr %34, align 4, !tbaa !20
  call void @llvm.lifetime.start.p0(i64 24, ptr nonnull %5) #23
  %35 = invoke noalias noundef nonnull dereferenceable(576) ptr @_Znwm(i64 noundef 576) #24
          to label %36 unwind label %118

36:                                               ; preds = %3
  %37 = fneg double %10
  %38 = fneg double %2
  %39 = fneg double %9
  store ptr %35, ptr %5, align 8, !tbaa !9
  %40 = getelementptr inbounds %"class.dealii::Point", ptr %35, i64 24
  %41 = getelementptr inbounds %"struct.std::_Vector_base<dealii::Point<3>, std::allocator<dealii::Point<3> > >::_Vector_impl_data", ptr %5, i64 0, i32 2
  store ptr %40, ptr %41, align 8, !tbaa !12
  store double %38, ptr %35, align 8, !tbaa !5
  %42 = getelementptr inbounds [3 x double], ptr %35, i64 0, i64 1
  store double %9, ptr %42, align 8, !tbaa !5
  %43 = getelementptr inbounds [3 x double], ptr %35, i64 0, i64 2
  store double %39, ptr %43, align 8, !tbaa !5
  %44 = getelementptr inbounds %"class.dealii::Point", ptr %35, i64 1
  store double %38, ptr %44, align 8, !tbaa !5
  %45 = getelementptr inbounds %"class.dealii::Point", ptr %35, i64 1, i32 0, i32 0, i64 1
  store double %39, ptr %45, align 8, !tbaa !5
  %46 = getelementptr inbounds %"class.dealii::Point", ptr %35, i64 1, i32 0, i32 0, i64 2
  store double %39, ptr %46, align 8, !tbaa !5
  %47 = getelementptr inbounds %"class.dealii::Point", ptr %35, i64 2
  store double %38, ptr %47, align 8, !tbaa !5
  %48 = getelementptr inbounds %"class.dealii::Point", ptr %35, i64 2, i32 0, i32 0, i64 1
  store double %10, ptr %48, align 8, !tbaa !5
  %49 = getelementptr inbounds %"class.dealii::Point", ptr %35, i64 2, i32 0, i32 0, i64 2
  store double %37, ptr %49, align 8, !tbaa !5
  %50 = getelementptr inbounds %"class.dealii::Point", ptr %35, i64 3
  store double %38, ptr %50, align 8, !tbaa !5
  %51 = getelementptr inbounds %"class.dealii::Point", ptr %35, i64 3, i32 0, i32 0, i64 1
  store double %37, ptr %51, align 8, !tbaa !5
  %52 = getelementptr inbounds %"class.dealii::Point", ptr %35, i64 3, i32 0, i32 0, i64 2
  store double %37, ptr %52, align 8, !tbaa !5
  %53 = getelementptr inbounds %"class.dealii::Point", ptr %35, i64 4
  store double %38, ptr %53, align 8, !tbaa !5
  %54 = getelementptr inbounds %"class.dealii::Point", ptr %35, i64 4, i32 0, i32 0, i64 1
  store double %10, ptr %54, align 8, !tbaa !5
  %55 = getelementptr inbounds %"class.dealii::Point", ptr %35, i64 4, i32 0, i32 0, i64 2
  store double %10, ptr %55, align 8, !tbaa !5
  %56 = getelementptr inbounds %"class.dealii::Point", ptr %35, i64 5
  store double %38, ptr %56, align 8, !tbaa !5
  %57 = getelementptr inbounds %"class.dealii::Point", ptr %35, i64 5, i32 0, i32 0, i64 1
  store double %37, ptr %57, align 8, !tbaa !5
  %58 = getelementptr inbounds %"class.dealii::Point", ptr %35, i64 5, i32 0, i32 0, i64 2
  store double %10, ptr %58, align 8, !tbaa !5
  %59 = getelementptr inbounds %"class.dealii::Point", ptr %35, i64 6
  store double %38, ptr %59, align 8, !tbaa !5
  %60 = getelementptr inbounds %"class.dealii::Point", ptr %35, i64 6, i32 0, i32 0, i64 1
  store double %9, ptr %60, align 8, !tbaa !5
  %61 = getelementptr inbounds %"class.dealii::Point", ptr %35, i64 6, i32 0, i32 0, i64 2
  store double %9, ptr %61, align 8, !tbaa !5
  %62 = getelementptr inbounds %"class.dealii::Point", ptr %35, i64 7
  store double %38, ptr %62, align 8, !tbaa !5
  %63 = getelementptr inbounds %"class.dealii::Point", ptr %35, i64 7, i32 0, i32 0, i64 1
  store double %39, ptr %63, align 8, !tbaa !5
  %64 = getelementptr inbounds %"class.dealii::Point", ptr %35, i64 7, i32 0, i32 0, i64 2
  store double %9, ptr %64, align 8, !tbaa !5
  %65 = getelementptr inbounds %"class.dealii::Point", ptr %35, i64 8
  store double 0.000000e+00, ptr %65, align 8, !tbaa !5
  %66 = getelementptr inbounds %"class.dealii::Point", ptr %35, i64 8, i32 0, i32 0, i64 1
  store double %9, ptr %66, align 8, !tbaa !5
  %67 = getelementptr inbounds %"class.dealii::Point", ptr %35, i64 8, i32 0, i32 0, i64 2
  store double %39, ptr %67, align 8, !tbaa !5
  %68 = getelementptr inbounds %"class.dealii::Point", ptr %35, i64 9
  store double 0.000000e+00, ptr %68, align 8, !tbaa !5
  %69 = getelementptr inbounds %"class.dealii::Point", ptr %35, i64 9, i32 0, i32 0, i64 1
  store double %39, ptr %69, align 8, !tbaa !5
  %70 = getelementptr inbounds %"class.dealii::Point", ptr %35, i64 9, i32 0, i32 0, i64 2
  store double %39, ptr %70, align 8, !tbaa !5
  %71 = getelementptr inbounds %"class.dealii::Point", ptr %35, i64 10
  store double 0.000000e+00, ptr %71, align 8, !tbaa !5
  %72 = getelementptr inbounds %"class.dealii::Point", ptr %35, i64 10, i32 0, i32 0, i64 1
  store double %10, ptr %72, align 8, !tbaa !5
  %73 = getelementptr inbounds %"class.dealii::Point", ptr %35, i64 10, i32 0, i32 0, i64 2
  store double %37, ptr %73, align 8, !tbaa !5
  %74 = getelementptr inbounds %"class.dealii::Point", ptr %35, i64 11
  store double 0.000000e+00, ptr %74, align 8, !tbaa !5
  %75 = getelementptr inbounds %"class.dealii::Point", ptr %35, i64 11, i32 0, i32 0, i64 1
  store double %37, ptr %75, align 8, !tbaa !5
  %76 = getelementptr inbounds %"class.dealii::Point", ptr %35, i64 11, i32 0, i32 0, i64 2
  store double %37, ptr %76, align 8, !tbaa !5
  %77 = getelementptr inbounds %"class.dealii::Point", ptr %35, i64 12
  store double 0.000000e+00, ptr %77, align 8, !tbaa !5
  %78 = getelementptr inbounds %"class.dealii::Point", ptr %35, i64 12, i32 0, i32 0, i64 1
  store double %10, ptr %78, align 8, !tbaa !5
  %79 = getelementptr inbounds %"class.dealii::Point", ptr %35, i64 12, i32 0, i32 0, i64 2
  store double %10, ptr %79, align 8, !tbaa !5
  %80 = getelementptr inbounds %"class.dealii::Point", ptr %35, i64 13
  store double 0.000000e+00, ptr %80, align 8, !tbaa !5
  %81 = getelementptr inbounds %"class.dealii::Point", ptr %35, i64 13, i32 0, i32 0, i64 1
  store double %37, ptr %81, align 8, !tbaa !5
  %82 = getelementptr inbounds %"class.dealii::Point", ptr %35, i64 13, i32 0, i32 0, i64 2
  store double %10, ptr %82, align 8, !tbaa !5
  %83 = getelementptr inbounds %"class.dealii::Point", ptr %35, i64 14
  store double 0.000000e+00, ptr %83, align 8, !tbaa !5
  %84 = getelementptr inbounds %"class.dealii::Point", ptr %35, i64 14, i32 0, i32 0, i64 1
  store double %9, ptr %84, align 8, !tbaa !5
  %85 = getelementptr inbounds %"class.dealii::Point", ptr %35, i64 14, i32 0, i32 0, i64 2
  store double %9, ptr %85, align 8, !tbaa !5
  %86 = getelementptr inbounds %"class.dealii::Point", ptr %35, i64 15
  store double 0.000000e+00, ptr %86, align 8, !tbaa !5
  %87 = getelementptr inbounds %"class.dealii::Point", ptr %35, i64 15, i32 0, i32 0, i64 1
  store double %39, ptr %87, align 8, !tbaa !5
  %88 = getelementptr inbounds %"class.dealii::Point", ptr %35, i64 15, i32 0, i32 0, i64 2
  store double %9, ptr %88, align 8, !tbaa !5
  %89 = getelementptr inbounds %"class.dealii::Point", ptr %35, i64 16
  store double %2, ptr %89, align 8, !tbaa !5
  %90 = getelementptr inbounds %"class.dealii::Point", ptr %35, i64 16, i32 0, i32 0, i64 1
  store double %9, ptr %90, align 8, !tbaa !5
  %91 = getelementptr inbounds %"class.dealii::Point", ptr %35, i64 16, i32 0, i32 0, i64 2
  store double %39, ptr %91, align 8, !tbaa !5
  %92 = getelementptr inbounds %"class.dealii::Point", ptr %35, i64 17
  store double %2, ptr %92, align 8, !tbaa !5
  %93 = getelementptr inbounds %"class.dealii::Point", ptr %35, i64 17, i32 0, i32 0, i64 1
  store double %39, ptr %93, align 8, !tbaa !5
  %94 = getelementptr inbounds %"class.dealii::Point", ptr %35, i64 17, i32 0, i32 0, i64 2
  store double %39, ptr %94, align 8, !tbaa !5
  %95 = getelementptr inbounds %"class.dealii::Point", ptr %35, i64 18
  store double %2, ptr %95, align 8, !tbaa !5
  %96 = getelementptr inbounds %"class.dealii::Point", ptr %35, i64 18, i32 0, i32 0, i64 1
  store double %10, ptr %96, align 8, !tbaa !5
  %97 = getelementptr inbounds %"class.dealii::Point", ptr %35, i64 18, i32 0, i32 0, i64 2
  store double %37, ptr %97, align 8, !tbaa !5
  %98 = getelementptr inbounds %"class.dealii::Point", ptr %35, i64 19
  store double %2, ptr %98, align 8, !tbaa !5
  %99 = getelementptr inbounds %"class.dealii::Point", ptr %35, i64 19, i32 0, i32 0, i64 1
  store double %37, ptr %99, align 8, !tbaa !5
  %100 = getelementptr inbounds %"class.dealii::Point", ptr %35, i64 19, i32 0, i32 0, i64 2
  store double %37, ptr %100, align 8, !tbaa !5
  %101 = getelementptr inbounds %"class.dealii::Point", ptr %35, i64 20
  store double %2, ptr %101, align 8, !tbaa !5
  %102 = getelementptr inbounds %"class.dealii::Point", ptr %35, i64 20, i32 0, i32 0, i64 1
  store double %10, ptr %102, align 8, !tbaa !5
  %103 = getelementptr inbounds %"class.dealii::Point", ptr %35, i64 20, i32 0, i32 0, i64 2
  store double %10, ptr %103, align 8, !tbaa !5
  %104 = getelementptr inbounds %"class.dealii::Point", ptr %35, i64 21
  store double %2, ptr %104, align 8, !tbaa !5
  %105 = getelementptr inbounds %"class.dealii::Point", ptr %35, i64 21, i32 0, i32 0, i64 1
  store double %37, ptr %105, align 8, !tbaa !5
  %106 = getelementptr inbounds %"class.dealii::Point", ptr %35, i64 21, i32 0, i32 0, i64 2
  store double %10, ptr %106, align 8, !tbaa !5
  %107 = getelementptr inbounds %"class.dealii::Point", ptr %35, i64 22
  store double %2, ptr %107, align 8, !tbaa !5
  %108 = getelementptr inbounds %"class.dealii::Point", ptr %35, i64 22, i32 0, i32 0, i64 1
  store double %9, ptr %108, align 8, !tbaa !5
  %109 = getelementptr inbounds %"class.dealii::Point", ptr %35, i64 22, i32 0, i32 0, i64 2
  store double %9, ptr %109, align 8, !tbaa !5
  %110 = getelementptr inbounds %"class.dealii::Point", ptr %35, i64 23
  store double %2, ptr %110, align 8, !tbaa !5
  %111 = getelementptr inbounds %"class.dealii::Point", ptr %35, i64 23, i32 0, i32 0, i64 1
  store double %39, ptr %111, align 8, !tbaa !5
  %112 = getelementptr inbounds %"class.dealii::Point", ptr %35, i64 23, i32 0, i32 0, i64 2
  store double %9, ptr %112, align 8, !tbaa !5
  %113 = getelementptr inbounds %"class.dealii::Point", ptr %35, i64 24
  %114 = getelementptr inbounds %"struct.std::_Vector_base<dealii::Point<3>, std::allocator<dealii::Point<3> > >::_Vector_impl_data", ptr %5, i64 0, i32 1
  store ptr %113, ptr %114, align 8, !tbaa !13
  call void @llvm.lifetime.start.p0(i64 48, ptr nonnull %6) #23
  call void @llvm.memset.p0.i64(ptr noundef nonnull align 8 dereferenceable(48) %6, i8 0, i64 48, i1 false)
  %115 = load ptr, ptr %0, align 8, !tbaa !22
  %116 = getelementptr inbounds ptr, ptr %115, i64 3
  %117 = load ptr, ptr %116, align 8
  invoke void %117(ptr noundef nonnull align 8 dereferenceable(8552) %0, ptr noundef nonnull align 8 dereferenceable(24) %5, ptr noundef nonnull align 8 dereferenceable(24) %4, ptr noundef nonnull align 8 dereferenceable(48) %6)
          to label %120 unwind label %247

118:                                              ; preds = %3
  %119 = landingpad { ptr, i32 }
          cleanup
  br label %253

120:                                              ; preds = %36
  %121 = getelementptr inbounds %"struct.dealii::SubCellData", ptr %6, i64 0, i32 1
  %122 = load ptr, ptr %121, align 8, !tbaa !24
  %123 = icmp eq ptr %122, null
  br i1 %123, label %125, label %124

124:                                              ; preds = %120
  call void @_ZdlPv(ptr noundef nonnull %122) #25
  br label %125

125:                                              ; preds = %124, %120
  %126 = load ptr, ptr %6, align 8, !tbaa !26
  %127 = icmp eq ptr %126, null
  br i1 %127, label %129, label %128

128:                                              ; preds = %125
  call void @_ZdlPv(ptr noundef nonnull %126) #25
  br label %129

129:                                              ; preds = %128, %125
  call void @llvm.lifetime.end.p0(i64 48, ptr nonnull %6) #23
  %130 = load ptr, ptr %5, align 8, !tbaa !9
  %131 = icmp eq ptr %130, null
  br i1 %131, label %133, label %132

132:                                              ; preds = %129
  call void @_ZdlPv(ptr noundef nonnull %130) #25
  br label %133

133:                                              ; preds = %132, %129
  call void @llvm.lifetime.end.p0(i64 24, ptr nonnull %5) #23
  call void @llvm.lifetime.start.p0(i64 16, ptr nonnull %7) #23
  invoke void @_ZNK6dealii13TriangulationILi3ELi3EE5beginEj(ptr nonnull sret(%"class.dealii::TriaIterator") align 8 %7, ptr noundef nonnull align 8 dereferenceable(8552) %0, i32 noundef 0)
          to label %134 unwind label %255

134:                                              ; preds = %133
  call void @llvm.lifetime.start.p0(i64 16, ptr nonnull %8) #23
  invoke void @_ZNK6dealii13TriangulationILi3ELi3EE3endEv(ptr nonnull sret(%"class.dealii::TriaRawIterator") align 8 %8, ptr noundef nonnull align 8 dereferenceable(8552) %0)
          to label %135 unwind label %257

135:                                              ; preds = %134
  %136 = load i32, ptr %8, align 8
  %137 = getelementptr inbounds i8, ptr %8, i64 4
  %138 = load i32, ptr %137, align 4
  call void @llvm.lifetime.end.p0(i64 16, ptr nonnull %8) #23
  %139 = getelementptr inbounds %"class.dealii::TriaAccessorBase", ptr %7, i64 0, i32 1
  %140 = load i32, ptr %139, align 4, !tbaa !39
  %141 = icmp ne i32 %140, %138
  %142 = load i32, ptr %7, align 8
  %143 = icmp ne i32 %142, %136
  %144 = select i1 %141, i1 true, i1 %143
  br i1 %144, label %145, label %848

145:                                              ; preds = %135
  %146 = getelementptr inbounds %"class.dealii::TriaAccessorBase", ptr %7, i64 0, i32 2
  %147 = fadd double %2, -1.000000e-05
  %148 = fsub double 1.000000e-05, %2
  br label %259

149:                                              ; preds = %843
  %150 = load ptr, ptr %146, align 8, !tbaa !28
  %151 = getelementptr inbounds %"class.dealii::Triangulation", ptr %150, i64 0, i32 1
  %152 = load ptr, ptr %151, align 8, !tbaa !36
  %153 = load i32, ptr %139, align 4
  %154 = load i32, ptr %7, align 8
  %155 = ptrtoint ptr %152 to i64
  %156 = getelementptr inbounds %"class.dealii::Triangulation", ptr %150, i64 0, i32 1, i32 0, i32 0, i32 0, i32 1
  br label %157

157:                                              ; preds = %228, %149
  %158 = phi i32 [ %223, %228 ], [ %154, %149 ]
  %159 = phi i32 [ %225, %228 ], [ %154, %149 ]
  %160 = phi i32 [ %224, %228 ], [ %153, %149 ]
  %161 = add nsw i32 %160, 1
  %162 = sext i32 %159 to i64
  %163 = getelementptr inbounds ptr, ptr %152, i64 %162
  %164 = load ptr, ptr %163, align 8, !tbaa !38
  %165 = getelementptr inbounds %"class.dealii::internal::Triangulation::TriaLevel", ptr %164, i64 0, i32 4
  %166 = getelementptr inbounds %"class.dealii::internal::Triangulation::TriaLevel", ptr %164, i64 0, i32 4, i32 0, i32 0, i32 0, i32 0, i32 0, i32 1
  %167 = load ptr, ptr %166, align 8, !tbaa !103
  %168 = load ptr, ptr %165, align 8, !tbaa !40
  %169 = ptrtoint ptr %167 to i64
  %170 = ptrtoint ptr %168 to i64
  %171 = sub i64 %169, %170
  %172 = sdiv exact i64 %171, 24
  %173 = trunc i64 %172 to i32
  %174 = icmp slt i32 %161, %173
  br i1 %174, label %222, label %175

175:                                              ; preds = %157
  %176 = add nsw i64 %162, 1
  %177 = trunc i64 %176 to i32
  store i32 %177, ptr %7, align 8, !tbaa !35
  %178 = load ptr, ptr %156, align 8, !tbaa !104
  %179 = ptrtoint ptr %178 to i64
  %180 = sub i64 %179, %155
  %181 = shl i64 %180, 29
  %182 = ashr i64 %181, 32
  %183 = icmp slt i64 %176, %182
  br i1 %183, label %184, label %216

184:                                              ; preds = %175
  %185 = getelementptr inbounds ptr, ptr %152, i64 %176
  %186 = load ptr, ptr %185, align 8, !tbaa !38
  %187 = getelementptr inbounds %"class.dealii::internal::Triangulation::TriaLevel", ptr %186, i64 0, i32 4
  %188 = getelementptr inbounds %"class.dealii::internal::Triangulation::TriaLevel", ptr %186, i64 0, i32 4, i32 0, i32 0, i32 0, i32 0, i32 0, i32 1
  %189 = load ptr, ptr %188, align 8, !tbaa !103
  %190 = load ptr, ptr %187, align 8, !tbaa !40
  %191 = ptrtoint ptr %189 to i64
  %192 = ptrtoint ptr %190 to i64
  %193 = sub i64 %191, %192
  %194 = sdiv exact i64 %193, 24
  %195 = trunc i64 %194 to i32
  %196 = icmp sgt i32 %195, 0
  br i1 %196, label %218, label %210

197:                                              ; preds = %210
  %198 = getelementptr inbounds ptr, ptr %152, i64 %212
  %199 = load ptr, ptr %198, align 8, !tbaa !38
  %200 = getelementptr inbounds %"class.dealii::internal::Triangulation::TriaLevel", ptr %199, i64 0, i32 4
  %201 = getelementptr inbounds %"class.dealii::internal::Triangulation::TriaLevel", ptr %199, i64 0, i32 4, i32 0, i32 0, i32 0, i32 0, i32 0, i32 1
  %202 = load ptr, ptr %201, align 8, !tbaa !103
  %203 = load ptr, ptr %200, align 8, !tbaa !40
  %204 = ptrtoint ptr %202 to i64
  %205 = ptrtoint ptr %203 to i64
  %206 = sub i64 %204, %205
  %207 = sdiv exact i64 %206, 24
  %208 = trunc i64 %207 to i32
  %209 = icmp sgt i32 %208, 0
  br i1 %209, label %217, label %210, !llvm.loop !105

210:                                              ; preds = %184, %197
  %211 = phi i64 [ %212, %197 ], [ %176, %184 ]
  %212 = add i64 %211, 1
  %213 = trunc i64 %212 to i32
  %214 = icmp eq i64 %212, %182
  br i1 %214, label %215, label %197, !llvm.loop !105

215:                                              ; preds = %210
  store i32 %213, ptr %7, align 8, !tbaa !35
  br label %216

216:                                              ; preds = %215, %175
  store i32 -1, ptr %7, align 8, !tbaa !35
  br label %222

217:                                              ; preds = %197
  store i32 %213, ptr %7, align 8, !tbaa !35
  br label %218

218:                                              ; preds = %217, %184
  %219 = phi i32 [ %177, %184 ], [ %213, %217 ]
  %220 = phi i64 [ %176, %184 ], [ %212, %217 ]
  %221 = trunc i64 %220 to i32
  br label %222

222:                                              ; preds = %218, %216, %157
  %223 = phi i32 [ %158, %157 ], [ -1, %216 ], [ %219, %218 ]
  %224 = phi i32 [ %161, %157 ], [ -1, %216 ], [ 0, %218 ]
  %225 = phi i32 [ %159, %157 ], [ -1, %216 ], [ %221, %218 ]
  %226 = or i32 %225, %224
  %227 = icmp sgt i32 %226, -1
  br i1 %227, label %228, label %243

228:                                              ; preds = %222
  %229 = zext i32 %225 to i64
  %230 = getelementptr inbounds ptr, ptr %152, i64 %229
  %231 = load ptr, ptr %230, align 8, !tbaa !38
  %232 = getelementptr inbounds %"class.dealii::internal::Triangulation::TriaLevel", ptr %231, i64 0, i32 4, i32 0, i32 3
  %233 = load ptr, ptr %232, align 8, !tbaa !97
  %234 = lshr i32 %224, 6
  %235 = zext i32 %234 to i64
  %236 = getelementptr inbounds i64, ptr %233, i64 %235
  %237 = and i32 %224, 63
  %238 = zext i32 %237 to i64
  %239 = shl nuw i64 1, %238
  %240 = load i64, ptr %236, align 8, !tbaa !99
  %241 = and i64 %240, %239
  %242 = icmp eq i64 %241, 0
  br i1 %242, label %157, label %243

243:                                              ; preds = %222, %228
  store i32 %224, ptr %139, align 4, !tbaa !39
  %244 = icmp ne i32 %224, %138
  %245 = icmp ne i32 %223, %136
  %246 = select i1 %244, i1 true, i1 %245
  br i1 %246, label %846, label %848

247:                                              ; preds = %36
  %248 = landingpad { ptr, i32 }
          cleanup
  invoke void @_ZN6dealii11SubCellDataD2Ev(ptr noundef nonnull align 8 dereferenceable(48) %6)
          to label %249 unwind label %861

249:                                              ; preds = %247
  call void @llvm.lifetime.end.p0(i64 48, ptr nonnull %6) #23
  %250 = load ptr, ptr %5, align 8, !tbaa !9
  %251 = icmp eq ptr %250, null
  br i1 %251, label %253, label %252

252:                                              ; preds = %249
  call void @_ZdlPv(ptr noundef nonnull %250) #25
  br label %253

253:                                              ; preds = %118, %252, %249
  %254 = phi { ptr, i32 } [ %119, %118 ], [ %248, %249 ], [ %248, %252 ]
  call void @llvm.lifetime.end.p0(i64 24, ptr nonnull %5) #23
  br label %855

255:                                              ; preds = %133
  %256 = landingpad { ptr, i32 }
          cleanup
  br label %853

257:                                              ; preds = %134
  %258 = landingpad { ptr, i32 }
          cleanup
  call void @llvm.lifetime.end.p0(i64 16, ptr nonnull %8) #23
  br label %853

259:                                              ; preds = %846, %145
  %260 = phi i64 [ 0, %145 ], [ %847, %846 ]
  %261 = trunc i64 %260 to i32
  %262 = invoke noundef zeroext i1 @_ZNK6dealii12CellAccessorILi3ELi3EE11at_boundaryEj(ptr noundef nonnull align 8 dereferenceable(16) %7, i32 noundef %261)
          to label %263 unwind label %385

263:                                              ; preds = %259
  br i1 %262, label %264, label %843

264:                                              ; preds = %263
  %265 = load ptr, ptr %146, align 8, !tbaa !28, !noalias !133
  %266 = getelementptr inbounds %"class.dealii::Triangulation", ptr %265, i64 0, i32 1
  %267 = load i32, ptr %7, align 8, !tbaa !35, !noalias !133
  %268 = sext i32 %267 to i64
  %269 = load ptr, ptr %266, align 8, !tbaa !36, !noalias !133
  %270 = getelementptr inbounds ptr, ptr %269, i64 %268
  %271 = load ptr, ptr %270, align 8, !tbaa !38, !noalias !133
  %272 = getelementptr inbounds %"class.dealii::internal::Triangulation::TriaLevel", ptr %271, i64 0, i32 4
  %273 = load i32, ptr %139, align 4, !tbaa !39, !noalias !133
  %274 = sext i32 %273 to i64
  %275 = load ptr, ptr %272, align 8, !tbaa !40, !noalias !133
  %276 = getelementptr inbounds %"class.dealii::internal::Triangulation::TriaObject", ptr %275, i64 %274
  %277 = getelementptr inbounds [6 x i32], ptr %276, i64 0, i64 %260
  %278 = load i32, ptr %277, align 4, !tbaa !18, !noalias !133
  %279 = getelementptr inbounds %"class.dealii::Triangulation", ptr %265, i64 0, i32 3
  %280 = getelementptr inbounds %"class.dealii::Triangulation", ptr %265, i64 0, i32 2
  %281 = load ptr, ptr %280, align 8, !tbaa !42
  %282 = sext i32 %278 to i64
  %283 = load ptr, ptr %281, align 8, !tbaa !90, !noalias !133
  %284 = getelementptr inbounds %"class.dealii::internal::Triangulation::TriaObject.276", ptr %283, i64 %282
  %285 = getelementptr inbounds %"class.dealii::internal::Triangulation::TriaObjectsQuad3D", ptr %281, i64 0, i32 1
  %286 = shl i32 %278, 2
  %287 = load ptr, ptr %285, align 8, !tbaa !97, !noalias !133
  %288 = lshr i32 %286, 6
  %289 = zext i32 %288 to i64
  %290 = getelementptr inbounds i64, ptr %287, i64 %289
  %291 = and i32 %286, 60
  %292 = load i64, ptr %290, align 8, !tbaa !99, !noalias !133
  %293 = getelementptr inbounds %"class.dealii::internal::Triangulation::TriaFaces", ptr %281, i64 0, i32 1
  %294 = load ptr, ptr %293, align 8, !tbaa !100, !noalias !133
  %295 = load ptr, ptr %279, align 8, !tbaa !9, !noalias !133
  %296 = load i32, ptr %284, align 4, !tbaa !18, !noalias !133
  %297 = zext i32 %291 to i64
  %298 = lshr i64 %292, %297
  %299 = and i64 %298, 1
  %300 = getelementptr inbounds [2 x [2 x i32]], ptr @_ZZN6dealii8internal12TriaAccessor14Implementation12vertex_indexILi3ELi3EEEjRKNS_12TriaAccessorILi2EXT_EXT0_EEEjE12switch_table, i64 0, i64 %299, i64 0
  %301 = load i32, ptr %300, align 8, !tbaa !18, !noalias !133
  %302 = sext i32 %296 to i64
  %303 = getelementptr inbounds %"class.dealii::internal::Triangulation::TriaObject.277", ptr %294, i64 %302
  %304 = zext i32 %301 to i64
  %305 = getelementptr inbounds [2 x i32], ptr %303, i64 0, i64 %304
  %306 = load i32, ptr %305, align 4, !tbaa !18, !noalias !133
  %307 = zext i32 %306 to i64
  %308 = getelementptr inbounds %"class.dealii::Point", ptr %295, i64 %307
  %309 = load double, ptr %308, align 8, !tbaa !5, !noalias !133
  %310 = fadd double %309, 0.000000e+00
  %311 = getelementptr inbounds [4 x i32], ptr %284, i64 0, i64 1
  %312 = load i32, ptr %311, align 4, !tbaa !18, !noalias !133
  %313 = or i32 %291, 1
  %314 = zext i32 %313 to i64
  %315 = lshr i64 %292, %314
  %316 = and i64 %315, 1
  %317 = getelementptr inbounds [2 x [2 x i32]], ptr @_ZZN6dealii8internal12TriaAccessor14Implementation12vertex_indexILi3ELi3EEEjRKNS_12TriaAccessorILi2EXT_EXT0_EEEjE12switch_table, i64 0, i64 %316, i64 0
  %318 = load i32, ptr %317, align 8, !tbaa !18, !noalias !133
  %319 = sext i32 %312 to i64
  %320 = getelementptr inbounds %"class.dealii::internal::Triangulation::TriaObject.277", ptr %294, i64 %319
  %321 = zext i32 %318 to i64
  %322 = getelementptr inbounds [2 x i32], ptr %320, i64 0, i64 %321
  %323 = load i32, ptr %322, align 4, !tbaa !18, !noalias !133
  %324 = zext i32 %323 to i64
  %325 = getelementptr inbounds %"class.dealii::Point", ptr %295, i64 %324
  %326 = load double, ptr %325, align 8, !tbaa !5, !noalias !133
  %327 = fadd double %310, %326
  %328 = getelementptr inbounds [2 x [2 x i32]], ptr @_ZZN6dealii8internal12TriaAccessor14Implementation12vertex_indexILi3ELi3EEEjRKNS_12TriaAccessorILi2EXT_EXT0_EEEjE12switch_table, i64 0, i64 %299, i64 1
  %329 = load i32, ptr %328, align 4, !tbaa !18, !noalias !133
  %330 = zext i32 %329 to i64
  %331 = getelementptr inbounds [2 x i32], ptr %303, i64 0, i64 %330
  %332 = load i32, ptr %331, align 4, !tbaa !18, !noalias !133
  %333 = zext i32 %332 to i64
  %334 = getelementptr inbounds %"class.dealii::Point", ptr %295, i64 %333
  %335 = load double, ptr %334, align 8, !tbaa !5, !noalias !133
  %336 = fadd double %327, %335
  %337 = getelementptr inbounds [2 x [2 x i32]], ptr @_ZZN6dealii8internal12TriaAccessor14Implementation12vertex_indexILi3ELi3EEEjRKNS_12TriaAccessorILi2EXT_EXT0_EEEjE12switch_table, i64 0, i64 %316, i64 1
  %338 = load i32, ptr %337, align 4, !tbaa !18, !noalias !133
  %339 = zext i32 %338 to i64
  %340 = getelementptr inbounds [2 x i32], ptr %320, i64 0, i64 %339
  %341 = load i32, ptr %340, align 4, !tbaa !18, !noalias !133
  %342 = zext i32 %341 to i64
  %343 = getelementptr inbounds %"class.dealii::Point", ptr %295, i64 %342
  %344 = load double, ptr %343, align 8, !tbaa !5, !noalias !133
  %345 = fadd double %336, %344
  %346 = fmul double %345, 2.500000e-01
  %347 = fcmp ogt double %346, %147
  br i1 %347, label %348, label %592

348:                                              ; preds = %264
  %349 = getelementptr inbounds %"class.dealii::internal::Triangulation::TriaObjects.239", ptr %281, i64 0, i32 5
  %350 = load ptr, ptr %349, align 8, !tbaa !80
  %351 = getelementptr inbounds i8, ptr %350, i64 %282
  store i8 2, ptr %351, align 1, !tbaa !82
  %352 = load ptr, ptr %146, align 8, !tbaa !28, !noalias !133
  %353 = getelementptr inbounds %"class.dealii::Triangulation", ptr %352, i64 0, i32 1
  %354 = load i32, ptr %7, align 8, !tbaa !35, !noalias !133
  %355 = sext i32 %354 to i64
  %356 = load ptr, ptr %353, align 8, !tbaa !36, !noalias !133
  %357 = getelementptr inbounds ptr, ptr %356, i64 %355
  %358 = load ptr, ptr %357, align 8, !tbaa !38, !noalias !133
  %359 = getelementptr inbounds %"class.dealii::internal::Triangulation::TriaLevel", ptr %358, i64 0, i32 4
  %360 = load i32, ptr %139, align 4, !tbaa !39, !noalias !133
  %361 = sext i32 %360 to i64
  %362 = load ptr, ptr %359, align 8, !tbaa !40, !noalias !133
  %363 = getelementptr inbounds %"class.dealii::internal::Triangulation::TriaObject", ptr %362, i64 %361
  %364 = getelementptr inbounds [6 x i32], ptr %363, i64 0, i64 %260
  %365 = load i32, ptr %364, align 4, !tbaa !18, !noalias !133
  %366 = getelementptr inbounds %"class.dealii::Triangulation", ptr %352, i64 0, i32 2
  %367 = load ptr, ptr %366, align 8, !tbaa !42
  %368 = sext i32 %365 to i64
  %369 = load ptr, ptr %367, align 8, !tbaa !90, !noalias !133
  %370 = getelementptr inbounds %"class.dealii::internal::Triangulation::TriaObject.276", ptr %369, i64 %368
  %371 = load i32, ptr %370, align 4, !tbaa !18, !noalias !133
  %372 = getelementptr inbounds %"class.dealii::Triangulation", ptr %352, i64 0, i32 3
  %373 = getelementptr inbounds %"class.dealii::internal::Triangulation::TriaFaces", ptr %367, i64 0, i32 1
  %374 = sext i32 %371 to i64
  %375 = load ptr, ptr %373, align 8, !tbaa !100
  %376 = getelementptr inbounds %"class.dealii::internal::Triangulation::TriaObject.277", ptr %375, i64 %374
  %377 = load i32, ptr %376, align 4, !tbaa !18
  %378 = zext i32 %377 to i64
  %379 = load ptr, ptr %372, align 8, !tbaa !9
  %380 = getelementptr inbounds %"class.dealii::Point", ptr %379, i64 %378
  %381 = getelementptr inbounds [3 x double], ptr %380, i64 0, i64 1
  %382 = load double, ptr %381, align 8, !tbaa !5
  %383 = call double @llvm.fabs.f64(double %382)
  %384 = fcmp oeq double %383, %10
  br i1 %384, label %406, label %387

385:                                              ; preds = %259
  %386 = landingpad { ptr, i32 }
          cleanup
  br label %853

387:                                              ; preds = %348
  %388 = getelementptr inbounds [3 x double], ptr %380, i64 0, i64 2
  %389 = load double, ptr %388, align 8, !tbaa !5
  %390 = call double @llvm.fabs.f64(double %389)
  %391 = fcmp oeq double %390, %10
  br i1 %391, label %406, label %392

392:                                              ; preds = %387
  %393 = getelementptr inbounds [2 x i32], ptr %376, i64 0, i64 1
  %394 = load i32, ptr %393, align 4, !tbaa !18
  %395 = zext i32 %394 to i64
  %396 = getelementptr inbounds %"class.dealii::Point", ptr %379, i64 %395
  %397 = getelementptr inbounds [3 x double], ptr %396, i64 0, i64 1
  %398 = load double, ptr %397, align 8, !tbaa !5
  %399 = call double @llvm.fabs.f64(double %398)
  %400 = fcmp oeq double %399, %10
  br i1 %400, label %406, label %401

401:                                              ; preds = %392
  %402 = getelementptr inbounds [3 x double], ptr %396, i64 0, i64 2
  %403 = load double, ptr %402, align 8, !tbaa !5
  %404 = call double @llvm.fabs.f64(double %403)
  %405 = fcmp oeq double %404, %10
  br i1 %405, label %406, label %432

406:                                              ; preds = %392, %387, %348, %401
  %407 = getelementptr inbounds %"class.dealii::internal::Triangulation::TriaFaces", ptr %367, i64 0, i32 1, i32 5
  %408 = load ptr, ptr %407, align 8, !tbaa !80
  %409 = getelementptr inbounds i8, ptr %408, i64 %374
  store i8 2, ptr %409, align 1, !tbaa !82
  %410 = load ptr, ptr %146, align 8, !tbaa !28, !noalias !133
  %411 = load i32, ptr %7, align 8, !tbaa !35, !noalias !133
  %412 = getelementptr inbounds %"class.dealii::Triangulation", ptr %410, i64 0, i32 1
  %413 = load ptr, ptr %412, align 8, !tbaa !36, !noalias !133
  %414 = sext i32 %411 to i64
  %415 = getelementptr inbounds ptr, ptr %413, i64 %414
  %416 = load ptr, ptr %415, align 8, !tbaa !38, !noalias !133
  %417 = load i32, ptr %139, align 4, !tbaa !39, !noalias !133
  %418 = getelementptr inbounds %"class.dealii::internal::Triangulation::TriaLevel", ptr %416, i64 0, i32 4
  %419 = load ptr, ptr %418, align 8, !tbaa !40, !noalias !133
  %420 = sext i32 %417 to i64
  %421 = getelementptr inbounds %"class.dealii::internal::Triangulation::TriaObject", ptr %419, i64 %420
  %422 = getelementptr inbounds [6 x i32], ptr %421, i64 0, i64 %260
  %423 = load i32, ptr %422, align 4, !tbaa !18, !noalias !133
  %424 = getelementptr inbounds %"class.dealii::Triangulation", ptr %410, i64 0, i32 2
  %425 = load ptr, ptr %424, align 8, !tbaa !42
  %426 = load ptr, ptr %425, align 8, !tbaa !90, !noalias !133
  %427 = getelementptr inbounds %"class.dealii::internal::Triangulation::TriaFaces", ptr %425, i64 0, i32 1
  %428 = load ptr, ptr %427, align 8, !tbaa !100
  %429 = getelementptr inbounds %"class.dealii::Triangulation", ptr %410, i64 0, i32 3
  %430 = load ptr, ptr %429, align 8, !tbaa !9
  %431 = sext i32 %423 to i64
  br label %432

432:                                              ; preds = %401, %406
  %433 = phi i64 [ %368, %401 ], [ %431, %406 ]
  %434 = phi ptr [ %379, %401 ], [ %430, %406 ]
  %435 = phi ptr [ %375, %401 ], [ %428, %406 ]
  %436 = phi ptr [ %369, %401 ], [ %426, %406 ]
  %437 = phi ptr [ %367, %401 ], [ %425, %406 ]
  %438 = getelementptr inbounds %"class.dealii::internal::Triangulation::TriaObject.276", ptr %436, i64 %433, i32 0, i64 1
  %439 = load i32, ptr %438, align 4, !tbaa !18, !noalias !133
  %440 = sext i32 %439 to i64
  %441 = getelementptr inbounds %"class.dealii::internal::Triangulation::TriaObject.277", ptr %435, i64 %440
  %442 = load i32, ptr %441, align 4, !tbaa !18
  %443 = zext i32 %442 to i64
  %444 = getelementptr inbounds %"class.dealii::Point", ptr %434, i64 %443
  %445 = getelementptr inbounds [3 x double], ptr %444, i64 0, i64 1
  %446 = load double, ptr %445, align 8, !tbaa !5
  %447 = call double @llvm.fabs.f64(double %446)
  %448 = fcmp oeq double %447, %10
  br i1 %448, label %468, label %449

449:                                              ; preds = %432
  %450 = getelementptr inbounds [3 x double], ptr %444, i64 0, i64 2
  %451 = load double, ptr %450, align 8, !tbaa !5
  %452 = call double @llvm.fabs.f64(double %451)
  %453 = fcmp oeq double %452, %10
  br i1 %453, label %468, label %454

454:                                              ; preds = %449
  %455 = getelementptr inbounds [2 x i32], ptr %441, i64 0, i64 1
  %456 = load i32, ptr %455, align 4, !tbaa !18
  %457 = zext i32 %456 to i64
  %458 = getelementptr inbounds %"class.dealii::Point", ptr %434, i64 %457
  %459 = getelementptr inbounds [3 x double], ptr %458, i64 0, i64 1
  %460 = load double, ptr %459, align 8, !tbaa !5
  %461 = call double @llvm.fabs.f64(double %460)
  %462 = fcmp oeq double %461, %10
  br i1 %462, label %468, label %463

463:                                              ; preds = %454
  %464 = getelementptr inbounds [3 x double], ptr %458, i64 0, i64 2
  %465 = load double, ptr %464, align 8, !tbaa !5
  %466 = call double @llvm.fabs.f64(double %465)
  %467 = fcmp oeq double %466, %10
  br i1 %467, label %468, label %494

468:                                              ; preds = %463, %454, %449, %432
  %469 = getelementptr inbounds %"class.dealii::internal::Triangulation::TriaFaces", ptr %437, i64 0, i32 1, i32 5
  %470 = load ptr, ptr %469, align 8, !tbaa !80
  %471 = getelementptr inbounds i8, ptr %470, i64 %440
  store i8 2, ptr %471, align 1, !tbaa !82
  %472 = load ptr, ptr %146, align 8, !tbaa !28, !noalias !133
  %473 = load i32, ptr %7, align 8, !tbaa !35, !noalias !133
  %474 = getelementptr inbounds %"class.dealii::Triangulation", ptr %472, i64 0, i32 1
  %475 = load ptr, ptr %474, align 8, !tbaa !36, !noalias !133
  %476 = sext i32 %473 to i64
  %477 = getelementptr inbounds ptr, ptr %475, i64 %476
  %478 = load ptr, ptr %477, align 8, !tbaa !38, !noalias !133
  %479 = load i32, ptr %139, align 4, !tbaa !39, !noalias !133
  %480 = getelementptr inbounds %"class.dealii::internal::Triangulation::TriaLevel", ptr %478, i64 0, i32 4
  %481 = load ptr, ptr %480, align 8, !tbaa !40, !noalias !133
  %482 = sext i32 %479 to i64
  %483 = getelementptr inbounds %"class.dealii::internal::Triangulation::TriaObject", ptr %481, i64 %482
  %484 = getelementptr inbounds [6 x i32], ptr %483, i64 0, i64 %260
  %485 = load i32, ptr %484, align 4, !tbaa !18, !noalias !133
  %486 = getelementptr inbounds %"class.dealii::Triangulation", ptr %472, i64 0, i32 2
  %487 = load ptr, ptr %486, align 8, !tbaa !42
  %488 = load ptr, ptr %487, align 8, !tbaa !90, !noalias !133
  %489 = getelementptr inbounds %"class.dealii::internal::Triangulation::TriaFaces", ptr %487, i64 0, i32 1
  %490 = load ptr, ptr %489, align 8, !tbaa !100
  %491 = getelementptr inbounds %"class.dealii::Triangulation", ptr %472, i64 0, i32 3
  %492 = load ptr, ptr %491, align 8, !tbaa !9
  %493 = sext i32 %485 to i64
  br label %494

494:                                              ; preds = %468, %463
  %495 = phi i64 [ %493, %468 ], [ %433, %463 ]
  %496 = phi ptr [ %492, %468 ], [ %434, %463 ]
  %497 = phi ptr [ %490, %468 ], [ %435, %463 ]
  %498 = phi ptr [ %488, %468 ], [ %436, %463 ]
  %499 = phi ptr [ %487, %468 ], [ %437, %463 ]
  %500 = getelementptr inbounds %"class.dealii::internal::Triangulation::TriaObject.276", ptr %498, i64 %495, i32 0, i64 2
  %501 = load i32, ptr %500, align 4, !tbaa !18, !noalias !133
  %502 = sext i32 %501 to i64
  %503 = getelementptr inbounds %"class.dealii::internal::Triangulation::TriaObject.277", ptr %497, i64 %502
  %504 = load i32, ptr %503, align 4, !tbaa !18
  %505 = zext i32 %504 to i64
  %506 = getelementptr inbounds %"class.dealii::Point", ptr %496, i64 %505
  %507 = getelementptr inbounds [3 x double], ptr %506, i64 0, i64 1
  %508 = load double, ptr %507, align 8, !tbaa !5
  %509 = call double @llvm.fabs.f64(double %508)
  %510 = fcmp oeq double %509, %10
  br i1 %510, label %530, label %511

511:                                              ; preds = %494
  %512 = getelementptr inbounds [3 x double], ptr %506, i64 0, i64 2
  %513 = load double, ptr %512, align 8, !tbaa !5
  %514 = call double @llvm.fabs.f64(double %513)
  %515 = fcmp oeq double %514, %10
  br i1 %515, label %530, label %516

516:                                              ; preds = %511
  %517 = getelementptr inbounds [2 x i32], ptr %503, i64 0, i64 1
  %518 = load i32, ptr %517, align 4, !tbaa !18
  %519 = zext i32 %518 to i64
  %520 = getelementptr inbounds %"class.dealii::Point", ptr %496, i64 %519
  %521 = getelementptr inbounds [3 x double], ptr %520, i64 0, i64 1
  %522 = load double, ptr %521, align 8, !tbaa !5
  %523 = call double @llvm.fabs.f64(double %522)
  %524 = fcmp oeq double %523, %10
  br i1 %524, label %530, label %525

525:                                              ; preds = %516
  %526 = getelementptr inbounds [3 x double], ptr %520, i64 0, i64 2
  %527 = load double, ptr %526, align 8, !tbaa !5
  %528 = call double @llvm.fabs.f64(double %527)
  %529 = fcmp oeq double %528, %10
  br i1 %529, label %530, label %556

530:                                              ; preds = %525, %516, %511, %494
  %531 = getelementptr inbounds %"class.dealii::internal::Triangulation::TriaFaces", ptr %499, i64 0, i32 1, i32 5
  %532 = load ptr, ptr %531, align 8, !tbaa !80
  %533 = getelementptr inbounds i8, ptr %532, i64 %502
  store i8 2, ptr %533, align 1, !tbaa !82
  %534 = load ptr, ptr %146, align 8, !tbaa !28, !noalias !133
  %535 = load i32, ptr %7, align 8, !tbaa !35, !noalias !133
  %536 = getelementptr inbounds %"class.dealii::Triangulation", ptr %534, i64 0, i32 1
  %537 = load ptr, ptr %536, align 8, !tbaa !36, !noalias !133
  %538 = sext i32 %535 to i64
  %539 = getelementptr inbounds ptr, ptr %537, i64 %538
  %540 = load ptr, ptr %539, align 8, !tbaa !38, !noalias !133
  %541 = load i32, ptr %139, align 4, !tbaa !39, !noalias !133
  %542 = getelementptr inbounds %"class.dealii::internal::Triangulation::TriaLevel", ptr %540, i64 0, i32 4
  %543 = load ptr, ptr %542, align 8, !tbaa !40, !noalias !133
  %544 = sext i32 %541 to i64
  %545 = getelementptr inbounds %"class.dealii::internal::Triangulation::TriaObject", ptr %543, i64 %544
  %546 = getelementptr inbounds [6 x i32], ptr %545, i64 0, i64 %260
  %547 = load i32, ptr %546, align 4, !tbaa !18, !noalias !133
  %548 = getelementptr inbounds %"class.dealii::Triangulation", ptr %534, i64 0, i32 2
  %549 = load ptr, ptr %548, align 8, !tbaa !42
  %550 = load ptr, ptr %549, align 8, !tbaa !90, !noalias !133
  %551 = getelementptr inbounds %"class.dealii::internal::Triangulation::TriaFaces", ptr %549, i64 0, i32 1
  %552 = load ptr, ptr %551, align 8, !tbaa !100
  %553 = getelementptr inbounds %"class.dealii::Triangulation", ptr %534, i64 0, i32 3
  %554 = load ptr, ptr %553, align 8, !tbaa !9
  %555 = sext i32 %547 to i64
  br label %556

556:                                              ; preds = %530, %525
  %557 = phi i64 [ %555, %530 ], [ %495, %525 ]
  %558 = phi ptr [ %554, %530 ], [ %496, %525 ]
  %559 = phi ptr [ %552, %530 ], [ %497, %525 ]
  %560 = phi ptr [ %550, %530 ], [ %498, %525 ]
  %561 = phi ptr [ %549, %530 ], [ %499, %525 ]
  %562 = getelementptr inbounds %"class.dealii::internal::Triangulation::TriaObject.276", ptr %560, i64 %557, i32 0, i64 3
  %563 = load i32, ptr %562, align 4, !tbaa !18, !noalias !133
  %564 = sext i32 %563 to i64
  %565 = getelementptr inbounds %"class.dealii::internal::Triangulation::TriaObject.277", ptr %559, i64 %564
  %566 = load i32, ptr %565, align 4, !tbaa !18
  %567 = zext i32 %566 to i64
  %568 = getelementptr inbounds %"class.dealii::Point", ptr %558, i64 %567
  %569 = getelementptr inbounds [3 x double], ptr %568, i64 0, i64 1
  %570 = load double, ptr %569, align 8, !tbaa !5
  %571 = call double @llvm.fabs.f64(double %570)
  %572 = fcmp oeq double %571, %10
  br i1 %572, label %836, label %573

573:                                              ; preds = %556
  %574 = getelementptr inbounds [3 x double], ptr %568, i64 0, i64 2
  %575 = load double, ptr %574, align 8, !tbaa !5
  %576 = call double @llvm.fabs.f64(double %575)
  %577 = fcmp oeq double %576, %10
  br i1 %577, label %836, label %578

578:                                              ; preds = %573
  %579 = getelementptr inbounds [2 x i32], ptr %565, i64 0, i64 1
  %580 = load i32, ptr %579, align 4, !tbaa !18
  %581 = zext i32 %580 to i64
  %582 = getelementptr inbounds %"class.dealii::Point", ptr %558, i64 %581
  %583 = getelementptr inbounds [3 x double], ptr %582, i64 0, i64 1
  %584 = load double, ptr %583, align 8, !tbaa !5
  %585 = call double @llvm.fabs.f64(double %584)
  %586 = fcmp oeq double %585, %10
  br i1 %586, label %836, label %587

587:                                              ; preds = %578
  %588 = getelementptr inbounds [3 x double], ptr %582, i64 0, i64 2
  %589 = load double, ptr %588, align 8, !tbaa !5
  %590 = call double @llvm.fabs.f64(double %589)
  %591 = fcmp oeq double %590, %10
  br i1 %591, label %836, label %843

592:                                              ; preds = %264
  %593 = fcmp olt double %346, %148
  br i1 %593, label %594, label %843

594:                                              ; preds = %592
  %595 = getelementptr inbounds %"class.dealii::internal::Triangulation::TriaObjects.239", ptr %281, i64 0, i32 5
  %596 = load ptr, ptr %595, align 8, !tbaa !80
  %597 = getelementptr inbounds i8, ptr %596, i64 %282
  store i8 1, ptr %597, align 1, !tbaa !82
  %598 = load ptr, ptr %146, align 8, !tbaa !28, !noalias !133
  %599 = getelementptr inbounds %"class.dealii::Triangulation", ptr %598, i64 0, i32 1
  %600 = load i32, ptr %7, align 8, !tbaa !35, !noalias !133
  %601 = sext i32 %600 to i64
  %602 = load ptr, ptr %599, align 8, !tbaa !36, !noalias !133
  %603 = getelementptr inbounds ptr, ptr %602, i64 %601
  %604 = load ptr, ptr %603, align 8, !tbaa !38, !noalias !133
  %605 = getelementptr inbounds %"class.dealii::internal::Triangulation::TriaLevel", ptr %604, i64 0, i32 4
  %606 = load i32, ptr %139, align 4, !tbaa !39, !noalias !133
  %607 = sext i32 %606 to i64
  %608 = load ptr, ptr %605, align 8, !tbaa !40, !noalias !133
  %609 = getelementptr inbounds %"class.dealii::internal::Triangulation::TriaObject", ptr %608, i64 %607
  %610 = getelementptr inbounds [6 x i32], ptr %609, i64 0, i64 %260
  %611 = load i32, ptr %610, align 4, !tbaa !18, !noalias !133
  %612 = getelementptr inbounds %"class.dealii::Triangulation", ptr %598, i64 0, i32 2
  %613 = load ptr, ptr %612, align 8, !tbaa !42
  %614 = sext i32 %611 to i64
  %615 = load ptr, ptr %613, align 8, !tbaa !90, !noalias !133
  %616 = getelementptr inbounds %"class.dealii::internal::Triangulation::TriaObject.276", ptr %615, i64 %614
  %617 = load i32, ptr %616, align 4, !tbaa !18, !noalias !133
  %618 = getelementptr inbounds %"class.dealii::Triangulation", ptr %598, i64 0, i32 3
  %619 = getelementptr inbounds %"class.dealii::internal::Triangulation::TriaFaces", ptr %613, i64 0, i32 1
  %620 = sext i32 %617 to i64
  %621 = load ptr, ptr %619, align 8, !tbaa !100
  %622 = getelementptr inbounds %"class.dealii::internal::Triangulation::TriaObject.277", ptr %621, i64 %620
  %623 = load i32, ptr %622, align 4, !tbaa !18
  %624 = zext i32 %623 to i64
  %625 = load ptr, ptr %618, align 8, !tbaa !9
  %626 = getelementptr inbounds %"class.dealii::Point", ptr %625, i64 %624
  %627 = getelementptr inbounds [3 x double], ptr %626, i64 0, i64 1
  %628 = load double, ptr %627, align 8, !tbaa !5
  %629 = call double @llvm.fabs.f64(double %628)
  %630 = fcmp oeq double %629, %10
  br i1 %630, label %650, label %631

631:                                              ; preds = %594
  %632 = getelementptr inbounds [3 x double], ptr %626, i64 0, i64 2
  %633 = load double, ptr %632, align 8, !tbaa !5
  %634 = call double @llvm.fabs.f64(double %633)
  %635 = fcmp oeq double %634, %10
  br i1 %635, label %650, label %636

636:                                              ; preds = %631
  %637 = getelementptr inbounds [2 x i32], ptr %622, i64 0, i64 1
  %638 = load i32, ptr %637, align 4, !tbaa !18
  %639 = zext i32 %638 to i64
  %640 = getelementptr inbounds %"class.dealii::Point", ptr %625, i64 %639
  %641 = getelementptr inbounds [3 x double], ptr %640, i64 0, i64 1
  %642 = load double, ptr %641, align 8, !tbaa !5
  %643 = call double @llvm.fabs.f64(double %642)
  %644 = fcmp oeq double %643, %10
  br i1 %644, label %650, label %645

645:                                              ; preds = %636
  %646 = getelementptr inbounds [3 x double], ptr %640, i64 0, i64 2
  %647 = load double, ptr %646, align 8, !tbaa !5
  %648 = call double @llvm.fabs.f64(double %647)
  %649 = fcmp oeq double %648, %10
  br i1 %649, label %650, label %676

650:                                              ; preds = %636, %631, %594, %645
  %651 = getelementptr inbounds %"class.dealii::internal::Triangulation::TriaFaces", ptr %613, i64 0, i32 1, i32 5
  %652 = load ptr, ptr %651, align 8, !tbaa !80
  %653 = getelementptr inbounds i8, ptr %652, i64 %620
  store i8 1, ptr %653, align 1, !tbaa !82
  %654 = load ptr, ptr %146, align 8, !tbaa !28, !noalias !133
  %655 = load i32, ptr %7, align 8, !tbaa !35, !noalias !133
  %656 = getelementptr inbounds %"class.dealii::Triangulation", ptr %654, i64 0, i32 1
  %657 = load ptr, ptr %656, align 8, !tbaa !36, !noalias !133
  %658 = sext i32 %655 to i64
  %659 = getelementptr inbounds ptr, ptr %657, i64 %658
  %660 = load ptr, ptr %659, align 8, !tbaa !38, !noalias !133
  %661 = load i32, ptr %139, align 4, !tbaa !39, !noalias !133
  %662 = getelementptr inbounds %"class.dealii::internal::Triangulation::TriaLevel", ptr %660, i64 0, i32 4
  %663 = load ptr, ptr %662, align 8, !tbaa !40, !noalias !133
  %664 = sext i32 %661 to i64
  %665 = getelementptr inbounds %"class.dealii::internal::Triangulation::TriaObject", ptr %663, i64 %664
  %666 = getelementptr inbounds [6 x i32], ptr %665, i64 0, i64 %260
  %667 = load i32, ptr %666, align 4, !tbaa !18, !noalias !133
  %668 = getelementptr inbounds %"class.dealii::Triangulation", ptr %654, i64 0, i32 2
  %669 = load ptr, ptr %668, align 8, !tbaa !42
  %670 = load ptr, ptr %669, align 8, !tbaa !90, !noalias !133
  %671 = getelementptr inbounds %"class.dealii::internal::Triangulation::TriaFaces", ptr %669, i64 0, i32 1
  %672 = load ptr, ptr %671, align 8, !tbaa !100
  %673 = getelementptr inbounds %"class.dealii::Triangulation", ptr %654, i64 0, i32 3
  %674 = load ptr, ptr %673, align 8, !tbaa !9
  %675 = sext i32 %667 to i64
  br label %676

676:                                              ; preds = %645, %650
  %677 = phi i64 [ %614, %645 ], [ %675, %650 ]
  %678 = phi ptr [ %625, %645 ], [ %674, %650 ]
  %679 = phi ptr [ %621, %645 ], [ %672, %650 ]
  %680 = phi ptr [ %615, %645 ], [ %670, %650 ]
  %681 = phi ptr [ %613, %645 ], [ %669, %650 ]
  %682 = getelementptr inbounds %"class.dealii::internal::Triangulation::TriaObject.276", ptr %680, i64 %677, i32 0, i64 1
  %683 = load i32, ptr %682, align 4, !tbaa !18, !noalias !133
  %684 = sext i32 %683 to i64
  %685 = getelementptr inbounds %"class.dealii::internal::Triangulation::TriaObject.277", ptr %679, i64 %684
  %686 = load i32, ptr %685, align 4, !tbaa !18
  %687 = zext i32 %686 to i64
  %688 = getelementptr inbounds %"class.dealii::Point", ptr %678, i64 %687
  %689 = getelementptr inbounds [3 x double], ptr %688, i64 0, i64 1
  %690 = load double, ptr %689, align 8, !tbaa !5
  %691 = call double @llvm.fabs.f64(double %690)
  %692 = fcmp oeq double %691, %10
  br i1 %692, label %712, label %693

693:                                              ; preds = %676
  %694 = getelementptr inbounds [3 x double], ptr %688, i64 0, i64 2
  %695 = load double, ptr %694, align 8, !tbaa !5
  %696 = call double @llvm.fabs.f64(double %695)
  %697 = fcmp oeq double %696, %10
  br i1 %697, label %712, label %698

698:                                              ; preds = %693
  %699 = getelementptr inbounds [2 x i32], ptr %685, i64 0, i64 1
  %700 = load i32, ptr %699, align 4, !tbaa !18
  %701 = zext i32 %700 to i64
  %702 = getelementptr inbounds %"class.dealii::Point", ptr %678, i64 %701
  %703 = getelementptr inbounds [3 x double], ptr %702, i64 0, i64 1
  %704 = load double, ptr %703, align 8, !tbaa !5
  %705 = call double @llvm.fabs.f64(double %704)
  %706 = fcmp oeq double %705, %10
  br i1 %706, label %712, label %707

707:                                              ; preds = %698
  %708 = getelementptr inbounds [3 x double], ptr %702, i64 0, i64 2
  %709 = load double, ptr %708, align 8, !tbaa !5
  %710 = call double @llvm.fabs.f64(double %709)
  %711 = fcmp oeq double %710, %10
  br i1 %711, label %712, label %738

712:                                              ; preds = %707, %698, %693, %676
  %713 = getelementptr inbounds %"class.dealii::internal::Triangulation::TriaFaces", ptr %681, i64 0, i32 1, i32 5
  %714 = load ptr, ptr %713, align 8, !tbaa !80
  %715 = getelementptr inbounds i8, ptr %714, i64 %684
  store i8 1, ptr %715, align 1, !tbaa !82
  %716 = load ptr, ptr %146, align 8, !tbaa !28, !noalias !133
  %717 = load i32, ptr %7, align 8, !tbaa !35, !noalias !133
  %718 = getelementptr inbounds %"class.dealii::Triangulation", ptr %716, i64 0, i32 1
  %719 = load ptr, ptr %718, align 8, !tbaa !36, !noalias !133
  %720 = sext i32 %717 to i64
  %721 = getelementptr inbounds ptr, ptr %719, i64 %720
  %722 = load ptr, ptr %721, align 8, !tbaa !38, !noalias !133
  %723 = load i32, ptr %139, align 4, !tbaa !39, !noalias !133
  %724 = getelementptr inbounds %"class.dealii::internal::Triangulation::TriaLevel", ptr %722, i64 0, i32 4
  %725 = load ptr, ptr %724, align 8, !tbaa !40, !noalias !133
  %726 = sext i32 %723 to i64
  %727 = getelementptr inbounds %"class.dealii::internal::Triangulation::TriaObject", ptr %725, i64 %726
  %728 = getelementptr inbounds [6 x i32], ptr %727, i64 0, i64 %260
  %729 = load i32, ptr %728, align 4, !tbaa !18, !noalias !133
  %730 = getelementptr inbounds %"class.dealii::Triangulation", ptr %716, i64 0, i32 2
  %731 = load ptr, ptr %730, align 8, !tbaa !42
  %732 = load ptr, ptr %731, align 8, !tbaa !90, !noalias !133
  %733 = getelementptr inbounds %"class.dealii::internal::Triangulation::TriaFaces", ptr %731, i64 0, i32 1
  %734 = load ptr, ptr %733, align 8, !tbaa !100
  %735 = getelementptr inbounds %"class.dealii::Triangulation", ptr %716, i64 0, i32 3
  %736 = load ptr, ptr %735, align 8, !tbaa !9
  %737 = sext i32 %729 to i64
  br label %738

738:                                              ; preds = %712, %707
  %739 = phi i64 [ %737, %712 ], [ %677, %707 ]
  %740 = phi ptr [ %736, %712 ], [ %678, %707 ]
  %741 = phi ptr [ %734, %712 ], [ %679, %707 ]
  %742 = phi ptr [ %732, %712 ], [ %680, %707 ]
  %743 = phi ptr [ %731, %712 ], [ %681, %707 ]
  %744 = getelementptr inbounds %"class.dealii::internal::Triangulation::TriaObject.276", ptr %742, i64 %739, i32 0, i64 2
  %745 = load i32, ptr %744, align 4, !tbaa !18, !noalias !133
  %746 = sext i32 %745 to i64
  %747 = getelementptr inbounds %"class.dealii::internal::Triangulation::TriaObject.277", ptr %741, i64 %746
  %748 = load i32, ptr %747, align 4, !tbaa !18
  %749 = zext i32 %748 to i64
  %750 = getelementptr inbounds %"class.dealii::Point", ptr %740, i64 %749
  %751 = getelementptr inbounds [3 x double], ptr %750, i64 0, i64 1
  %752 = load double, ptr %751, align 8, !tbaa !5
  %753 = call double @llvm.fabs.f64(double %752)
  %754 = fcmp oeq double %753, %10
  br i1 %754, label %774, label %755

755:                                              ; preds = %738
  %756 = getelementptr inbounds [3 x double], ptr %750, i64 0, i64 2
  %757 = load double, ptr %756, align 8, !tbaa !5
  %758 = call double @llvm.fabs.f64(double %757)
  %759 = fcmp oeq double %758, %10
  br i1 %759, label %774, label %760

760:                                              ; preds = %755
  %761 = getelementptr inbounds [2 x i32], ptr %747, i64 0, i64 1
  %762 = load i32, ptr %761, align 4, !tbaa !18
  %763 = zext i32 %762 to i64
  %764 = getelementptr inbounds %"class.dealii::Point", ptr %740, i64 %763
  %765 = getelementptr inbounds [3 x double], ptr %764, i64 0, i64 1
  %766 = load double, ptr %765, align 8, !tbaa !5
  %767 = call double @llvm.fabs.f64(double %766)
  %768 = fcmp oeq double %767, %10
  br i1 %768, label %774, label %769

769:                                              ; preds = %760
  %770 = getelementptr inbounds [3 x double], ptr %764, i64 0, i64 2
  %771 = load double, ptr %770, align 8, !tbaa !5
  %772 = call double @llvm.fabs.f64(double %771)
  %773 = fcmp oeq double %772, %10
  br i1 %773, label %774, label %800

774:                                              ; preds = %769, %760, %755, %738
  %775 = getelementptr inbounds %"class.dealii::internal::Triangulation::TriaFaces", ptr %743, i64 0, i32 1, i32 5
  %776 = load ptr, ptr %775, align 8, !tbaa !80
  %777 = getelementptr inbounds i8, ptr %776, i64 %746
  store i8 1, ptr %777, align 1, !tbaa !82
  %778 = load ptr, ptr %146, align 8, !tbaa !28, !noalias !133
  %779 = load i32, ptr %7, align 8, !tbaa !35, !noalias !133
  %780 = getelementptr inbounds %"class.dealii::Triangulation", ptr %778, i64 0, i32 1
  %781 = load ptr, ptr %780, align 8, !tbaa !36, !noalias !133
  %782 = sext i32 %779 to i64
  %783 = getelementptr inbounds ptr, ptr %781, i64 %782
  %784 = load ptr, ptr %783, align 8, !tbaa !38, !noalias !133
  %785 = load i32, ptr %139, align 4, !tbaa !39, !noalias !133
  %786 = getelementptr inbounds %"class.dealii::internal::Triangulation::TriaLevel", ptr %784, i64 0, i32 4
  %787 = load ptr, ptr %786, align 8, !tbaa !40, !noalias !133
  %788 = sext i32 %785 to i64
  %789 = getelementptr inbounds %"class.dealii::internal::Triangulation::TriaObject", ptr %787, i64 %788
  %790 = getelementptr inbounds [6 x i32], ptr %789, i64 0, i64 %260
  %791 = load i32, ptr %790, align 4, !tbaa !18, !noalias !133
  %792 = getelementptr inbounds %"class.dealii::Triangulation", ptr %778, i64 0, i32 2
  %793 = load ptr, ptr %792, align 8, !tbaa !42
  %794 = load ptr, ptr %793, align 8, !tbaa !90, !noalias !133
  %795 = getelementptr inbounds %"class.dealii::internal::Triangulation::TriaFaces", ptr %793, i64 0, i32 1
  %796 = load ptr, ptr %795, align 8, !tbaa !100
  %797 = getelementptr inbounds %"class.dealii::Triangulation", ptr %778, i64 0, i32 3
  %798 = load ptr, ptr %797, align 8, !tbaa !9
  %799 = sext i32 %791 to i64
  br label %800

800:                                              ; preds = %774, %769
  %801 = phi i64 [ %799, %774 ], [ %739, %769 ]
  %802 = phi ptr [ %798, %774 ], [ %740, %769 ]
  %803 = phi ptr [ %796, %774 ], [ %741, %769 ]
  %804 = phi ptr [ %794, %774 ], [ %742, %769 ]
  %805 = phi ptr [ %793, %774 ], [ %743, %769 ]
  %806 = getelementptr inbounds %"class.dealii::internal::Triangulation::TriaObject.276", ptr %804, i64 %801, i32 0, i64 3
  %807 = load i32, ptr %806, align 4, !tbaa !18, !noalias !133
  %808 = sext i32 %807 to i64
  %809 = getelementptr inbounds %"class.dealii::internal::Triangulation::TriaObject.277", ptr %803, i64 %808
  %810 = load i32, ptr %809, align 4, !tbaa !18
  %811 = zext i32 %810 to i64
  %812 = getelementptr inbounds %"class.dealii::Point", ptr %802, i64 %811
  %813 = getelementptr inbounds [3 x double], ptr %812, i64 0, i64 1
  %814 = load double, ptr %813, align 8, !tbaa !5
  %815 = call double @llvm.fabs.f64(double %814)
  %816 = fcmp oeq double %815, %10
  br i1 %816, label %836, label %817

817:                                              ; preds = %800
  %818 = getelementptr inbounds [3 x double], ptr %812, i64 0, i64 2
  %819 = load double, ptr %818, align 8, !tbaa !5
  %820 = call double @llvm.fabs.f64(double %819)
  %821 = fcmp oeq double %820, %10
  br i1 %821, label %836, label %822

822:                                              ; preds = %817
  %823 = getelementptr inbounds [2 x i32], ptr %809, i64 0, i64 1
  %824 = load i32, ptr %823, align 4, !tbaa !18
  %825 = zext i32 %824 to i64
  %826 = getelementptr inbounds %"class.dealii::Point", ptr %802, i64 %825
  %827 = getelementptr inbounds [3 x double], ptr %826, i64 0, i64 1
  %828 = load double, ptr %827, align 8, !tbaa !5
  %829 = call double @llvm.fabs.f64(double %828)
  %830 = fcmp oeq double %829, %10
  br i1 %830, label %836, label %831

831:                                              ; preds = %822
  %832 = getelementptr inbounds [3 x double], ptr %826, i64 0, i64 2
  %833 = load double, ptr %832, align 8, !tbaa !5
  %834 = call double @llvm.fabs.f64(double %833)
  %835 = fcmp oeq double %834, %10
  br i1 %835, label %836, label %843

836:                                              ; preds = %800, %817, %822, %831, %556, %573, %578, %587
  %837 = phi ptr [ %561, %587 ], [ %561, %578 ], [ %561, %573 ], [ %561, %556 ], [ %805, %831 ], [ %805, %822 ], [ %805, %817 ], [ %805, %800 ]
  %838 = phi i64 [ %564, %587 ], [ %564, %578 ], [ %564, %573 ], [ %564, %556 ], [ %808, %831 ], [ %808, %822 ], [ %808, %817 ], [ %808, %800 ]
  %839 = phi i8 [ 2, %587 ], [ 2, %578 ], [ 2, %573 ], [ 2, %556 ], [ 1, %831 ], [ 1, %822 ], [ 1, %817 ], [ 1, %800 ]
  %840 = getelementptr inbounds %"class.dealii::internal::Triangulation::TriaFaces", ptr %837, i64 0, i32 1, i32 5
  %841 = load ptr, ptr %840, align 8, !tbaa !80
  %842 = getelementptr inbounds i8, ptr %841, i64 %838
  store i8 %839, ptr %842, align 1, !tbaa !82
  br label %843

843:                                              ; preds = %836, %831, %587, %263, %592
  %844 = add nuw nsw i64 %260, 1
  %845 = icmp eq i64 %844, 6
  br i1 %845, label %149, label %846

846:                                              ; preds = %843, %243
  %847 = phi i64 [ %844, %843 ], [ 0, %243 ]
  br label %259

848:                                              ; preds = %243, %135
  call void @llvm.lifetime.end.p0(i64 16, ptr nonnull %7) #23
  %849 = load ptr, ptr %4, align 8, !tbaa !14
  %850 = icmp eq ptr %849, null
  br i1 %850, label %852, label %851

851:                                              ; preds = %848
  call void @_ZdlPv(ptr noundef nonnull %849) #25
  br label %852

852:                                              ; preds = %848, %851
  call void @llvm.lifetime.end.p0(i64 24, ptr nonnull %4) #23
  ret void

853:                                              ; preds = %257, %385, %255
  %854 = phi { ptr, i32 } [ %256, %255 ], [ %258, %257 ], [ %386, %385 ]
  call void @llvm.lifetime.end.p0(i64 16, ptr nonnull %7) #23
  br label %855

855:                                              ; preds = %853, %253
  %856 = phi { ptr, i32 } [ %854, %853 ], [ %254, %253 ]
  %857 = load ptr, ptr %4, align 8, !tbaa !14
  %858 = icmp eq ptr %857, null
  br i1 %858, label %860, label %859

859:                                              ; preds = %855
  call void @_ZdlPv(ptr noundef nonnull %857) #25
  br label %860

860:                                              ; preds = %859, %855
  call void @llvm.lifetime.end.p0(i64 24, ptr nonnull %4) #23
  resume { ptr, i32 } %856

861:                                              ; preds = %247
  %862 = landingpad { ptr, i32 }
          catch ptr null
  %863 = extractvalue { ptr, i32 } %862, 0
  call void @__clang_call_terminate(ptr %863) #26
  unreachable
}

declare void @_ZNK6dealii13TriangulationILi3ELi3EE5beginEj(ptr sret(%"class.dealii::TriaIterator") align 8, ptr noundef nonnull align 8 dereferenceable(8552), i32 noundef) local_unnamed_addr #8

declare void @_ZNK6dealii13TriangulationILi3ELi3EE3endEv(ptr sret(%"class.dealii::TriaRawIterator") align 8, ptr noundef nonnull align 8 dereferenceable(8552)) local_unnamed_addr #8

declare noundef zeroext i1 @_ZNK6dealii12CellAccessorILi3ELi3EE11at_boundaryEj(ptr noundef nonnull align 8 dereferenceable(16), i32 noundef) local_unnamed_addr #8

; Function Attrs: mustprogress nocallback nofree nosync nounwind speculatable willreturn memory(none)
declare double @llvm.fabs.f64(double) #2

; Function Attrs: sspstrong uwtable
define weak_odr dso_local void @_ZN6dealii13GridGenerator7hyper_LILi3EEEvRNS_13TriangulationIXT_EXT_EEEdd(ptr noundef nonnull align 8 dereferenceable(8552) %0, double noundef %1, double noundef %2) local_unnamed_addr #0 comdat align 2 personality ptr @__gxx_personality_v0 {
  %4 = alloca %"class.std::vector.38", align 8
  %5 = alloca %"class.std::vector.19", align 8
  %6 = alloca %"struct.dealii::SubCellData", align 8
  call void @llvm.lifetime.start.p0(i64 24, ptr nonnull %4) #23
  %7 = tail call noalias noundef nonnull dereferenceable(252) ptr @_Znwm(i64 noundef 252) #24
  store ptr %7, ptr %4, align 8, !tbaa !14
  %8 = getelementptr inbounds %"struct.std::_Vector_base<dealii::CellData<3>, std::allocator<dealii::CellData<3> > >::_Vector_impl_data", ptr %4, i64 0, i32 1
  %9 = getelementptr inbounds %"struct.dealii::CellData", ptr %7, i64 7
  %10 = getelementptr inbounds %"struct.std::_Vector_base<dealii::CellData<3>, std::allocator<dealii::CellData<3> > >::_Vector_impl_data", ptr %4, i64 0, i32 2
  store ptr %9, ptr %10, align 8, !tbaa !16
  %11 = getelementptr inbounds %"struct.dealii::CellData", ptr %7, i64 1
  %12 = getelementptr inbounds %"struct.dealii::CellData", ptr %7, i64 2
  %13 = getelementptr inbounds %"struct.dealii::CellData", ptr %7, i64 3
  %14 = getelementptr inbounds %"struct.dealii::CellData", ptr %7, i64 4
  %15 = getelementptr inbounds %"struct.dealii::CellData", ptr %7, i64 5
  %16 = getelementptr inbounds %"struct.dealii::CellData", ptr %7, i64 6
  store ptr %9, ptr %8, align 8, !tbaa !17
  %17 = getelementptr inbounds i8, ptr %7, i64 32
  store i32 0, ptr %17, align 4
  tail call void @llvm.memcpy.p0.p0.i64(ptr noundef nonnull align 4 dereferenceable(32) %7, ptr noundef nonnull align 16 dereferenceable(32) @__const._ZN6dealii13GridGenerator7hyper_LILi3EEEvRNS_13TriangulationIXT_EXT_EEEdd.cell_vertices, i64 32, i1 false), !tbaa !18
  %18 = getelementptr inbounds %"struct.dealii::CellData", ptr %7, i64 1, i32 1
  store i32 0, ptr %18, align 4
  tail call void @llvm.memcpy.p0.p0.i64(ptr noundef nonnull align 4 dereferenceable(32) %11, ptr noundef nonnull align 16 dereferenceable(32) getelementptr inbounds ([7 x [8 x i32]], ptr @__const._ZN6dealii13GridGenerator7hyper_LILi3EEEvRNS_13TriangulationIXT_EXT_EEEdd.cell_vertices, i64 0, i64 1, i64 0), i64 32, i1 false), !tbaa !18
  %19 = getelementptr inbounds %"struct.dealii::CellData", ptr %7, i64 2, i32 1
  store i32 0, ptr %19, align 4
  tail call void @llvm.memcpy.p0.p0.i64(ptr noundef nonnull align 4 dereferenceable(32) %12, ptr noundef nonnull align 16 dereferenceable(32) getelementptr inbounds ([7 x [8 x i32]], ptr @__const._ZN6dealii13GridGenerator7hyper_LILi3EEEvRNS_13TriangulationIXT_EXT_EEEdd.cell_vertices, i64 0, i64 2, i64 0), i64 32, i1 false), !tbaa !18
  %20 = getelementptr inbounds %"struct.dealii::CellData", ptr %7, i64 3, i32 1
  store i32 0, ptr %20, align 4
  tail call void @llvm.memcpy.p0.p0.i64(ptr noundef nonnull align 4 dereferenceable(32) %13, ptr noundef nonnull align 16 dereferenceable(32) getelementptr inbounds ([7 x [8 x i32]], ptr @__const._ZN6dealii13GridGenerator7hyper_LILi3EEEvRNS_13TriangulationIXT_EXT_EEEdd.cell_vertices, i64 0, i64 3, i64 0), i64 32, i1 false), !tbaa !18
  %21 = getelementptr inbounds %"struct.dealii::CellData", ptr %7, i64 4, i32 1
  store i32 0, ptr %21, align 4
  tail call void @llvm.memcpy.p0.p0.i64(ptr noundef nonnull align 4 dereferenceable(32) %14, ptr noundef nonnull align 16 dereferenceable(32) getelementptr inbounds ([7 x [8 x i32]], ptr @__const._ZN6dealii13GridGenerator7hyper_LILi3EEEvRNS_13TriangulationIXT_EXT_EEEdd.cell_vertices, i64 0, i64 4, i64 0), i64 32, i1 false), !tbaa !18
  %22 = getelementptr inbounds %"struct.dealii::CellData", ptr %7, i64 5, i32 1
  store i32 0, ptr %22, align 4
  tail call void @llvm.memcpy.p0.p0.i64(ptr noundef nonnull align 4 dereferenceable(32) %15, ptr noundef nonnull align 16 dereferenceable(32) getelementptr inbounds ([7 x [8 x i32]], ptr @__const._ZN6dealii13GridGenerator7hyper_LILi3EEEvRNS_13TriangulationIXT_EXT_EEEdd.cell_vertices, i64 0, i64 5, i64 0), i64 32, i1 false), !tbaa !18
  %23 = getelementptr inbounds %"struct.dealii::CellData", ptr %7, i64 6, i32 1
  store i32 0, ptr %23, align 4
  tail call void @llvm.memcpy.p0.p0.i64(ptr noundef nonnull align 4 dereferenceable(32) %16, ptr noundef nonnull align 16 dereferenceable(32) getelementptr inbounds ([7 x [8 x i32]], ptr @__const._ZN6dealii13GridGenerator7hyper_LILi3EEEvRNS_13TriangulationIXT_EXT_EEEdd.cell_vertices, i64 0, i64 6, i64 0), i64 32, i1 false), !tbaa !18
  call void @llvm.lifetime.start.p0(i64 24, ptr nonnull %5) #23
  %24 = getelementptr inbounds i8, ptr %5, i64 8
  store i64 0, ptr %24, align 8
  %25 = invoke noalias noundef nonnull dereferenceable(624) ptr @_Znwm(i64 noundef 624) #24
          to label %26 unwind label %111

26:                                               ; preds = %3
  %27 = fadd double %1, %2
  %28 = fmul double %27, 5.000000e-01
  store ptr %25, ptr %5, align 8, !tbaa !9
  %29 = getelementptr inbounds %"class.dealii::Point", ptr %25, i64 26
  %30 = getelementptr inbounds %"struct.std::_Vector_base<dealii::Point<3>, std::allocator<dealii::Point<3> > >::_Vector_impl_data", ptr %5, i64 0, i32 2
  store ptr %29, ptr %30, align 8, !tbaa !12
  store double %1, ptr %25, align 8, !tbaa !5
  %31 = getelementptr inbounds [3 x double], ptr %25, i64 0, i64 1
  store double %1, ptr %31, align 8, !tbaa !5
  %32 = getelementptr inbounds [3 x double], ptr %25, i64 0, i64 2
  store double %1, ptr %32, align 8, !tbaa !5
  %33 = getelementptr inbounds %"class.dealii::Point", ptr %25, i64 1
  store double %28, ptr %33, align 8, !tbaa !5
  %34 = getelementptr inbounds %"class.dealii::Point", ptr %25, i64 1, i32 0, i32 0, i64 1
  store double %1, ptr %34, align 8, !tbaa !5
  %35 = getelementptr inbounds %"class.dealii::Point", ptr %25, i64 1, i32 0, i32 0, i64 2
  store double %1, ptr %35, align 8, !tbaa !5
  %36 = getelementptr inbounds %"class.dealii::Point", ptr %25, i64 2
  store double %2, ptr %36, align 8, !tbaa !5
  %37 = getelementptr inbounds %"class.dealii::Point", ptr %25, i64 2, i32 0, i32 0, i64 1
  %38 = insertelement <4 x double> poison, double %1, i64 0
  %39 = shufflevector <4 x double> %38, <4 x double> poison, <4 x i32> zeroinitializer
  store <4 x double> %39, ptr %37, align 8, !tbaa !5
  %40 = getelementptr inbounds %"class.dealii::Point", ptr %25, i64 3, i32 0, i32 0, i64 2
  store double %28, ptr %40, align 8, !tbaa !5
  %41 = getelementptr inbounds %"class.dealii::Point", ptr %25, i64 4
  store double %28, ptr %41, align 8, !tbaa !5
  %42 = getelementptr inbounds %"class.dealii::Point", ptr %25, i64 4, i32 0, i32 0, i64 1
  store double %1, ptr %42, align 8, !tbaa !5
  %43 = getelementptr inbounds %"class.dealii::Point", ptr %25, i64 4, i32 0, i32 0, i64 2
  store double %28, ptr %43, align 8, !tbaa !5
  %44 = getelementptr inbounds %"class.dealii::Point", ptr %25, i64 5
  store double %2, ptr %44, align 8, !tbaa !5
  %45 = getelementptr inbounds %"class.dealii::Point", ptr %25, i64 5, i32 0, i32 0, i64 1
  store double %1, ptr %45, align 8, !tbaa !5
  %46 = getelementptr inbounds %"class.dealii::Point", ptr %25, i64 5, i32 0, i32 0, i64 2
  store double %28, ptr %46, align 8, !tbaa !5
  %47 = getelementptr inbounds %"class.dealii::Point", ptr %25, i64 6
  store double %1, ptr %47, align 8, !tbaa !5
  %48 = getelementptr inbounds %"class.dealii::Point", ptr %25, i64 6, i32 0, i32 0, i64 1
  store double %1, ptr %48, align 8, !tbaa !5
  %49 = getelementptr inbounds %"class.dealii::Point", ptr %25, i64 6, i32 0, i32 0, i64 2
  store double %2, ptr %49, align 8, !tbaa !5
  %50 = getelementptr inbounds %"class.dealii::Point", ptr %25, i64 7
  store double %28, ptr %50, align 8, !tbaa !5
  %51 = getelementptr inbounds %"class.dealii::Point", ptr %25, i64 7, i32 0, i32 0, i64 1
  store double %1, ptr %51, align 8, !tbaa !5
  %52 = getelementptr inbounds %"class.dealii::Point", ptr %25, i64 7, i32 0, i32 0, i64 2
  store double %2, ptr %52, align 8, !tbaa !5
  %53 = getelementptr inbounds %"class.dealii::Point", ptr %25, i64 8
  store double %2, ptr %53, align 8, !tbaa !5
  %54 = getelementptr inbounds %"class.dealii::Point", ptr %25, i64 8, i32 0, i32 0, i64 1
  store double %1, ptr %54, align 8, !tbaa !5
  %55 = getelementptr inbounds %"class.dealii::Point", ptr %25, i64 8, i32 0, i32 0, i64 2
  store double %2, ptr %55, align 8, !tbaa !5
  %56 = getelementptr inbounds %"class.dealii::Point", ptr %25, i64 9
  store double %1, ptr %56, align 8, !tbaa !5
  %57 = getelementptr inbounds %"class.dealii::Point", ptr %25, i64 9, i32 0, i32 0, i64 1
  store double %28, ptr %57, align 8, !tbaa !5
  %58 = getelementptr inbounds %"class.dealii::Point", ptr %25, i64 9, i32 0, i32 0, i64 2
  store double %1, ptr %58, align 8, !tbaa !5
  %59 = getelementptr inbounds %"class.dealii::Point", ptr %25, i64 10
  store double %28, ptr %59, align 8, !tbaa !5
  %60 = getelementptr inbounds %"class.dealii::Point", ptr %25, i64 10, i32 0, i32 0, i64 1
  store double %28, ptr %60, align 8, !tbaa !5
  %61 = getelementptr inbounds %"class.dealii::Point", ptr %25, i64 10, i32 0, i32 0, i64 2
  store double %1, ptr %61, align 8, !tbaa !5
  %62 = getelementptr inbounds %"class.dealii::Point", ptr %25, i64 11
  store double %2, ptr %62, align 8, !tbaa !5
  %63 = getelementptr inbounds %"class.dealii::Point", ptr %25, i64 11, i32 0, i32 0, i64 1
  store double %28, ptr %63, align 8, !tbaa !5
  %64 = getelementptr inbounds %"class.dealii::Point", ptr %25, i64 11, i32 0, i32 0, i64 2
  store double %1, ptr %64, align 8, !tbaa !5
  %65 = getelementptr inbounds %"class.dealii::Point", ptr %25, i64 12
  store double %1, ptr %65, align 8, !tbaa !5
  %66 = getelementptr inbounds %"class.dealii::Point", ptr %25, i64 12, i32 0, i32 0, i64 1
  %67 = insertelement <4 x double> poison, double %28, i64 0
  %68 = shufflevector <4 x double> %67, <4 x double> poison, <4 x i32> zeroinitializer
  store <4 x double> %68, ptr %66, align 8, !tbaa !5
  %69 = getelementptr inbounds %"class.dealii::Point", ptr %25, i64 13, i32 0, i32 0, i64 2
  store double %28, ptr %69, align 8, !tbaa !5
  %70 = getelementptr inbounds %"class.dealii::Point", ptr %25, i64 14
  store double %2, ptr %70, align 8, !tbaa !5
  %71 = getelementptr inbounds %"class.dealii::Point", ptr %25, i64 14, i32 0, i32 0, i64 1
  store double %28, ptr %71, align 8, !tbaa !5
  %72 = getelementptr inbounds %"class.dealii::Point", ptr %25, i64 14, i32 0, i32 0, i64 2
  store double %28, ptr %72, align 8, !tbaa !5
  %73 = getelementptr inbounds %"class.dealii::Point", ptr %25, i64 15
  store double %1, ptr %73, align 8, !tbaa !5
  %74 = getelementptr inbounds %"class.dealii::Point", ptr %25, i64 15, i32 0, i32 0, i64 1
  store double %28, ptr %74, align 8, !tbaa !5
  %75 = getelementptr inbounds %"class.dealii::Point", ptr %25, i64 15, i32 0, i32 0, i64 2
  store double %2, ptr %75, align 8, !tbaa !5
  %76 = getelementptr inbounds %"class.dealii::Point", ptr %25, i64 16
  store double %28, ptr %76, align 8, !tbaa !5
  %77 = getelementptr inbounds %"class.dealii::Point", ptr %25, i64 16, i32 0, i32 0, i64 1
  store double %28, ptr %77, align 8, !tbaa !5
  %78 = getelementptr inbounds %"class.dealii::Point", ptr %25, i64 16, i32 0, i32 0, i64 2
  store double %2, ptr %78, align 8, !tbaa !5
  %79 = getelementptr inbounds %"class.dealii::Point", ptr %25, i64 17
  store double %2, ptr %79, align 8, !tbaa !5
  %80 = getelementptr inbounds %"class.dealii::Point", ptr %25, i64 17, i32 0, i32 0, i64 1
  store double %28, ptr %80, align 8, !tbaa !5
  %81 = getelementptr inbounds %"class.dealii::Point", ptr %25, i64 17, i32 0, i32 0, i64 2
  store double %2, ptr %81, align 8, !tbaa !5
  %82 = getelementptr inbounds %"class.dealii::Point", ptr %25, i64 18
  store double %1, ptr %82, align 8, !tbaa !5
  %83 = getelementptr inbounds %"class.dealii::Point", ptr %25, i64 18, i32 0, i32 0, i64 1
  store double %2, ptr %83, align 8, !tbaa !5
  %84 = getelementptr inbounds %"class.dealii::Point", ptr %25, i64 18, i32 0, i32 0, i64 2
  store double %1, ptr %84, align 8, !tbaa !5
  %85 = getelementptr inbounds %"class.dealii::Point", ptr %25, i64 19
  store double %28, ptr %85, align 8, !tbaa !5
  %86 = getelementptr inbounds %"class.dealii::Point", ptr %25, i64 19, i32 0, i32 0, i64 1
  store double %2, ptr %86, align 8, !tbaa !5
  %87 = getelementptr inbounds %"class.dealii::Point", ptr %25, i64 19, i32 0, i32 0, i64 2
  store double %1, ptr %87, align 8, !tbaa !5
  %88 = getelementptr inbounds %"class.dealii::Point", ptr %25, i64 20
  store double %2, ptr %88, align 8, !tbaa !5
  %89 = getelementptr inbounds %"class.dealii::Point", ptr %25, i64 20, i32 0, i32 0, i64 1
  store double %2, ptr %89, align 8, !tbaa !5
  %90 = getelementptr inbounds %"class.dealii::Point", ptr %25, i64 20, i32 0, i32 0, i64 2
  store double %1, ptr %90, align 8, !tbaa !5
  %91 = getelementptr inbounds %"class.dealii::Point", ptr %25, i64 21
  store double %1, ptr %91, align 8, !tbaa !5
  %92 = getelementptr inbounds %"class.dealii::Point", ptr %25, i64 21, i32 0, i32 0, i64 1
  store double %2, ptr %92, align 8, !tbaa !5
  %93 = getelementptr inbounds %"class.dealii::Point", ptr %25, i64 21, i32 0, i32 0, i64 2
  store double %28, ptr %93, align 8, !tbaa !5
  %94 = getelementptr inbounds %"class.dealii::Point", ptr %25, i64 22
  store double %28, ptr %94, align 8, !tbaa !5
  %95 = getelementptr inbounds %"class.dealii::Point", ptr %25, i64 22, i32 0, i32 0, i64 1
  store double %2, ptr %95, align 8, !tbaa !5
  %96 = getelementptr inbounds %"class.dealii::Point", ptr %25, i64 22, i32 0, i32 0, i64 2
  store double %28, ptr %96, align 8, !tbaa !5
  %97 = getelementptr inbounds %"class.dealii::Point", ptr %25, i64 23
  store double %2, ptr %97, align 8, !tbaa !5
  %98 = getelementptr inbounds %"class.dealii::Point", ptr %25, i64 23, i32 0, i32 0, i64 1
  store double %2, ptr %98, align 8, !tbaa !5
  %99 = getelementptr inbounds %"class.dealii::Point", ptr %25, i64 23, i32 0, i32 0, i64 2
  store double %28, ptr %99, align 8, !tbaa !5
  %100 = getelementptr inbounds %"class.dealii::Point", ptr %25, i64 24
  store double %1, ptr %100, align 8, !tbaa !5
  %101 = getelementptr inbounds %"class.dealii::Point", ptr %25, i64 24, i32 0, i32 0, i64 1
  store double %2, ptr %101, align 8, !tbaa !5
  %102 = getelementptr inbounds %"class.dealii::Point", ptr %25, i64 24, i32 0, i32 0, i64 2
  store double %2, ptr %102, align 8, !tbaa !5
  %103 = getelementptr inbounds %"class.dealii::Point", ptr %25, i64 25
  store double %28, ptr %103, align 8, !tbaa !5
  %104 = getelementptr inbounds %"class.dealii::Point", ptr %25, i64 25, i32 0, i32 0, i64 1
  store double %2, ptr %104, align 8, !tbaa !5
  %105 = getelementptr inbounds %"class.dealii::Point", ptr %25, i64 25, i32 0, i32 0, i64 2
  store double %2, ptr %105, align 8, !tbaa !5
  %106 = getelementptr inbounds %"class.dealii::Point", ptr %25, i64 26
  %107 = getelementptr inbounds %"struct.std::_Vector_base<dealii::Point<3>, std::allocator<dealii::Point<3> > >::_Vector_impl_data", ptr %5, i64 0, i32 1
  store ptr %106, ptr %107, align 8, !tbaa !13
  call void @llvm.lifetime.start.p0(i64 48, ptr nonnull %6) #23
  call void @llvm.memset.p0.i64(ptr noundef nonnull align 8 dereferenceable(48) %6, i8 0, i64 48, i1 false)
  %108 = load ptr, ptr %0, align 8, !tbaa !22
  %109 = getelementptr inbounds ptr, ptr %108, i64 3
  %110 = load ptr, ptr %109, align 8
  invoke void %110(ptr noundef nonnull align 8 dereferenceable(8552) %0, ptr noundef nonnull align 8 dereferenceable(24) %5, ptr noundef nonnull align 8 dereferenceable(24) %4, ptr noundef nonnull align 8 dereferenceable(48) %6)
          to label %113 unwind label %131

111:                                              ; preds = %3
  %112 = landingpad { ptr, i32 }
          cleanup
  br label %137

113:                                              ; preds = %26
  %114 = getelementptr inbounds %"struct.dealii::SubCellData", ptr %6, i64 0, i32 1
  %115 = load ptr, ptr %114, align 8, !tbaa !24
  %116 = icmp eq ptr %115, null
  br i1 %116, label %118, label %117

117:                                              ; preds = %113
  call void @_ZdlPv(ptr noundef nonnull %115) #25
  br label %118

118:                                              ; preds = %117, %113
  %119 = load ptr, ptr %6, align 8, !tbaa !26
  %120 = icmp eq ptr %119, null
  br i1 %120, label %122, label %121

121:                                              ; preds = %118
  call void @_ZdlPv(ptr noundef nonnull %119) #25
  br label %122

122:                                              ; preds = %121, %118
  call void @llvm.lifetime.end.p0(i64 48, ptr nonnull %6) #23
  %123 = load ptr, ptr %5, align 8, !tbaa !9
  %124 = icmp eq ptr %123, null
  br i1 %124, label %126, label %125

125:                                              ; preds = %122
  call void @_ZdlPv(ptr noundef nonnull %123) #25
  br label %126

126:                                              ; preds = %125, %122
  call void @llvm.lifetime.end.p0(i64 24, ptr nonnull %5) #23
  %127 = load ptr, ptr %4, align 8, !tbaa !14
  %128 = icmp eq ptr %127, null
  br i1 %128, label %130, label %129

129:                                              ; preds = %126
  call void @_ZdlPv(ptr noundef nonnull %127) #25
  br label %130

130:                                              ; preds = %126, %129
  call void @llvm.lifetime.end.p0(i64 24, ptr nonnull %4) #23
  ret void

131:                                              ; preds = %26
  %132 = landingpad { ptr, i32 }
          cleanup
  invoke void @_ZN6dealii11SubCellDataD2Ev(ptr noundef nonnull align 8 dereferenceable(48) %6)
          to label %133 unwind label %143

133:                                              ; preds = %131
  call void @llvm.lifetime.end.p0(i64 48, ptr nonnull %6) #23
  %134 = load ptr, ptr %5, align 8, !tbaa !9
  %135 = icmp eq ptr %134, null
  br i1 %135, label %137, label %136

136:                                              ; preds = %133
  call void @_ZdlPv(ptr noundef nonnull %134) #25
  br label %137

137:                                              ; preds = %111, %136, %133
  %138 = phi { ptr, i32 } [ %112, %111 ], [ %132, %133 ], [ %132, %136 ]
  call void @llvm.lifetime.end.p0(i64 24, ptr nonnull %5) #23
  %139 = load ptr, ptr %4, align 8, !tbaa !14
  %140 = icmp eq ptr %139, null
  br i1 %140, label %142, label %141

141:                                              ; preds = %137
  call void @_ZdlPv(ptr noundef nonnull %139) #25
  br label %142

142:                                              ; preds = %141, %137
  call void @llvm.lifetime.end.p0(i64 24, ptr nonnull %4) #23
  resume { ptr, i32 } %138

143:                                              ; preds = %131
  %144 = landingpad { ptr, i32 }
          catch ptr null
  %145 = extractvalue { ptr, i32 } %144, 0
  call void @__clang_call_terminate(ptr %145) #26
  unreachable
}

; Function Attrs: sspstrong uwtable
define weak_odr dso_local void @_ZN6dealii13GridGenerator15hyper_cube_slitILi3EEEvRNS_13TriangulationIXT_EXT_EEEddb(ptr noundef nonnull align 8 dereferenceable(8552) %0, double noundef %1, double noundef %2, i1 noundef zeroext %3) local_unnamed_addr #0 comdat align 2 personality ptr @__gxx_personality_v0 {
  %5 = alloca %"class.std::vector.38", align 8
  %6 = alloca %"class.std::vector.19", align 8
  %7 = alloca %"struct.dealii::SubCellData", align 8
  %8 = alloca %"class.dealii::TriaIterator", align 8
  call void @llvm.lifetime.start.p0(i64 24, ptr nonnull %5) #23
  %9 = tail call noalias noundef nonnull dereferenceable(144) ptr @_Znwm(i64 noundef 144) #24
  store ptr %9, ptr %5, align 8, !tbaa !14
  %10 = getelementptr inbounds %"struct.std::_Vector_base<dealii::CellData<3>, std::allocator<dealii::CellData<3> > >::_Vector_impl_data", ptr %5, i64 0, i32 1
  %11 = getelementptr inbounds %"struct.dealii::CellData", ptr %9, i64 4
  %12 = getelementptr inbounds %"struct.std::_Vector_base<dealii::CellData<3>, std::allocator<dealii::CellData<3> > >::_Vector_impl_data", ptr %5, i64 0, i32 2
  store ptr %11, ptr %12, align 8, !tbaa !16
  %13 = getelementptr inbounds %"struct.dealii::CellData", ptr %9, i64 1
  %14 = getelementptr inbounds %"struct.dealii::CellData", ptr %9, i64 2
  %15 = getelementptr inbounds %"struct.dealii::CellData", ptr %9, i64 3
  store ptr %11, ptr %10, align 8, !tbaa !17
  %16 = getelementptr inbounds i8, ptr %9, i64 32
  store i32 0, ptr %16, align 4
  tail call void @llvm.memcpy.p0.p0.i64(ptr noundef nonnull align 4 dereferenceable(32) %9, ptr noundef nonnull align 16 dereferenceable(32) @__const._ZN6dealii13GridGenerator15hyper_cube_slitILi3EEEvRNS_13TriangulationIXT_EXT_EEEddb.cell_vertices, i64 32, i1 false), !tbaa !18
  %17 = getelementptr inbounds %"struct.dealii::CellData", ptr %9, i64 1, i32 1
  store i32 0, ptr %17, align 4
  tail call void @llvm.memcpy.p0.p0.i64(ptr noundef nonnull align 4 dereferenceable(32) %13, ptr noundef nonnull align 16 dereferenceable(32) getelementptr inbounds ([4 x [8 x i32]], ptr @__const._ZN6dealii13GridGenerator15hyper_cube_slitILi3EEEvRNS_13TriangulationIXT_EXT_EEEddb.cell_vertices, i64 0, i64 1, i64 0), i64 32, i1 false), !tbaa !18
  %18 = getelementptr inbounds %"struct.dealii::CellData", ptr %9, i64 2, i32 1
  store i32 0, ptr %18, align 4
  tail call void @llvm.memcpy.p0.p0.i64(ptr noundef nonnull align 4 dereferenceable(32) %14, ptr noundef nonnull align 16 dereferenceable(32) getelementptr inbounds ([4 x [8 x i32]], ptr @__const._ZN6dealii13GridGenerator15hyper_cube_slitILi3EEEvRNS_13TriangulationIXT_EXT_EEEddb.cell_vertices, i64 0, i64 2, i64 0), i64 32, i1 false), !tbaa !18
  %19 = getelementptr inbounds %"struct.dealii::CellData", ptr %9, i64 3, i32 1
  store i32 0, ptr %19, align 4
  tail call void @llvm.memcpy.p0.p0.i64(ptr noundef nonnull align 4 dereferenceable(32) %15, ptr noundef nonnull align 16 dereferenceable(32) getelementptr inbounds ([4 x [8 x i32]], ptr @__const._ZN6dealii13GridGenerator15hyper_cube_slitILi3EEEvRNS_13TriangulationIXT_EXT_EEEddb.cell_vertices, i64 0, i64 3, i64 0), i64 32, i1 false), !tbaa !18
  call void @llvm.lifetime.start.p0(i64 24, ptr nonnull %6) #23
  %20 = invoke noalias noundef nonnull dereferenceable(480) ptr @_Znwm(i64 noundef 480) #24
          to label %21 unwind label %94

21:                                               ; preds = %4
  %22 = fsub double %2, %1
  %23 = fmul double %22, 5.000000e-01
  %24 = fmul double %23, 5.000000e-01
  %25 = fmul double %23, -5.000000e-01
  %26 = fadd double %1, %2
  %27 = fmul double %26, 5.000000e-01
  store ptr %20, ptr %6, align 8, !tbaa !9
  %28 = getelementptr inbounds %"class.dealii::Point", ptr %20, i64 20
  %29 = getelementptr inbounds %"struct.std::_Vector_base<dealii::Point<3>, std::allocator<dealii::Point<3> > >::_Vector_impl_data", ptr %6, i64 0, i32 2
  store ptr %28, ptr %29, align 8, !tbaa !12
  store double %1, ptr %20, align 8, !tbaa !5
  %30 = getelementptr inbounds [3 x double], ptr %20, i64 0, i64 1
  store double %1, ptr %30, align 8, !tbaa !5
  %31 = getelementptr inbounds [3 x double], ptr %20, i64 0, i64 2
  store double %25, ptr %31, align 8, !tbaa !5
  %32 = getelementptr inbounds %"class.dealii::Point", ptr %20, i64 1
  store double %27, ptr %32, align 8, !tbaa !5
  %33 = getelementptr inbounds %"class.dealii::Point", ptr %20, i64 1, i32 0, i32 0, i64 1
  store double %1, ptr %33, align 8, !tbaa !5
  %34 = getelementptr inbounds %"class.dealii::Point", ptr %20, i64 1, i32 0, i32 0, i64 2
  store double %25, ptr %34, align 8, !tbaa !5
  %35 = getelementptr inbounds %"class.dealii::Point", ptr %20, i64 2
  store double %27, ptr %35, align 8, !tbaa !5
  %36 = getelementptr inbounds %"class.dealii::Point", ptr %20, i64 2, i32 0, i32 0, i64 1
  store double %27, ptr %36, align 8, !tbaa !5
  %37 = getelementptr inbounds %"class.dealii::Point", ptr %20, i64 2, i32 0, i32 0, i64 2
  store double %25, ptr %37, align 8, !tbaa !5
  %38 = getelementptr inbounds %"class.dealii::Point", ptr %20, i64 3
  store double %1, ptr %38, align 8, !tbaa !5
  %39 = getelementptr inbounds %"class.dealii::Point", ptr %20, i64 3, i32 0, i32 0, i64 1
  store double %27, ptr %39, align 8, !tbaa !5
  %40 = getelementptr inbounds %"class.dealii::Point", ptr %20, i64 3, i32 0, i32 0, i64 2
  store double %25, ptr %40, align 8, !tbaa !5
  %41 = getelementptr inbounds %"class.dealii::Point", ptr %20, i64 4
  store double %2, ptr %41, align 8, !tbaa !5
  %42 = getelementptr inbounds %"class.dealii::Point", ptr %20, i64 4, i32 0, i32 0, i64 1
  store double %1, ptr %42, align 8, !tbaa !5
  %43 = getelementptr inbounds %"class.dealii::Point", ptr %20, i64 4, i32 0, i32 0, i64 2
  store double %25, ptr %43, align 8, !tbaa !5
  %44 = getelementptr inbounds %"class.dealii::Point", ptr %20, i64 5
  store double %2, ptr %44, align 8, !tbaa !5
  %45 = getelementptr inbounds %"class.dealii::Point", ptr %20, i64 5, i32 0, i32 0, i64 1
  store double %27, ptr %45, align 8, !tbaa !5
  %46 = getelementptr inbounds %"class.dealii::Point", ptr %20, i64 5, i32 0, i32 0, i64 2
  store double %25, ptr %46, align 8, !tbaa !5
  %47 = getelementptr inbounds %"class.dealii::Point", ptr %20, i64 6
  store double %27, ptr %47, align 8, !tbaa !5
  %48 = getelementptr inbounds %"class.dealii::Point", ptr %20, i64 6, i32 0, i32 0, i64 1
  store double %2, ptr %48, align 8, !tbaa !5
  %49 = getelementptr inbounds %"class.dealii::Point", ptr %20, i64 6, i32 0, i32 0, i64 2
  store double %25, ptr %49, align 8, !tbaa !5
  %50 = getelementptr inbounds %"class.dealii::Point", ptr %20, i64 7
  store double %1, ptr %50, align 8, !tbaa !5
  %51 = getelementptr inbounds %"class.dealii::Point", ptr %20, i64 7, i32 0, i32 0, i64 1
  store double %2, ptr %51, align 8, !tbaa !5
  %52 = getelementptr inbounds %"class.dealii::Point", ptr %20, i64 7, i32 0, i32 0, i64 2
  store double %25, ptr %52, align 8, !tbaa !5
  %53 = getelementptr inbounds %"class.dealii::Point", ptr %20, i64 8
  store double %2, ptr %53, align 8, !tbaa !5
  %54 = getelementptr inbounds %"class.dealii::Point", ptr %20, i64 8, i32 0, i32 0, i64 1
  store double %2, ptr %54, align 8, !tbaa !5
  %55 = getelementptr inbounds %"class.dealii::Point", ptr %20, i64 8, i32 0, i32 0, i64 2
  store double %25, ptr %55, align 8, !tbaa !5
  %56 = getelementptr inbounds %"class.dealii::Point", ptr %20, i64 9
  store double %27, ptr %56, align 8, !tbaa !5
  %57 = getelementptr inbounds %"class.dealii::Point", ptr %20, i64 9, i32 0, i32 0, i64 1
  store double %1, ptr %57, align 8, !tbaa !5
  %58 = getelementptr inbounds %"class.dealii::Point", ptr %20, i64 9, i32 0, i32 0, i64 2
  store double %25, ptr %58, align 8, !tbaa !5
  %59 = getelementptr inbounds %"class.dealii::Point", ptr %20, i64 10
  store double %1, ptr %59, align 8, !tbaa !5
  %60 = getelementptr inbounds %"class.dealii::Point", ptr %20, i64 10, i32 0, i32 0, i64 1
  store double %1, ptr %60, align 8, !tbaa !5
  %61 = getelementptr inbounds %"class.dealii::Point", ptr %20, i64 10, i32 0, i32 0, i64 2
  store double %24, ptr %61, align 8, !tbaa !5
  %62 = getelementptr inbounds %"class.dealii::Point", ptr %20, i64 11
  store double %27, ptr %62, align 8, !tbaa !5
  %63 = getelementptr inbounds %"class.dealii::Point", ptr %20, i64 11, i32 0, i32 0, i64 1
  store double %1, ptr %63, align 8, !tbaa !5
  %64 = getelementptr inbounds %"class.dealii::Point", ptr %20, i64 11, i32 0, i32 0, i64 2
  store double %24, ptr %64, align 8, !tbaa !5
  %65 = getelementptr inbounds %"class.dealii::Point", ptr %20, i64 12
  store double %27, ptr %65, align 8, !tbaa !5
  %66 = getelementptr inbounds %"class.dealii::Point", ptr %20, i64 12, i32 0, i32 0, i64 1
  store double %27, ptr %66, align 8, !tbaa !5
  %67 = getelementptr inbounds %"class.dealii::Point", ptr %20, i64 12, i32 0, i32 0, i64 2
  store double %24, ptr %67, align 8, !tbaa !5
  %68 = getelementptr inbounds %"class.dealii::Point", ptr %20, i64 13
  store double %1, ptr %68, align 8, !tbaa !5
  %69 = getelementptr inbounds %"class.dealii::Point", ptr %20, i64 13, i32 0, i32 0, i64 1
  store double %27, ptr %69, align 8, !tbaa !5
  %70 = getelementptr inbounds %"class.dealii::Point", ptr %20, i64 13, i32 0, i32 0, i64 2
  store double %24, ptr %70, align 8, !tbaa !5
  %71 = getelementptr inbounds %"class.dealii::Point", ptr %20, i64 14
  store double %2, ptr %71, align 8, !tbaa !5
  %72 = getelementptr inbounds %"class.dealii::Point", ptr %20, i64 14, i32 0, i32 0, i64 1
  store double %1, ptr %72, align 8, !tbaa !5
  %73 = getelementptr inbounds %"class.dealii::Point", ptr %20, i64 14, i32 0, i32 0, i64 2
  store double %24, ptr %73, align 8, !tbaa !5
  %74 = getelementptr inbounds %"class.dealii::Point", ptr %20, i64 15
  store double %2, ptr %74, align 8, !tbaa !5
  %75 = getelementptr inbounds %"class.dealii::Point", ptr %20, i64 15, i32 0, i32 0, i64 1
  store double %27, ptr %75, align 8, !tbaa !5
  %76 = getelementptr inbounds %"class.dealii::Point", ptr %20, i64 15, i32 0, i32 0, i64 2
  store double %24, ptr %76, align 8, !tbaa !5
  %77 = getelementptr inbounds %"class.dealii::Point", ptr %20, i64 16
  store double %27, ptr %77, align 8, !tbaa !5
  %78 = getelementptr inbounds %"class.dealii::Point", ptr %20, i64 16, i32 0, i32 0, i64 1
  store double %2, ptr %78, align 8, !tbaa !5
  %79 = getelementptr inbounds %"class.dealii::Point", ptr %20, i64 16, i32 0, i32 0, i64 2
  store double %24, ptr %79, align 8, !tbaa !5
  %80 = getelementptr inbounds %"class.dealii::Point", ptr %20, i64 17
  store double %1, ptr %80, align 8, !tbaa !5
  %81 = getelementptr inbounds %"class.dealii::Point", ptr %20, i64 17, i32 0, i32 0, i64 1
  store double %2, ptr %81, align 8, !tbaa !5
  %82 = getelementptr inbounds %"class.dealii::Point", ptr %20, i64 17, i32 0, i32 0, i64 2
  store double %24, ptr %82, align 8, !tbaa !5
  %83 = getelementptr inbounds %"class.dealii::Point", ptr %20, i64 18
  store double %2, ptr %83, align 8, !tbaa !5
  %84 = getelementptr inbounds %"class.dealii::Point", ptr %20, i64 18, i32 0, i32 0, i64 1
  store double %2, ptr %84, align 8, !tbaa !5
  %85 = getelementptr inbounds %"class.dealii::Point", ptr %20, i64 18, i32 0, i32 0, i64 2
  store double %24, ptr %85, align 8, !tbaa !5
  %86 = getelementptr inbounds %"class.dealii::Point", ptr %20, i64 19
  store double %27, ptr %86, align 8, !tbaa !5
  %87 = getelementptr inbounds %"class.dealii::Point", ptr %20, i64 19, i32 0, i32 0, i64 1
  store double %1, ptr %87, align 8, !tbaa !5
  %88 = getelementptr inbounds %"class.dealii::Point", ptr %20, i64 19, i32 0, i32 0, i64 2
  store double %24, ptr %88, align 8, !tbaa !5
  %89 = getelementptr inbounds %"class.dealii::Point", ptr %20, i64 20
  %90 = getelementptr inbounds %"struct.std::_Vector_base<dealii::Point<3>, std::allocator<dealii::Point<3> > >::_Vector_impl_data", ptr %6, i64 0, i32 1
  store ptr %89, ptr %90, align 8, !tbaa !13
  call void @llvm.lifetime.start.p0(i64 48, ptr nonnull %7) #23
  call void @llvm.memset.p0.i64(ptr noundef nonnull align 8 dereferenceable(48) %7, i8 0, i64 48, i1 false)
  %91 = load ptr, ptr %0, align 8, !tbaa !22
  %92 = getelementptr inbounds ptr, ptr %91, i64 3
  %93 = load ptr, ptr %92, align 8
  invoke void %93(ptr noundef nonnull align 8 dereferenceable(8552) %0, ptr noundef nonnull align 8 dereferenceable(24) %6, ptr noundef nonnull align 8 dereferenceable(24) %5, ptr noundef nonnull align 8 dereferenceable(48) %7)
          to label %96 unwind label %241

94:                                               ; preds = %4
  %95 = landingpad { ptr, i32 }
          cleanup
  br label %247

96:                                               ; preds = %21
  %97 = getelementptr inbounds %"struct.dealii::SubCellData", ptr %7, i64 0, i32 1
  %98 = load ptr, ptr %97, align 8, !tbaa !24
  %99 = icmp eq ptr %98, null
  br i1 %99, label %101, label %100

100:                                              ; preds = %96
  call void @_ZdlPv(ptr noundef nonnull %98) #25
  br label %101

101:                                              ; preds = %100, %96
  %102 = load ptr, ptr %7, align 8, !tbaa !26
  %103 = icmp eq ptr %102, null
  br i1 %103, label %105, label %104

104:                                              ; preds = %101
  call void @_ZdlPv(ptr noundef nonnull %102) #25
  br label %105

105:                                              ; preds = %104, %101
  call void @llvm.lifetime.end.p0(i64 48, ptr nonnull %7) #23
  %106 = load ptr, ptr %6, align 8, !tbaa !9
  %107 = icmp eq ptr %106, null
  br i1 %107, label %109, label %108

108:                                              ; preds = %105
  call void @_ZdlPv(ptr noundef nonnull %106) #25
  br label %109

109:                                              ; preds = %108, %105
  call void @llvm.lifetime.end.p0(i64 24, ptr nonnull %6) #23
  br i1 %3, label %110, label %251

110:                                              ; preds = %109
  call void @llvm.lifetime.start.p0(i64 16, ptr nonnull %8) #23
  invoke void @_ZNK6dealii13TriangulationILi3ELi3EE5beginEj(ptr nonnull sret(%"class.dealii::TriaIterator") align 8 %8, ptr noundef nonnull align 8 dereferenceable(8552) %0, i32 noundef 0)
          to label %111 unwind label %249

111:                                              ; preds = %110
  %112 = getelementptr inbounds %"class.dealii::TriaAccessorBase", ptr %8, i64 0, i32 2
  %113 = load ptr, ptr %112, align 8, !tbaa !28, !noalias !134
  %114 = getelementptr inbounds %"class.dealii::Triangulation", ptr %113, i64 0, i32 1
  %115 = load i32, ptr %8, align 8, !tbaa !35, !noalias !134
  %116 = sext i32 %115 to i64
  %117 = load ptr, ptr %114, align 8, !tbaa !36, !noalias !134
  %118 = getelementptr inbounds ptr, ptr %117, i64 %116
  %119 = load ptr, ptr %118, align 8, !tbaa !38, !noalias !134
  %120 = getelementptr inbounds %"class.dealii::internal::Triangulation::TriaLevel", ptr %119, i64 0, i32 4
  %121 = getelementptr inbounds %"class.dealii::TriaAccessorBase", ptr %8, i64 0, i32 1
  %122 = load i32, ptr %121, align 4, !tbaa !39, !noalias !134
  %123 = sext i32 %122 to i64
  %124 = load ptr, ptr %120, align 8, !tbaa !40, !noalias !134
  %125 = getelementptr inbounds %"class.dealii::internal::Triangulation::TriaObject", ptr %124, i64 %123, i32 0, i64 1
  %126 = load i32, ptr %125, align 4, !tbaa !18, !noalias !134
  %127 = getelementptr inbounds %"class.dealii::Triangulation", ptr %113, i64 0, i32 2
  %128 = load ptr, ptr %127, align 8, !tbaa !42
  %129 = getelementptr inbounds %"class.dealii::internal::Triangulation::TriaObjects.239", ptr %128, i64 0, i32 5
  %130 = sext i32 %126 to i64
  %131 = load ptr, ptr %129, align 8, !tbaa !80
  %132 = getelementptr inbounds i8, ptr %131, i64 %130
  store i8 1, ptr %132, align 1, !tbaa !82
  %133 = load ptr, ptr %112, align 8, !tbaa !28
  %134 = getelementptr inbounds %"class.dealii::Triangulation", ptr %133, i64 0, i32 1
  %135 = load ptr, ptr %134, align 8, !tbaa !36
  %136 = load i32, ptr %121, align 4
  %137 = load i32, ptr %8, align 8, !tbaa !35
  %138 = ptrtoint ptr %135 to i64
  %139 = getelementptr inbounds %"class.dealii::Triangulation", ptr %133, i64 0, i32 1, i32 0, i32 0, i32 0, i32 1
  br label %140

140:                                              ; preds = %211, %111
  %141 = phi i32 [ %206, %211 ], [ %137, %111 ]
  %142 = phi i32 [ %208, %211 ], [ %137, %111 ]
  %143 = phi i32 [ %207, %211 ], [ %136, %111 ]
  %144 = add nsw i32 %143, 1
  %145 = sext i32 %142 to i64
  %146 = getelementptr inbounds ptr, ptr %135, i64 %145
  %147 = load ptr, ptr %146, align 8, !tbaa !38
  %148 = getelementptr inbounds %"class.dealii::internal::Triangulation::TriaLevel", ptr %147, i64 0, i32 4
  %149 = getelementptr inbounds %"class.dealii::internal::Triangulation::TriaLevel", ptr %147, i64 0, i32 4, i32 0, i32 0, i32 0, i32 0, i32 0, i32 1
  %150 = load ptr, ptr %149, align 8, !tbaa !103
  %151 = load ptr, ptr %148, align 8, !tbaa !40
  %152 = ptrtoint ptr %150 to i64
  %153 = ptrtoint ptr %151 to i64
  %154 = sub i64 %152, %153
  %155 = sdiv exact i64 %154, 24
  %156 = trunc i64 %155 to i32
  %157 = icmp slt i32 %144, %156
  br i1 %157, label %205, label %158

158:                                              ; preds = %140
  %159 = add nsw i64 %145, 1
  %160 = trunc i64 %159 to i32
  store i32 %160, ptr %8, align 8, !tbaa !35
  %161 = load ptr, ptr %139, align 8, !tbaa !104
  %162 = ptrtoint ptr %161 to i64
  %163 = sub i64 %162, %138
  %164 = shl i64 %163, 29
  %165 = ashr i64 %164, 32
  %166 = icmp slt i64 %159, %165
  br i1 %166, label %167, label %199

167:                                              ; preds = %158
  %168 = getelementptr inbounds ptr, ptr %135, i64 %159
  %169 = load ptr, ptr %168, align 8, !tbaa !38
  %170 = getelementptr inbounds %"class.dealii::internal::Triangulation::TriaLevel", ptr %169, i64 0, i32 4
  %171 = getelementptr inbounds %"class.dealii::internal::Triangulation::TriaLevel", ptr %169, i64 0, i32 4, i32 0, i32 0, i32 0, i32 0, i32 0, i32 1
  %172 = load ptr, ptr %171, align 8, !tbaa !103
  %173 = load ptr, ptr %170, align 8, !tbaa !40
  %174 = ptrtoint ptr %172 to i64
  %175 = ptrtoint ptr %173 to i64
  %176 = sub i64 %174, %175
  %177 = sdiv exact i64 %176, 24
  %178 = trunc i64 %177 to i32
  %179 = icmp sgt i32 %178, 0
  br i1 %179, label %201, label %193

180:                                              ; preds = %193
  %181 = getelementptr inbounds ptr, ptr %135, i64 %195
  %182 = load ptr, ptr %181, align 8, !tbaa !38
  %183 = getelementptr inbounds %"class.dealii::internal::Triangulation::TriaLevel", ptr %182, i64 0, i32 4
  %184 = getelementptr inbounds %"class.dealii::internal::Triangulation::TriaLevel", ptr %182, i64 0, i32 4, i32 0, i32 0, i32 0, i32 0, i32 0, i32 1
  %185 = load ptr, ptr %184, align 8, !tbaa !103
  %186 = load ptr, ptr %183, align 8, !tbaa !40
  %187 = ptrtoint ptr %185 to i64
  %188 = ptrtoint ptr %186 to i64
  %189 = sub i64 %187, %188
  %190 = sdiv exact i64 %189, 24
  %191 = trunc i64 %190 to i32
  %192 = icmp sgt i32 %191, 0
  br i1 %192, label %200, label %193, !llvm.loop !105

193:                                              ; preds = %167, %180
  %194 = phi i64 [ %195, %180 ], [ %159, %167 ]
  %195 = add i64 %194, 1
  %196 = trunc i64 %195 to i32
  %197 = icmp eq i64 %195, %165
  br i1 %197, label %198, label %180, !llvm.loop !105

198:                                              ; preds = %193
  store i32 %196, ptr %8, align 8, !tbaa !35
  br label %199

199:                                              ; preds = %198, %158
  store i32 -1, ptr %8, align 8, !tbaa !35
  br label %205

200:                                              ; preds = %180
  store i32 %196, ptr %8, align 8, !tbaa !35
  br label %201

201:                                              ; preds = %200, %167
  %202 = phi i32 [ %160, %167 ], [ %196, %200 ]
  %203 = phi i64 [ %159, %167 ], [ %195, %200 ]
  %204 = trunc i64 %203 to i32
  br label %205

205:                                              ; preds = %201, %199, %140
  %206 = phi i32 [ %141, %140 ], [ -1, %199 ], [ %202, %201 ]
  %207 = phi i32 [ %144, %140 ], [ -1, %199 ], [ 0, %201 ]
  %208 = phi i32 [ %142, %140 ], [ -1, %199 ], [ %204, %201 ]
  %209 = or i32 %208, %207
  %210 = icmp sgt i32 %209, -1
  br i1 %210, label %211, label %226

211:                                              ; preds = %205
  %212 = zext i32 %208 to i64
  %213 = getelementptr inbounds ptr, ptr %135, i64 %212
  %214 = load ptr, ptr %213, align 8, !tbaa !38
  %215 = getelementptr inbounds %"class.dealii::internal::Triangulation::TriaLevel", ptr %214, i64 0, i32 4, i32 0, i32 3
  %216 = load ptr, ptr %215, align 8, !tbaa !97
  %217 = lshr i32 %207, 6
  %218 = zext i32 %217 to i64
  %219 = getelementptr inbounds i64, ptr %216, i64 %218
  %220 = and i32 %207, 63
  %221 = zext i32 %220 to i64
  %222 = shl nuw i64 1, %221
  %223 = load i64, ptr %219, align 8, !tbaa !99
  %224 = and i64 %223, %222
  %225 = icmp eq i64 %224, 0
  br i1 %225, label %140, label %226

226:                                              ; preds = %211, %205
  store i32 %207, ptr %121, align 4, !tbaa !39
  %227 = sext i32 %206 to i64
  %228 = getelementptr inbounds ptr, ptr %135, i64 %227
  %229 = load ptr, ptr %228, align 8, !tbaa !38, !noalias !139
  %230 = getelementptr inbounds %"class.dealii::internal::Triangulation::TriaLevel", ptr %229, i64 0, i32 4
  %231 = sext i32 %207 to i64
  %232 = load ptr, ptr %230, align 8, !tbaa !40, !noalias !139
  %233 = getelementptr inbounds %"class.dealii::internal::Triangulation::TriaObject", ptr %232, i64 %231, i32 0, i64 3
  %234 = load i32, ptr %233, align 4, !tbaa !18, !noalias !139
  %235 = getelementptr inbounds %"class.dealii::Triangulation", ptr %133, i64 0, i32 2
  %236 = load ptr, ptr %235, align 8, !tbaa !42
  %237 = getelementptr inbounds %"class.dealii::internal::Triangulation::TriaObjects.239", ptr %236, i64 0, i32 5
  %238 = sext i32 %234 to i64
  %239 = load ptr, ptr %237, align 8, !tbaa !80
  %240 = getelementptr inbounds i8, ptr %239, i64 %238
  store i8 2, ptr %240, align 1, !tbaa !82
  call void @llvm.lifetime.end.p0(i64 16, ptr nonnull %8) #23
  br label %251

241:                                              ; preds = %21
  %242 = landingpad { ptr, i32 }
          cleanup
  invoke void @_ZN6dealii11SubCellDataD2Ev(ptr noundef nonnull align 8 dereferenceable(48) %7)
          to label %243 unwind label %262

243:                                              ; preds = %241
  call void @llvm.lifetime.end.p0(i64 48, ptr nonnull %7) #23
  %244 = load ptr, ptr %6, align 8, !tbaa !9
  %245 = icmp eq ptr %244, null
  br i1 %245, label %247, label %246

246:                                              ; preds = %243
  call void @_ZdlPv(ptr noundef nonnull %244) #25
  br label %247

247:                                              ; preds = %94, %246, %243
  %248 = phi { ptr, i32 } [ %95, %94 ], [ %242, %243 ], [ %242, %246 ]
  call void @llvm.lifetime.end.p0(i64 24, ptr nonnull %6) #23
  br label %256

249:                                              ; preds = %110
  %250 = landingpad { ptr, i32 }
          cleanup
  call void @llvm.lifetime.end.p0(i64 16, ptr nonnull %8) #23
  br label %256

251:                                              ; preds = %226, %109
  %252 = load ptr, ptr %5, align 8, !tbaa !14
  %253 = icmp eq ptr %252, null
  br i1 %253, label %255, label %254

254:                                              ; preds = %251
  call void @_ZdlPv(ptr noundef nonnull %252) #25
  br label %255

255:                                              ; preds = %251, %254
  call void @llvm.lifetime.end.p0(i64 24, ptr nonnull %5) #23
  ret void

256:                                              ; preds = %249, %247
  %257 = phi { ptr, i32 } [ %250, %249 ], [ %248, %247 ]
  %258 = load ptr, ptr %5, align 8, !tbaa !14
  %259 = icmp eq ptr %258, null
  br i1 %259, label %261, label %260

260:                                              ; preds = %256
  call void @_ZdlPv(ptr noundef nonnull %258) #25
  br label %261

261:                                              ; preds = %260, %256
  call void @llvm.lifetime.end.p0(i64 24, ptr nonnull %5) #23
  resume { ptr, i32 } %257

262:                                              ; preds = %241
  %263 = landingpad { ptr, i32 }
          catch ptr null
  %264 = extractvalue { ptr, i32 } %263, 0
  call void @__clang_call_terminate(ptr %264) #26
  unreachable
}

; Function Attrs: sspstrong uwtable
define weak_odr dso_local void @_ZN6dealii13GridGenerator11hyper_shellILi3EEEvRNS_13TriangulationIXT_EXT_EEERKNS_5PointIXT_EEEddjb(ptr noundef nonnull align 8 dereferenceable(8552) %0, ptr noundef nonnull align 8 dereferenceable(24) %1, double noundef %2, double noundef %3, i32 noundef %4, i1 noundef zeroext %5) local_unnamed_addr #0 comdat align 2 personality ptr @__gxx_personality_v0 {
  %7 = alloca %"struct.dealii::CellData", align 8
  %8 = alloca %"struct.dealii::CellData", align 8
  %9 = alloca %"class.std::vector.19", align 8
  %10 = alloca %"class.std::vector.38", align 8
  %11 = alloca %"class.dealii::Point", align 16
  %12 = alloca %"class.dealii::Point", align 16
  %13 = alloca %"class.dealii::Point", align 16
  %14 = alloca %"class.dealii::Point", align 16
  %15 = alloca %"class.dealii::Point", align 16
  %16 = alloca %"class.dealii::Point", align 16
  %17 = alloca %"struct.dealii::SubCellData", align 8
  %18 = fdiv double %2, 0x3FFBB67AE8584CAA
  %19 = fdiv double %3, 0x3FFBB67AE8584CAA
  call void @llvm.lifetime.start.p0(i64 24, ptr nonnull %9) #23
  call void @llvm.memset.p0.i64(ptr noundef nonnull align 8 dereferenceable(24) %9, i8 0, i64 24, i1 false)
  call void @llvm.lifetime.start.p0(i64 24, ptr nonnull %10) #23
  call void @llvm.memset.p0.i64(ptr noundef nonnull align 8 dereferenceable(24) %10, i8 0, i64 24, i1 false)
  %20 = icmp ult i32 %4, 7
  br i1 %20, label %21, label %340

21:                                               ; preds = %6
  %22 = getelementptr inbounds [3 x double], ptr %1, i64 0, i64 1
  %23 = getelementptr inbounds [3 x double], ptr %1, i64 0, i64 2
  %24 = getelementptr inbounds [3 x double], ptr %11, i64 0, i64 1
  %25 = getelementptr inbounds [3 x double], ptr %11, i64 0, i64 2
  %26 = getelementptr inbounds %"struct.std::_Vector_base<dealii::Point<3>, std::allocator<dealii::Point<3> > >::_Vector_impl_data", ptr %9, i64 0, i32 1
  %27 = getelementptr inbounds %"struct.std::_Vector_base<dealii::Point<3>, std::allocator<dealii::Point<3> > >::_Vector_impl_data", ptr %9, i64 0, i32 2
  call void @llvm.lifetime.start.p0(i64 24, ptr nonnull %11) #23
  %28 = load double, ptr %23, align 8, !tbaa !5, !noalias !133
  %29 = fsub double %28, %18
  %30 = load <2 x double>, ptr %1, align 8, !tbaa !5, !noalias !133
  %31 = insertelement <2 x double> poison, double %18, i64 0
  %32 = shufflevector <2 x double> %31, <2 x double> poison, <2 x i32> zeroinitializer
  %33 = fsub <2 x double> %30, %32
  store <2 x double> %33, ptr %11, align 16, !tbaa !5, !alias.scope !144
  store double %29, ptr %25, align 16, !tbaa !5, !alias.scope !144
  invoke void @_ZNSt6vectorIN6dealii5PointILi3EEESaIS2_EE17_M_realloc_insertEN9__gnu_cxx17__normal_iteratorIPS2_S4_EERKS2_(ptr noundef nonnull align 8 dereferenceable(24) %9, ptr null, ptr noundef nonnull align 8 dereferenceable(24) %11)
          to label %34 unwind label %179

34:                                               ; preds = %21
  %35 = load ptr, ptr %26, align 8, !tbaa !38
  %36 = load ptr, ptr %27, align 8, !tbaa !12
  %37 = load double, ptr %1, align 8, !tbaa !5, !noalias !147
  call void @llvm.lifetime.end.p0(i64 24, ptr nonnull %11) #23
  call void @llvm.lifetime.start.p0(i64 24, ptr nonnull %11) #23
  call void @llvm.experimental.noalias.scope.decl(metadata !147)
  %38 = fadd double %18, %37
  store double %38, ptr %11, align 16, !tbaa !5, !alias.scope !147
  %39 = load <2 x double>, ptr %22, align 8, !tbaa !5, !noalias !147
  %40 = fsub <2 x double> %39, %32
  store <2 x double> %40, ptr %24, align 8, !tbaa !5, !alias.scope !147
  %41 = icmp eq ptr %35, %36
  br i1 %41, label %48, label %42

42:                                               ; preds = %34
  store double %38, ptr %35, align 8, !tbaa !5
  %43 = load double, ptr %24, align 8, !tbaa !5
  %44 = getelementptr inbounds [3 x double], ptr %35, i64 0, i64 1
  store double %43, ptr %44, align 8, !tbaa !5
  %45 = load double, ptr %25, align 16, !tbaa !5
  %46 = getelementptr inbounds [3 x double], ptr %35, i64 0, i64 2
  store double %45, ptr %46, align 8, !tbaa !5
  %47 = getelementptr inbounds %"class.dealii::Point", ptr %35, i64 1
  store ptr %47, ptr %26, align 8, !tbaa !13
  br label %52

48:                                               ; preds = %34
  invoke void @_ZNSt6vectorIN6dealii5PointILi3EEESaIS2_EE17_M_realloc_insertEN9__gnu_cxx17__normal_iteratorIPS2_S4_EERKS2_(ptr noundef nonnull align 8 dereferenceable(24) %9, ptr %36, ptr noundef nonnull align 8 dereferenceable(24) %11)
          to label %49 unwind label %179

49:                                               ; preds = %48
  %50 = load ptr, ptr %26, align 8, !tbaa !38
  %51 = load ptr, ptr %27, align 8, !tbaa !12
  br label %52

52:                                               ; preds = %49, %42
  %53 = phi ptr [ %51, %49 ], [ %36, %42 ]
  %54 = phi ptr [ %50, %49 ], [ %47, %42 ]
  call void @llvm.lifetime.end.p0(i64 24, ptr nonnull %11) #23
  call void @llvm.lifetime.start.p0(i64 24, ptr nonnull %11) #23
  call void @llvm.experimental.noalias.scope.decl(metadata !149)
  %55 = load double, ptr %1, align 8, !tbaa !5, !noalias !149
  %56 = load double, ptr %22, align 8, !tbaa !5, !noalias !149
  %57 = load double, ptr %23, align 8, !tbaa !5, !noalias !149
  %58 = fsub double %55, %18
  %59 = fadd double %18, %56
  %60 = fsub double %57, %18
  store double %58, ptr %11, align 16, !tbaa !5, !alias.scope !149
  store double %59, ptr %24, align 8, !tbaa !5, !alias.scope !149
  store double %60, ptr %25, align 16, !tbaa !5, !alias.scope !149
  %61 = icmp eq ptr %54, %53
  br i1 %61, label %68, label %62

62:                                               ; preds = %52
  store double %58, ptr %54, align 8, !tbaa !5
  %63 = load double, ptr %24, align 8, !tbaa !5
  %64 = getelementptr inbounds [3 x double], ptr %54, i64 0, i64 1
  store double %63, ptr %64, align 8, !tbaa !5
  %65 = load double, ptr %25, align 16, !tbaa !5
  %66 = getelementptr inbounds [3 x double], ptr %54, i64 0, i64 2
  store double %65, ptr %66, align 8, !tbaa !5
  %67 = getelementptr inbounds %"class.dealii::Point", ptr %54, i64 1
  store ptr %67, ptr %26, align 8, !tbaa !13
  br label %72

68:                                               ; preds = %52
  invoke void @_ZNSt6vectorIN6dealii5PointILi3EEESaIS2_EE17_M_realloc_insertEN9__gnu_cxx17__normal_iteratorIPS2_S4_EERKS2_(ptr noundef nonnull align 8 dereferenceable(24) %9, ptr %53, ptr noundef nonnull align 8 dereferenceable(24) %11)
          to label %69 unwind label %179

69:                                               ; preds = %68
  %70 = load ptr, ptr %26, align 8, !tbaa !38
  %71 = load ptr, ptr %27, align 8, !tbaa !12
  br label %72

72:                                               ; preds = %69, %62
  %73 = phi ptr [ %71, %69 ], [ %53, %62 ]
  %74 = phi ptr [ %70, %69 ], [ %67, %62 ]
  call void @llvm.lifetime.end.p0(i64 24, ptr nonnull %11) #23
  call void @llvm.lifetime.start.p0(i64 24, ptr nonnull %11) #23
  call void @llvm.experimental.noalias.scope.decl(metadata !151)
  %75 = load double, ptr %23, align 8, !tbaa !5, !noalias !151
  %76 = fsub double %75, %18
  %77 = load <2 x double>, ptr %1, align 8, !tbaa !5, !noalias !151
  %78 = fadd <2 x double> %32, %77
  store <2 x double> %78, ptr %11, align 16, !tbaa !5, !alias.scope !151
  store double %76, ptr %25, align 16, !tbaa !5, !alias.scope !151
  %79 = icmp eq ptr %74, %73
  br i1 %79, label %87, label %80

80:                                               ; preds = %72
  %81 = extractelement <2 x double> %78, i64 0
  store double %81, ptr %74, align 8, !tbaa !5
  %82 = load double, ptr %24, align 8, !tbaa !5
  %83 = getelementptr inbounds [3 x double], ptr %74, i64 0, i64 1
  store double %82, ptr %83, align 8, !tbaa !5
  %84 = load double, ptr %25, align 16, !tbaa !5
  %85 = getelementptr inbounds [3 x double], ptr %74, i64 0, i64 2
  store double %84, ptr %85, align 8, !tbaa !5
  %86 = getelementptr inbounds %"class.dealii::Point", ptr %74, i64 1
  store ptr %86, ptr %26, align 8, !tbaa !13
  br label %91

87:                                               ; preds = %72
  invoke void @_ZNSt6vectorIN6dealii5PointILi3EEESaIS2_EE17_M_realloc_insertEN9__gnu_cxx17__normal_iteratorIPS2_S4_EERKS2_(ptr noundef nonnull align 8 dereferenceable(24) %9, ptr %73, ptr noundef nonnull align 8 dereferenceable(24) %11)
          to label %88 unwind label %179

88:                                               ; preds = %87
  %89 = load ptr, ptr %26, align 8, !tbaa !38
  %90 = load ptr, ptr %27, align 8, !tbaa !12
  br label %91

91:                                               ; preds = %88, %80
  %92 = phi ptr [ %90, %88 ], [ %73, %80 ]
  %93 = phi ptr [ %89, %88 ], [ %86, %80 ]
  call void @llvm.lifetime.end.p0(i64 24, ptr nonnull %11) #23
  call void @llvm.lifetime.start.p0(i64 24, ptr nonnull %11) #23
  call void @llvm.experimental.noalias.scope.decl(metadata !153)
  %94 = load double, ptr %23, align 8, !tbaa !5, !noalias !153
  %95 = fadd double %18, %94
  %96 = load <2 x double>, ptr %1, align 8, !tbaa !5, !noalias !153
  %97 = fsub <2 x double> %96, %32
  store <2 x double> %97, ptr %11, align 16, !tbaa !5, !alias.scope !153
  store double %95, ptr %25, align 16, !tbaa !5, !alias.scope !153
  %98 = icmp eq ptr %93, %92
  br i1 %98, label %106, label %99

99:                                               ; preds = %91
  %100 = extractelement <2 x double> %97, i64 0
  store double %100, ptr %93, align 8, !tbaa !5
  %101 = load double, ptr %24, align 8, !tbaa !5
  %102 = getelementptr inbounds [3 x double], ptr %93, i64 0, i64 1
  store double %101, ptr %102, align 8, !tbaa !5
  %103 = load double, ptr %25, align 16, !tbaa !5
  %104 = getelementptr inbounds [3 x double], ptr %93, i64 0, i64 2
  store double %103, ptr %104, align 8, !tbaa !5
  %105 = getelementptr inbounds %"class.dealii::Point", ptr %93, i64 1
  store ptr %105, ptr %26, align 8, !tbaa !13
  br label %110

106:                                              ; preds = %91
  invoke void @_ZNSt6vectorIN6dealii5PointILi3EEESaIS2_EE17_M_realloc_insertEN9__gnu_cxx17__normal_iteratorIPS2_S4_EERKS2_(ptr noundef nonnull align 8 dereferenceable(24) %9, ptr %92, ptr noundef nonnull align 8 dereferenceable(24) %11)
          to label %107 unwind label %179

107:                                              ; preds = %106
  %108 = load ptr, ptr %26, align 8, !tbaa !38
  %109 = load ptr, ptr %27, align 8, !tbaa !12
  br label %110

110:                                              ; preds = %107, %99
  %111 = phi ptr [ %109, %107 ], [ %92, %99 ]
  %112 = phi ptr [ %108, %107 ], [ %105, %99 ]
  call void @llvm.lifetime.end.p0(i64 24, ptr nonnull %11) #23
  call void @llvm.lifetime.start.p0(i64 24, ptr nonnull %11) #23
  call void @llvm.experimental.noalias.scope.decl(metadata !155)
  %113 = load double, ptr %1, align 8, !tbaa !5, !noalias !155
  %114 = load double, ptr %22, align 8, !tbaa !5, !noalias !155
  %115 = load double, ptr %23, align 8, !tbaa !5, !noalias !155
  %116 = fadd double %18, %113
  %117 = fsub double %114, %18
  %118 = fadd double %18, %115
  store double %116, ptr %11, align 16, !tbaa !5, !alias.scope !155
  store double %117, ptr %24, align 8, !tbaa !5, !alias.scope !155
  store double %118, ptr %25, align 16, !tbaa !5, !alias.scope !155
  %119 = icmp eq ptr %112, %111
  br i1 %119, label %126, label %120

120:                                              ; preds = %110
  store double %116, ptr %112, align 8, !tbaa !5
  %121 = load double, ptr %24, align 8, !tbaa !5
  %122 = getelementptr inbounds [3 x double], ptr %112, i64 0, i64 1
  store double %121, ptr %122, align 8, !tbaa !5
  %123 = load double, ptr %25, align 16, !tbaa !5
  %124 = getelementptr inbounds [3 x double], ptr %112, i64 0, i64 2
  store double %123, ptr %124, align 8, !tbaa !5
  %125 = getelementptr inbounds %"class.dealii::Point", ptr %112, i64 1
  store ptr %125, ptr %26, align 8, !tbaa !13
  br label %130

126:                                              ; preds = %110
  invoke void @_ZNSt6vectorIN6dealii5PointILi3EEESaIS2_EE17_M_realloc_insertEN9__gnu_cxx17__normal_iteratorIPS2_S4_EERKS2_(ptr noundef nonnull align 8 dereferenceable(24) %9, ptr %111, ptr noundef nonnull align 8 dereferenceable(24) %11)
          to label %127 unwind label %179

127:                                              ; preds = %126
  %128 = load ptr, ptr %26, align 8, !tbaa !38
  %129 = load ptr, ptr %27, align 8, !tbaa !12
  br label %130

130:                                              ; preds = %127, %120
  %131 = phi ptr [ %129, %127 ], [ %111, %120 ]
  %132 = phi ptr [ %128, %127 ], [ %125, %120 ]
  call void @llvm.lifetime.end.p0(i64 24, ptr nonnull %11) #23
  call void @llvm.lifetime.start.p0(i64 24, ptr nonnull %11) #23
  call void @llvm.experimental.noalias.scope.decl(metadata !157)
  %133 = load double, ptr %1, align 8, !tbaa !5, !noalias !157
  %134 = fsub double %133, %18
  store double %134, ptr %11, align 16, !tbaa !5, !alias.scope !157
  %135 = load <2 x double>, ptr %22, align 8, !tbaa !5, !noalias !157
  %136 = fadd <2 x double> %32, %135
  store <2 x double> %136, ptr %24, align 8, !tbaa !5, !alias.scope !157
  %137 = icmp eq ptr %132, %131
  br i1 %137, label %144, label %138

138:                                              ; preds = %130
  store double %134, ptr %132, align 8, !tbaa !5
  %139 = load double, ptr %24, align 8, !tbaa !5
  %140 = getelementptr inbounds [3 x double], ptr %132, i64 0, i64 1
  store double %139, ptr %140, align 8, !tbaa !5
  %141 = load double, ptr %25, align 16, !tbaa !5
  %142 = getelementptr inbounds [3 x double], ptr %132, i64 0, i64 2
  store double %141, ptr %142, align 8, !tbaa !5
  %143 = getelementptr inbounds %"class.dealii::Point", ptr %132, i64 1
  store ptr %143, ptr %26, align 8, !tbaa !13
  br label %148

144:                                              ; preds = %130
  invoke void @_ZNSt6vectorIN6dealii5PointILi3EEESaIS2_EE17_M_realloc_insertEN9__gnu_cxx17__normal_iteratorIPS2_S4_EERKS2_(ptr noundef nonnull align 8 dereferenceable(24) %9, ptr %131, ptr noundef nonnull align 8 dereferenceable(24) %11)
          to label %145 unwind label %179

145:                                              ; preds = %144
  %146 = load ptr, ptr %26, align 8, !tbaa !38
  %147 = load ptr, ptr %27, align 8, !tbaa !12
  br label %148

148:                                              ; preds = %145, %138
  %149 = phi ptr [ %147, %145 ], [ %131, %138 ]
  %150 = phi ptr [ %146, %145 ], [ %143, %138 ]
  call void @llvm.lifetime.end.p0(i64 24, ptr nonnull %11) #23
  call void @llvm.lifetime.start.p0(i64 24, ptr nonnull %11) #23
  call void @llvm.experimental.noalias.scope.decl(metadata !159)
  %151 = load double, ptr %23, align 8, !tbaa !5, !noalias !159
  %152 = fadd double %18, %151
  %153 = load <2 x double>, ptr %1, align 8, !tbaa !5, !noalias !159
  %154 = fadd <2 x double> %32, %153
  store <2 x double> %154, ptr %11, align 16, !tbaa !5, !alias.scope !159
  store double %152, ptr %25, align 16, !tbaa !5, !alias.scope !159
  %155 = icmp eq ptr %150, %149
  br i1 %155, label %163, label %156

156:                                              ; preds = %148
  %157 = extractelement <2 x double> %154, i64 0
  store double %157, ptr %150, align 8, !tbaa !5
  %158 = load double, ptr %24, align 8, !tbaa !5
  %159 = getelementptr inbounds [3 x double], ptr %150, i64 0, i64 1
  store double %158, ptr %159, align 8, !tbaa !5
  %160 = load double, ptr %25, align 16, !tbaa !5
  %161 = getelementptr inbounds [3 x double], ptr %150, i64 0, i64 2
  store double %160, ptr %161, align 8, !tbaa !5
  %162 = getelementptr inbounds %"class.dealii::Point", ptr %150, i64 1
  store ptr %162, ptr %26, align 8, !tbaa !13
  br label %167

163:                                              ; preds = %148
  invoke void @_ZNSt6vectorIN6dealii5PointILi3EEESaIS2_EE17_M_realloc_insertEN9__gnu_cxx17__normal_iteratorIPS2_S4_EERKS2_(ptr noundef nonnull align 8 dereferenceable(24) %9, ptr %149, ptr noundef nonnull align 8 dereferenceable(24) %11)
          to label %164 unwind label %179

164:                                              ; preds = %163
  %165 = load ptr, ptr %26, align 8, !tbaa !38
  %166 = load ptr, ptr %27, align 8, !tbaa !12
  br label %167

167:                                              ; preds = %164, %156
  %168 = phi ptr [ %166, %164 ], [ %149, %156 ]
  %169 = phi ptr [ %165, %164 ], [ %162, %156 ]
  call void @llvm.lifetime.end.p0(i64 24, ptr nonnull %11) #23
  %170 = getelementptr inbounds [3 x double], ptr %12, i64 0, i64 1
  %171 = getelementptr inbounds [3 x double], ptr %12, i64 0, i64 2
  call void @llvm.lifetime.start.p0(i64 24, ptr nonnull %12) #23
  call void @llvm.experimental.noalias.scope.decl(metadata !161)
  %172 = load double, ptr %23, align 8, !tbaa !5, !noalias !161
  %173 = fsub double %172, %19
  %174 = load <2 x double>, ptr %1, align 8, !tbaa !5, !noalias !161
  %175 = insertelement <2 x double> poison, double %19, i64 0
  %176 = shufflevector <2 x double> %175, <2 x double> poison, <2 x i32> zeroinitializer
  %177 = fsub <2 x double> %174, %176
  store <2 x double> %177, ptr %12, align 16, !tbaa !5, !alias.scope !161
  store double %173, ptr %171, align 16, !tbaa !5, !alias.scope !161
  %178 = icmp eq ptr %169, %168
  br i1 %178, label %202, label %195

179:                                              ; preds = %163, %144, %126, %106, %87, %68, %48, %21
  %180 = landingpad { ptr, i32 }
          cleanup
  call void @llvm.lifetime.end.p0(i64 24, ptr nonnull %11) #23
  br label %968

181:                                              ; preds = %328, %335
  call void @llvm.lifetime.end.p0(i64 24, ptr nonnull %12) #23
  call void @llvm.lifetime.start.p0(i64 36, ptr nonnull %8)
  call void @llvm.memset.p0.i64(ptr noundef nonnull align 8 dereferenceable(36) %8, i8 0, i64 36, i1 false)
  invoke void @_ZNSt6vectorIN6dealii8CellDataILi3EEESaIS2_EE14_M_fill_insertEN9__gnu_cxx17__normal_iteratorIPS2_S4_EEmRKS2_(ptr noundef nonnull align 8 dereferenceable(24) %10, ptr null, i64 noundef 6, ptr noundef nonnull align 4 dereferenceable(36) %8)
          to label %182 unwind label %338

182:                                              ; preds = %181
  %183 = load ptr, ptr %10, align 8, !tbaa !14
  call void @llvm.lifetime.end.p0(i64 36, ptr nonnull %8)
  store <8 x i32> <i32 8, i32 9, i32 10, i32 11, i32 0, i32 1, i32 2, i32 3>, ptr %183, align 4, !tbaa !18
  %184 = getelementptr inbounds %"struct.dealii::CellData", ptr %183, i64 0, i32 1
  store i8 0, ptr %184, align 4, !tbaa !20
  %185 = getelementptr inbounds %"struct.dealii::CellData", ptr %183, i64 1
  store <8 x i32> <i32 9, i32 11, i32 1, i32 3, i32 13, i32 15, i32 5, i32 7>, ptr %185, align 4, !tbaa !18
  %186 = getelementptr inbounds %"struct.dealii::CellData", ptr %183, i64 1, i32 1
  store i8 0, ptr %186, align 4, !tbaa !20
  %187 = getelementptr inbounds %"struct.dealii::CellData", ptr %183, i64 2
  store <8 x i32> <i32 12, i32 13, i32 4, i32 5, i32 14, i32 15, i32 6, i32 7>, ptr %187, align 4, !tbaa !18
  %188 = getelementptr inbounds %"struct.dealii::CellData", ptr %183, i64 2, i32 1
  store i8 0, ptr %188, align 4, !tbaa !20
  %189 = getelementptr inbounds %"struct.dealii::CellData", ptr %183, i64 3
  store <8 x i32> <i32 8, i32 0, i32 10, i32 2, i32 12, i32 4, i32 14, i32 6>, ptr %189, align 4, !tbaa !18
  %190 = getelementptr inbounds %"struct.dealii::CellData", ptr %183, i64 3, i32 1
  store i8 0, ptr %190, align 4, !tbaa !20
  %191 = getelementptr inbounds %"struct.dealii::CellData", ptr %183, i64 4
  store <8 x i32> <i32 8, i32 9, i32 0, i32 1, i32 12, i32 13, i32 4, i32 5>, ptr %191, align 4, !tbaa !18
  %192 = getelementptr inbounds %"struct.dealii::CellData", ptr %183, i64 4, i32 1
  store i8 0, ptr %192, align 4, !tbaa !20
  %193 = getelementptr inbounds %"struct.dealii::CellData", ptr %183, i64 5
  store <8 x i32> <i32 10, i32 2, i32 11, i32 3, i32 14, i32 6, i32 15, i32 7>, ptr %193, align 4, !tbaa !18
  %194 = getelementptr inbounds %"struct.dealii::CellData", ptr %183, i64 5, i32 1
  store i8 0, ptr %194, align 4, !tbaa !20
  br label %939

195:                                              ; preds = %167
  %196 = extractelement <2 x double> %177, i64 0
  store double %196, ptr %169, align 8, !tbaa !5
  %197 = load double, ptr %170, align 8, !tbaa !5
  %198 = getelementptr inbounds [3 x double], ptr %169, i64 0, i64 1
  store double %197, ptr %198, align 8, !tbaa !5
  %199 = load double, ptr %171, align 16, !tbaa !5
  %200 = getelementptr inbounds [3 x double], ptr %169, i64 0, i64 2
  store double %199, ptr %200, align 8, !tbaa !5
  %201 = getelementptr inbounds %"class.dealii::Point", ptr %169, i64 1
  store ptr %201, ptr %26, align 8, !tbaa !13
  br label %206

202:                                              ; preds = %167
  invoke void @_ZNSt6vectorIN6dealii5PointILi3EEESaIS2_EE17_M_realloc_insertEN9__gnu_cxx17__normal_iteratorIPS2_S4_EERKS2_(ptr noundef nonnull align 8 dereferenceable(24) %9, ptr %168, ptr noundef nonnull align 8 dereferenceable(24) %12)
          to label %203 unwind label %336

203:                                              ; preds = %202
  %204 = load ptr, ptr %26, align 8, !tbaa !38
  %205 = load ptr, ptr %27, align 8, !tbaa !12
  br label %206

206:                                              ; preds = %203, %195
  %207 = phi ptr [ %205, %203 ], [ %168, %195 ]
  %208 = phi ptr [ %204, %203 ], [ %201, %195 ]
  call void @llvm.lifetime.end.p0(i64 24, ptr nonnull %12) #23
  call void @llvm.lifetime.start.p0(i64 24, ptr nonnull %12) #23
  call void @llvm.experimental.noalias.scope.decl(metadata !164)
  %209 = load double, ptr %1, align 8, !tbaa !5, !noalias !164
  %210 = fadd double %19, %209
  store double %210, ptr %12, align 16, !tbaa !5, !alias.scope !164
  %211 = load <2 x double>, ptr %22, align 8, !tbaa !5, !noalias !164
  %212 = fsub <2 x double> %211, %176
  store <2 x double> %212, ptr %170, align 8, !tbaa !5, !alias.scope !164
  %213 = icmp eq ptr %208, %207
  br i1 %213, label %220, label %214

214:                                              ; preds = %206
  store double %210, ptr %208, align 8, !tbaa !5
  %215 = load double, ptr %170, align 8, !tbaa !5
  %216 = getelementptr inbounds [3 x double], ptr %208, i64 0, i64 1
  store double %215, ptr %216, align 8, !tbaa !5
  %217 = load double, ptr %171, align 16, !tbaa !5
  %218 = getelementptr inbounds [3 x double], ptr %208, i64 0, i64 2
  store double %217, ptr %218, align 8, !tbaa !5
  %219 = getelementptr inbounds %"class.dealii::Point", ptr %208, i64 1
  store ptr %219, ptr %26, align 8, !tbaa !13
  br label %224

220:                                              ; preds = %206
  invoke void @_ZNSt6vectorIN6dealii5PointILi3EEESaIS2_EE17_M_realloc_insertEN9__gnu_cxx17__normal_iteratorIPS2_S4_EERKS2_(ptr noundef nonnull align 8 dereferenceable(24) %9, ptr %207, ptr noundef nonnull align 8 dereferenceable(24) %12)
          to label %221 unwind label %336

221:                                              ; preds = %220
  %222 = load ptr, ptr %26, align 8, !tbaa !38
  %223 = load ptr, ptr %27, align 8, !tbaa !12
  br label %224

224:                                              ; preds = %221, %214
  %225 = phi ptr [ %223, %221 ], [ %207, %214 ]
  %226 = phi ptr [ %222, %221 ], [ %219, %214 ]
  call void @llvm.lifetime.end.p0(i64 24, ptr nonnull %12) #23
  call void @llvm.lifetime.start.p0(i64 24, ptr nonnull %12) #23
  call void @llvm.experimental.noalias.scope.decl(metadata !166)
  %227 = load double, ptr %1, align 8, !tbaa !5, !noalias !166
  %228 = load double, ptr %22, align 8, !tbaa !5, !noalias !166
  %229 = load double, ptr %23, align 8, !tbaa !5, !noalias !166
  %230 = fsub double %227, %19
  %231 = fadd double %19, %228
  %232 = fsub double %229, %19
  store double %230, ptr %12, align 16, !tbaa !5, !alias.scope !166
  store double %231, ptr %170, align 8, !tbaa !5, !alias.scope !166
  store double %232, ptr %171, align 16, !tbaa !5, !alias.scope !166
  %233 = icmp eq ptr %226, %225
  br i1 %233, label %240, label %234

234:                                              ; preds = %224
  store double %230, ptr %226, align 8, !tbaa !5
  %235 = load double, ptr %170, align 8, !tbaa !5
  %236 = getelementptr inbounds [3 x double], ptr %226, i64 0, i64 1
  store double %235, ptr %236, align 8, !tbaa !5
  %237 = load double, ptr %171, align 16, !tbaa !5
  %238 = getelementptr inbounds [3 x double], ptr %226, i64 0, i64 2
  store double %237, ptr %238, align 8, !tbaa !5
  %239 = getelementptr inbounds %"class.dealii::Point", ptr %226, i64 1
  store ptr %239, ptr %26, align 8, !tbaa !13
  br label %244

240:                                              ; preds = %224
  invoke void @_ZNSt6vectorIN6dealii5PointILi3EEESaIS2_EE17_M_realloc_insertEN9__gnu_cxx17__normal_iteratorIPS2_S4_EERKS2_(ptr noundef nonnull align 8 dereferenceable(24) %9, ptr %225, ptr noundef nonnull align 8 dereferenceable(24) %12)
          to label %241 unwind label %336

241:                                              ; preds = %240
  %242 = load ptr, ptr %26, align 8, !tbaa !38
  %243 = load ptr, ptr %27, align 8, !tbaa !12
  br label %244

244:                                              ; preds = %241, %234
  %245 = phi ptr [ %243, %241 ], [ %225, %234 ]
  %246 = phi ptr [ %242, %241 ], [ %239, %234 ]
  call void @llvm.lifetime.end.p0(i64 24, ptr nonnull %12) #23
  call void @llvm.lifetime.start.p0(i64 24, ptr nonnull %12) #23
  call void @llvm.experimental.noalias.scope.decl(metadata !168)
  %247 = load double, ptr %23, align 8, !tbaa !5, !noalias !168
  %248 = fsub double %247, %19
  %249 = load <2 x double>, ptr %1, align 8, !tbaa !5, !noalias !168
  %250 = fadd <2 x double> %176, %249
  store <2 x double> %250, ptr %12, align 16, !tbaa !5, !alias.scope !168
  store double %248, ptr %171, align 16, !tbaa !5, !alias.scope !168
  %251 = icmp eq ptr %246, %245
  br i1 %251, label %259, label %252

252:                                              ; preds = %244
  %253 = extractelement <2 x double> %250, i64 0
  store double %253, ptr %246, align 8, !tbaa !5
  %254 = load double, ptr %170, align 8, !tbaa !5
  %255 = getelementptr inbounds [3 x double], ptr %246, i64 0, i64 1
  store double %254, ptr %255, align 8, !tbaa !5
  %256 = load double, ptr %171, align 16, !tbaa !5
  %257 = getelementptr inbounds [3 x double], ptr %246, i64 0, i64 2
  store double %256, ptr %257, align 8, !tbaa !5
  %258 = getelementptr inbounds %"class.dealii::Point", ptr %246, i64 1
  store ptr %258, ptr %26, align 8, !tbaa !13
  br label %263

259:                                              ; preds = %244
  invoke void @_ZNSt6vectorIN6dealii5PointILi3EEESaIS2_EE17_M_realloc_insertEN9__gnu_cxx17__normal_iteratorIPS2_S4_EERKS2_(ptr noundef nonnull align 8 dereferenceable(24) %9, ptr %245, ptr noundef nonnull align 8 dereferenceable(24) %12)
          to label %260 unwind label %336

260:                                              ; preds = %259
  %261 = load ptr, ptr %26, align 8, !tbaa !38
  %262 = load ptr, ptr %27, align 8, !tbaa !12
  br label %263

263:                                              ; preds = %260, %252
  %264 = phi ptr [ %262, %260 ], [ %245, %252 ]
  %265 = phi ptr [ %261, %260 ], [ %258, %252 ]
  call void @llvm.lifetime.end.p0(i64 24, ptr nonnull %12) #23
  call void @llvm.lifetime.start.p0(i64 24, ptr nonnull %12) #23
  call void @llvm.experimental.noalias.scope.decl(metadata !170)
  %266 = load double, ptr %23, align 8, !tbaa !5, !noalias !170
  %267 = fadd double %19, %266
  %268 = load <2 x double>, ptr %1, align 8, !tbaa !5, !noalias !170
  %269 = fsub <2 x double> %268, %176
  store <2 x double> %269, ptr %12, align 16, !tbaa !5, !alias.scope !170
  store double %267, ptr %171, align 16, !tbaa !5, !alias.scope !170
  %270 = icmp eq ptr %265, %264
  br i1 %270, label %278, label %271

271:                                              ; preds = %263
  %272 = extractelement <2 x double> %269, i64 0
  store double %272, ptr %265, align 8, !tbaa !5
  %273 = load double, ptr %170, align 8, !tbaa !5
  %274 = getelementptr inbounds [3 x double], ptr %265, i64 0, i64 1
  store double %273, ptr %274, align 8, !tbaa !5
  %275 = load double, ptr %171, align 16, !tbaa !5
  %276 = getelementptr inbounds [3 x double], ptr %265, i64 0, i64 2
  store double %275, ptr %276, align 8, !tbaa !5
  %277 = getelementptr inbounds %"class.dealii::Point", ptr %265, i64 1
  store ptr %277, ptr %26, align 8, !tbaa !13
  br label %282

278:                                              ; preds = %263
  invoke void @_ZNSt6vectorIN6dealii5PointILi3EEESaIS2_EE17_M_realloc_insertEN9__gnu_cxx17__normal_iteratorIPS2_S4_EERKS2_(ptr noundef nonnull align 8 dereferenceable(24) %9, ptr %264, ptr noundef nonnull align 8 dereferenceable(24) %12)
          to label %279 unwind label %336

279:                                              ; preds = %278
  %280 = load ptr, ptr %26, align 8, !tbaa !38
  %281 = load ptr, ptr %27, align 8, !tbaa !12
  br label %282

282:                                              ; preds = %279, %271
  %283 = phi ptr [ %281, %279 ], [ %264, %271 ]
  %284 = phi ptr [ %280, %279 ], [ %277, %271 ]
  call void @llvm.lifetime.end.p0(i64 24, ptr nonnull %12) #23
  call void @llvm.lifetime.start.p0(i64 24, ptr nonnull %12) #23
  call void @llvm.experimental.noalias.scope.decl(metadata !172)
  %285 = load double, ptr %1, align 8, !tbaa !5, !noalias !172
  %286 = load double, ptr %22, align 8, !tbaa !5, !noalias !172
  %287 = load double, ptr %23, align 8, !tbaa !5, !noalias !172
  %288 = fadd double %19, %285
  %289 = fsub double %286, %19
  %290 = fadd double %19, %287
  store double %288, ptr %12, align 16, !tbaa !5, !alias.scope !172
  store double %289, ptr %170, align 8, !tbaa !5, !alias.scope !172
  store double %290, ptr %171, align 16, !tbaa !5, !alias.scope !172
  %291 = icmp eq ptr %284, %283
  br i1 %291, label %298, label %292

292:                                              ; preds = %282
  store double %288, ptr %284, align 8, !tbaa !5
  %293 = load double, ptr %170, align 8, !tbaa !5
  %294 = getelementptr inbounds [3 x double], ptr %284, i64 0, i64 1
  store double %293, ptr %294, align 8, !tbaa !5
  %295 = load double, ptr %171, align 16, !tbaa !5
  %296 = getelementptr inbounds [3 x double], ptr %284, i64 0, i64 2
  store double %295, ptr %296, align 8, !tbaa !5
  %297 = getelementptr inbounds %"class.dealii::Point", ptr %284, i64 1
  store ptr %297, ptr %26, align 8, !tbaa !13
  br label %302

298:                                              ; preds = %282
  invoke void @_ZNSt6vectorIN6dealii5PointILi3EEESaIS2_EE17_M_realloc_insertEN9__gnu_cxx17__normal_iteratorIPS2_S4_EERKS2_(ptr noundef nonnull align 8 dereferenceable(24) %9, ptr %283, ptr noundef nonnull align 8 dereferenceable(24) %12)
          to label %299 unwind label %336

299:                                              ; preds = %298
  %300 = load ptr, ptr %26, align 8, !tbaa !38
  %301 = load ptr, ptr %27, align 8, !tbaa !12
  br label %302

302:                                              ; preds = %299, %292
  %303 = phi ptr [ %301, %299 ], [ %283, %292 ]
  %304 = phi ptr [ %300, %299 ], [ %297, %292 ]
  call void @llvm.lifetime.end.p0(i64 24, ptr nonnull %12) #23
  call void @llvm.lifetime.start.p0(i64 24, ptr nonnull %12) #23
  call void @llvm.experimental.noalias.scope.decl(metadata !174)
  %305 = load double, ptr %1, align 8, !tbaa !5, !noalias !174
  %306 = fsub double %305, %19
  store double %306, ptr %12, align 16, !tbaa !5, !alias.scope !174
  %307 = load <2 x double>, ptr %22, align 8, !tbaa !5, !noalias !174
  %308 = fadd <2 x double> %176, %307
  store <2 x double> %308, ptr %170, align 8, !tbaa !5, !alias.scope !174
  %309 = icmp eq ptr %304, %303
  br i1 %309, label %316, label %310

310:                                              ; preds = %302
  store double %306, ptr %304, align 8, !tbaa !5
  %311 = load double, ptr %170, align 8, !tbaa !5
  %312 = getelementptr inbounds [3 x double], ptr %304, i64 0, i64 1
  store double %311, ptr %312, align 8, !tbaa !5
  %313 = load double, ptr %171, align 16, !tbaa !5
  %314 = getelementptr inbounds [3 x double], ptr %304, i64 0, i64 2
  store double %313, ptr %314, align 8, !tbaa !5
  %315 = getelementptr inbounds %"class.dealii::Point", ptr %304, i64 1
  store ptr %315, ptr %26, align 8, !tbaa !13
  br label %320

316:                                              ; preds = %302
  invoke void @_ZNSt6vectorIN6dealii5PointILi3EEESaIS2_EE17_M_realloc_insertEN9__gnu_cxx17__normal_iteratorIPS2_S4_EERKS2_(ptr noundef nonnull align 8 dereferenceable(24) %9, ptr %303, ptr noundef nonnull align 8 dereferenceable(24) %12)
          to label %317 unwind label %336

317:                                              ; preds = %316
  %318 = load ptr, ptr %26, align 8, !tbaa !38
  %319 = load ptr, ptr %27, align 8, !tbaa !12
  br label %320

320:                                              ; preds = %317, %310
  %321 = phi ptr [ %319, %317 ], [ %303, %310 ]
  %322 = phi ptr [ %318, %317 ], [ %315, %310 ]
  call void @llvm.lifetime.end.p0(i64 24, ptr nonnull %12) #23
  call void @llvm.lifetime.start.p0(i64 24, ptr nonnull %12) #23
  call void @llvm.experimental.noalias.scope.decl(metadata !176)
  %323 = load double, ptr %23, align 8, !tbaa !5, !noalias !176
  %324 = fadd double %19, %323
  %325 = load <2 x double>, ptr %1, align 8, !tbaa !5, !noalias !176
  %326 = fadd <2 x double> %176, %325
  store <2 x double> %326, ptr %12, align 16, !tbaa !5, !alias.scope !176
  store double %324, ptr %171, align 16, !tbaa !5, !alias.scope !176
  %327 = icmp eq ptr %322, %321
  br i1 %327, label %335, label %328

328:                                              ; preds = %320
  %329 = extractelement <2 x double> %326, i64 0
  store double %329, ptr %322, align 8, !tbaa !5
  %330 = load double, ptr %170, align 8, !tbaa !5
  %331 = getelementptr inbounds [3 x double], ptr %322, i64 0, i64 1
  store double %330, ptr %331, align 8, !tbaa !5
  %332 = load double, ptr %171, align 16, !tbaa !5
  %333 = getelementptr inbounds [3 x double], ptr %322, i64 0, i64 2
  store double %332, ptr %333, align 8, !tbaa !5
  %334 = getelementptr inbounds %"class.dealii::Point", ptr %322, i64 1
  store ptr %334, ptr %26, align 8, !tbaa !13
  br label %181

335:                                              ; preds = %320
  invoke void @_ZNSt6vectorIN6dealii5PointILi3EEESaIS2_EE17_M_realloc_insertEN9__gnu_cxx17__normal_iteratorIPS2_S4_EERKS2_(ptr noundef nonnull align 8 dereferenceable(24) %9, ptr %321, ptr noundef nonnull align 8 dereferenceable(24) %12)
          to label %181 unwind label %336

336:                                              ; preds = %335, %316, %298, %278, %259, %240, %220, %202
  %337 = landingpad { ptr, i32 }
          cleanup
  call void @llvm.lifetime.end.p0(i64 24, ptr nonnull %12) #23
  br label %968

338:                                              ; preds = %181
  %339 = landingpad { ptr, i32 }
          cleanup
  br label %968

340:                                              ; preds = %6
  %341 = icmp ult i32 %4, 13
  br i1 %341, label %342, label %939

342:                                              ; preds = %340
  %343 = getelementptr inbounds [3 x double], ptr %1, i64 0, i64 1
  %344 = getelementptr inbounds [3 x double], ptr %1, i64 0, i64 2
  %345 = getelementptr inbounds [3 x double], ptr %13, i64 0, i64 1
  %346 = getelementptr inbounds [3 x double], ptr %13, i64 0, i64 2
  %347 = getelementptr inbounds %"struct.std::_Vector_base<dealii::Point<3>, std::allocator<dealii::Point<3> > >::_Vector_impl_data", ptr %9, i64 0, i32 1
  %348 = getelementptr inbounds %"struct.std::_Vector_base<dealii::Point<3>, std::allocator<dealii::Point<3> > >::_Vector_impl_data", ptr %9, i64 0, i32 2
  call void @llvm.lifetime.start.p0(i64 24, ptr nonnull %13) #23
  %349 = load double, ptr %344, align 8, !tbaa !5, !noalias !133
  %350 = fsub double %349, %18
  %351 = load <2 x double>, ptr %1, align 8, !tbaa !5, !noalias !133
  %352 = insertelement <2 x double> poison, double %18, i64 0
  %353 = shufflevector <2 x double> %352, <2 x double> poison, <2 x i32> zeroinitializer
  %354 = fsub <2 x double> %351, %353
  store <2 x double> %354, ptr %13, align 16, !tbaa !5, !alias.scope !178
  store double %350, ptr %346, align 16, !tbaa !5, !alias.scope !178
  invoke void @_ZNSt6vectorIN6dealii5PointILi3EEESaIS2_EE17_M_realloc_insertEN9__gnu_cxx17__normal_iteratorIPS2_S4_EERKS2_(ptr noundef nonnull align 8 dereferenceable(24) %9, ptr null, ptr noundef nonnull align 8 dereferenceable(24) %13)
          to label %355 unwind label %501

355:                                              ; preds = %342
  %356 = load ptr, ptr %347, align 8, !tbaa !38
  %357 = load ptr, ptr %348, align 8, !tbaa !12
  %358 = load double, ptr %1, align 8, !tbaa !5, !noalias !181
  call void @llvm.lifetime.end.p0(i64 24, ptr nonnull %13) #23
  call void @llvm.lifetime.start.p0(i64 24, ptr nonnull %13) #23
  call void @llvm.experimental.noalias.scope.decl(metadata !181)
  %359 = fadd double %18, %358
  store double %359, ptr %13, align 16, !tbaa !5, !alias.scope !181
  %360 = load <2 x double>, ptr %343, align 8, !tbaa !5, !noalias !181
  %361 = fsub <2 x double> %360, %353
  store <2 x double> %361, ptr %345, align 8, !tbaa !5, !alias.scope !181
  %362 = icmp eq ptr %356, %357
  br i1 %362, label %369, label %363

363:                                              ; preds = %355
  store double %359, ptr %356, align 8, !tbaa !5
  %364 = load double, ptr %345, align 8, !tbaa !5
  %365 = getelementptr inbounds [3 x double], ptr %356, i64 0, i64 1
  store double %364, ptr %365, align 8, !tbaa !5
  %366 = load double, ptr %346, align 16, !tbaa !5
  %367 = getelementptr inbounds [3 x double], ptr %356, i64 0, i64 2
  store double %366, ptr %367, align 8, !tbaa !5
  %368 = getelementptr inbounds %"class.dealii::Point", ptr %356, i64 1
  store ptr %368, ptr %347, align 8, !tbaa !13
  br label %373

369:                                              ; preds = %355
  invoke void @_ZNSt6vectorIN6dealii5PointILi3EEESaIS2_EE17_M_realloc_insertEN9__gnu_cxx17__normal_iteratorIPS2_S4_EERKS2_(ptr noundef nonnull align 8 dereferenceable(24) %9, ptr %357, ptr noundef nonnull align 8 dereferenceable(24) %13)
          to label %370 unwind label %501

370:                                              ; preds = %369
  %371 = load ptr, ptr %347, align 8, !tbaa !38
  %372 = load ptr, ptr %348, align 8, !tbaa !12
  br label %373

373:                                              ; preds = %370, %363
  %374 = phi ptr [ %372, %370 ], [ %357, %363 ]
  %375 = phi ptr [ %371, %370 ], [ %368, %363 ]
  call void @llvm.lifetime.end.p0(i64 24, ptr nonnull %13) #23
  call void @llvm.lifetime.start.p0(i64 24, ptr nonnull %13) #23
  call void @llvm.experimental.noalias.scope.decl(metadata !183)
  %376 = load double, ptr %1, align 8, !tbaa !5, !noalias !183
  %377 = load double, ptr %343, align 8, !tbaa !5, !noalias !183
  %378 = load double, ptr %344, align 8, !tbaa !5, !noalias !183
  %379 = fsub double %376, %18
  %380 = fadd double %18, %377
  %381 = fsub double %378, %18
  store double %379, ptr %13, align 16, !tbaa !5, !alias.scope !183
  store double %380, ptr %345, align 8, !tbaa !5, !alias.scope !183
  store double %381, ptr %346, align 16, !tbaa !5, !alias.scope !183
  %382 = icmp eq ptr %375, %374
  br i1 %382, label %389, label %383

383:                                              ; preds = %373
  store double %379, ptr %375, align 8, !tbaa !5
  %384 = load double, ptr %345, align 8, !tbaa !5
  %385 = getelementptr inbounds [3 x double], ptr %375, i64 0, i64 1
  store double %384, ptr %385, align 8, !tbaa !5
  %386 = load double, ptr %346, align 16, !tbaa !5
  %387 = getelementptr inbounds [3 x double], ptr %375, i64 0, i64 2
  store double %386, ptr %387, align 8, !tbaa !5
  %388 = getelementptr inbounds %"class.dealii::Point", ptr %375, i64 1
  store ptr %388, ptr %347, align 8, !tbaa !13
  br label %393

389:                                              ; preds = %373
  invoke void @_ZNSt6vectorIN6dealii5PointILi3EEESaIS2_EE17_M_realloc_insertEN9__gnu_cxx17__normal_iteratorIPS2_S4_EERKS2_(ptr noundef nonnull align 8 dereferenceable(24) %9, ptr %374, ptr noundef nonnull align 8 dereferenceable(24) %13)
          to label %390 unwind label %501

390:                                              ; preds = %389
  %391 = load ptr, ptr %347, align 8, !tbaa !38
  %392 = load ptr, ptr %348, align 8, !tbaa !12
  br label %393

393:                                              ; preds = %390, %383
  %394 = phi ptr [ %392, %390 ], [ %374, %383 ]
  %395 = phi ptr [ %391, %390 ], [ %388, %383 ]
  call void @llvm.lifetime.end.p0(i64 24, ptr nonnull %13) #23
  call void @llvm.lifetime.start.p0(i64 24, ptr nonnull %13) #23
  call void @llvm.experimental.noalias.scope.decl(metadata !185)
  %396 = load double, ptr %344, align 8, !tbaa !5, !noalias !185
  %397 = fsub double %396, %18
  %398 = load <2 x double>, ptr %1, align 8, !tbaa !5, !noalias !185
  %399 = fadd <2 x double> %353, %398
  store <2 x double> %399, ptr %13, align 16, !tbaa !5, !alias.scope !185
  store double %397, ptr %346, align 16, !tbaa !5, !alias.scope !185
  %400 = icmp eq ptr %395, %394
  br i1 %400, label %408, label %401

401:                                              ; preds = %393
  %402 = extractelement <2 x double> %399, i64 0
  store double %402, ptr %395, align 8, !tbaa !5
  %403 = load double, ptr %345, align 8, !tbaa !5
  %404 = getelementptr inbounds [3 x double], ptr %395, i64 0, i64 1
  store double %403, ptr %404, align 8, !tbaa !5
  %405 = load double, ptr %346, align 16, !tbaa !5
  %406 = getelementptr inbounds [3 x double], ptr %395, i64 0, i64 2
  store double %405, ptr %406, align 8, !tbaa !5
  %407 = getelementptr inbounds %"class.dealii::Point", ptr %395, i64 1
  store ptr %407, ptr %347, align 8, !tbaa !13
  br label %412

408:                                              ; preds = %393
  invoke void @_ZNSt6vectorIN6dealii5PointILi3EEESaIS2_EE17_M_realloc_insertEN9__gnu_cxx17__normal_iteratorIPS2_S4_EERKS2_(ptr noundef nonnull align 8 dereferenceable(24) %9, ptr %394, ptr noundef nonnull align 8 dereferenceable(24) %13)
          to label %409 unwind label %501

409:                                              ; preds = %408
  %410 = load ptr, ptr %347, align 8, !tbaa !38
  %411 = load ptr, ptr %348, align 8, !tbaa !12
  br label %412

412:                                              ; preds = %409, %401
  %413 = phi ptr [ %411, %409 ], [ %394, %401 ]
  %414 = phi ptr [ %410, %409 ], [ %407, %401 ]
  call void @llvm.lifetime.end.p0(i64 24, ptr nonnull %13) #23
  call void @llvm.lifetime.start.p0(i64 24, ptr nonnull %13) #23
  call void @llvm.experimental.noalias.scope.decl(metadata !187)
  %415 = load double, ptr %344, align 8, !tbaa !5, !noalias !187
  %416 = fadd double %18, %415
  %417 = load <2 x double>, ptr %1, align 8, !tbaa !5, !noalias !187
  %418 = fsub <2 x double> %417, %353
  store <2 x double> %418, ptr %13, align 16, !tbaa !5, !alias.scope !187
  store double %416, ptr %346, align 16, !tbaa !5, !alias.scope !187
  %419 = icmp eq ptr %414, %413
  br i1 %419, label %427, label %420

420:                                              ; preds = %412
  %421 = extractelement <2 x double> %418, i64 0
  store double %421, ptr %414, align 8, !tbaa !5
  %422 = load double, ptr %345, align 8, !tbaa !5
  %423 = getelementptr inbounds [3 x double], ptr %414, i64 0, i64 1
  store double %422, ptr %423, align 8, !tbaa !5
  %424 = load double, ptr %346, align 16, !tbaa !5
  %425 = getelementptr inbounds [3 x double], ptr %414, i64 0, i64 2
  store double %424, ptr %425, align 8, !tbaa !5
  %426 = getelementptr inbounds %"class.dealii::Point", ptr %414, i64 1
  store ptr %426, ptr %347, align 8, !tbaa !13
  br label %431

427:                                              ; preds = %412
  invoke void @_ZNSt6vectorIN6dealii5PointILi3EEESaIS2_EE17_M_realloc_insertEN9__gnu_cxx17__normal_iteratorIPS2_S4_EERKS2_(ptr noundef nonnull align 8 dereferenceable(24) %9, ptr %413, ptr noundef nonnull align 8 dereferenceable(24) %13)
          to label %428 unwind label %501

428:                                              ; preds = %427
  %429 = load ptr, ptr %347, align 8, !tbaa !38
  %430 = load ptr, ptr %348, align 8, !tbaa !12
  br label %431

431:                                              ; preds = %428, %420
  %432 = phi ptr [ %430, %428 ], [ %413, %420 ]
  %433 = phi ptr [ %429, %428 ], [ %426, %420 ]
  call void @llvm.lifetime.end.p0(i64 24, ptr nonnull %13) #23
  call void @llvm.lifetime.start.p0(i64 24, ptr nonnull %13) #23
  call void @llvm.experimental.noalias.scope.decl(metadata !189)
  %434 = load double, ptr %1, align 8, !tbaa !5, !noalias !189
  %435 = load double, ptr %343, align 8, !tbaa !5, !noalias !189
  %436 = load double, ptr %344, align 8, !tbaa !5, !noalias !189
  %437 = fadd double %18, %434
  %438 = fsub double %435, %18
  %439 = fadd double %18, %436
  store double %437, ptr %13, align 16, !tbaa !5, !alias.scope !189
  store double %438, ptr %345, align 8, !tbaa !5, !alias.scope !189
  store double %439, ptr %346, align 16, !tbaa !5, !alias.scope !189
  %440 = icmp eq ptr %433, %432
  br i1 %440, label %447, label %441

441:                                              ; preds = %431
  store double %437, ptr %433, align 8, !tbaa !5
  %442 = load double, ptr %345, align 8, !tbaa !5
  %443 = getelementptr inbounds [3 x double], ptr %433, i64 0, i64 1
  store double %442, ptr %443, align 8, !tbaa !5
  %444 = load double, ptr %346, align 16, !tbaa !5
  %445 = getelementptr inbounds [3 x double], ptr %433, i64 0, i64 2
  store double %444, ptr %445, align 8, !tbaa !5
  %446 = getelementptr inbounds %"class.dealii::Point", ptr %433, i64 1
  store ptr %446, ptr %347, align 8, !tbaa !13
  br label %451

447:                                              ; preds = %431
  invoke void @_ZNSt6vectorIN6dealii5PointILi3EEESaIS2_EE17_M_realloc_insertEN9__gnu_cxx17__normal_iteratorIPS2_S4_EERKS2_(ptr noundef nonnull align 8 dereferenceable(24) %9, ptr %432, ptr noundef nonnull align 8 dereferenceable(24) %13)
          to label %448 unwind label %501

448:                                              ; preds = %447
  %449 = load ptr, ptr %347, align 8, !tbaa !38
  %450 = load ptr, ptr %348, align 8, !tbaa !12
  br label %451

451:                                              ; preds = %448, %441
  %452 = phi ptr [ %450, %448 ], [ %432, %441 ]
  %453 = phi ptr [ %449, %448 ], [ %446, %441 ]
  call void @llvm.lifetime.end.p0(i64 24, ptr nonnull %13) #23
  call void @llvm.lifetime.start.p0(i64 24, ptr nonnull %13) #23
  call void @llvm.experimental.noalias.scope.decl(metadata !191)
  %454 = load double, ptr %1, align 8, !tbaa !5, !noalias !191
  %455 = fsub double %454, %18
  store double %455, ptr %13, align 16, !tbaa !5, !alias.scope !191
  %456 = load <2 x double>, ptr %343, align 8, !tbaa !5, !noalias !191
  %457 = fadd <2 x double> %353, %456
  store <2 x double> %457, ptr %345, align 8, !tbaa !5, !alias.scope !191
  %458 = icmp eq ptr %453, %452
  br i1 %458, label %465, label %459

459:                                              ; preds = %451
  store double %455, ptr %453, align 8, !tbaa !5
  %460 = load double, ptr %345, align 8, !tbaa !5
  %461 = getelementptr inbounds [3 x double], ptr %453, i64 0, i64 1
  store double %460, ptr %461, align 8, !tbaa !5
  %462 = load double, ptr %346, align 16, !tbaa !5
  %463 = getelementptr inbounds [3 x double], ptr %453, i64 0, i64 2
  store double %462, ptr %463, align 8, !tbaa !5
  %464 = getelementptr inbounds %"class.dealii::Point", ptr %453, i64 1
  store ptr %464, ptr %347, align 8, !tbaa !13
  br label %469

465:                                              ; preds = %451
  invoke void @_ZNSt6vectorIN6dealii5PointILi3EEESaIS2_EE17_M_realloc_insertEN9__gnu_cxx17__normal_iteratorIPS2_S4_EERKS2_(ptr noundef nonnull align 8 dereferenceable(24) %9, ptr %452, ptr noundef nonnull align 8 dereferenceable(24) %13)
          to label %466 unwind label %501

466:                                              ; preds = %465
  %467 = load ptr, ptr %347, align 8, !tbaa !38
  %468 = load ptr, ptr %348, align 8, !tbaa !12
  br label %469

469:                                              ; preds = %466, %459
  %470 = phi ptr [ %468, %466 ], [ %452, %459 ]
  %471 = phi ptr [ %467, %466 ], [ %464, %459 ]
  call void @llvm.lifetime.end.p0(i64 24, ptr nonnull %13) #23
  call void @llvm.lifetime.start.p0(i64 24, ptr nonnull %13) #23
  call void @llvm.experimental.noalias.scope.decl(metadata !193)
  %472 = load double, ptr %344, align 8, !tbaa !5, !noalias !193
  %473 = fadd double %18, %472
  %474 = load <2 x double>, ptr %1, align 8, !tbaa !5, !noalias !193
  %475 = fadd <2 x double> %353, %474
  store <2 x double> %475, ptr %13, align 16, !tbaa !5, !alias.scope !193
  store double %473, ptr %346, align 16, !tbaa !5, !alias.scope !193
  %476 = icmp eq ptr %471, %470
  br i1 %476, label %484, label %477

477:                                              ; preds = %469
  %478 = extractelement <2 x double> %475, i64 0
  store double %478, ptr %471, align 8, !tbaa !5
  %479 = load double, ptr %345, align 8, !tbaa !5
  %480 = getelementptr inbounds [3 x double], ptr %471, i64 0, i64 1
  store double %479, ptr %480, align 8, !tbaa !5
  %481 = load double, ptr %346, align 16, !tbaa !5
  %482 = getelementptr inbounds [3 x double], ptr %471, i64 0, i64 2
  store double %481, ptr %482, align 8, !tbaa !5
  %483 = getelementptr inbounds %"class.dealii::Point", ptr %471, i64 1
  store ptr %483, ptr %347, align 8, !tbaa !13
  br label %488

484:                                              ; preds = %469
  invoke void @_ZNSt6vectorIN6dealii5PointILi3EEESaIS2_EE17_M_realloc_insertEN9__gnu_cxx17__normal_iteratorIPS2_S4_EERKS2_(ptr noundef nonnull align 8 dereferenceable(24) %9, ptr %470, ptr noundef nonnull align 8 dereferenceable(24) %13)
          to label %485 unwind label %501

485:                                              ; preds = %484
  %486 = load ptr, ptr %347, align 8, !tbaa !38
  %487 = load ptr, ptr %348, align 8, !tbaa !12
  br label %488

488:                                              ; preds = %485, %477
  %489 = phi ptr [ %487, %485 ], [ %470, %477 ]
  %490 = phi ptr [ %486, %485 ], [ %483, %477 ]
  call void @llvm.lifetime.end.p0(i64 24, ptr nonnull %13) #23
  %491 = getelementptr inbounds [3 x double], ptr %14, i64 0, i64 1
  %492 = getelementptr inbounds [3 x double], ptr %14, i64 0, i64 2
  call void @llvm.lifetime.start.p0(i64 24, ptr nonnull %14) #23
  %493 = insertelement <2 x double> poison, double %2, i64 0
  %494 = shufflevector <2 x double> %493, <2 x double> poison, <2 x i32> zeroinitializer
  %495 = fmul <2 x double> %494, zeroinitializer
  call void @llvm.experimental.noalias.scope.decl(metadata !195)
  %496 = load double, ptr %1, align 8, !tbaa !5, !noalias !195
  %497 = fsub double %496, %2
  store double %497, ptr %14, align 16, !tbaa !5, !alias.scope !195
  %498 = load <2 x double>, ptr %343, align 8, !tbaa !5, !noalias !195
  %499 = fadd <2 x double> %495, %498
  store <2 x double> %499, ptr %491, align 8, !tbaa !5, !alias.scope !195
  %500 = icmp eq ptr %490, %489
  br i1 %500, label %509, label %503

501:                                              ; preds = %484, %465, %447, %427, %408, %389, %369, %342
  %502 = landingpad { ptr, i32 }
          cleanup
  call void @llvm.lifetime.end.p0(i64 24, ptr nonnull %13) #23
  br label %968

503:                                              ; preds = %488
  store double %497, ptr %490, align 8, !tbaa !5
  %504 = load double, ptr %491, align 8, !tbaa !5
  %505 = getelementptr inbounds [3 x double], ptr %490, i64 0, i64 1
  store double %504, ptr %505, align 8, !tbaa !5
  %506 = load double, ptr %492, align 16, !tbaa !5
  %507 = getelementptr inbounds [3 x double], ptr %490, i64 0, i64 2
  store double %506, ptr %507, align 8, !tbaa !5
  %508 = getelementptr inbounds %"class.dealii::Point", ptr %490, i64 1
  store ptr %508, ptr %347, align 8, !tbaa !13
  br label %513

509:                                              ; preds = %488
  invoke void @_ZNSt6vectorIN6dealii5PointILi3EEESaIS2_EE17_M_realloc_insertEN9__gnu_cxx17__normal_iteratorIPS2_S4_EERKS2_(ptr noundef nonnull align 8 dereferenceable(24) %9, ptr %489, ptr noundef nonnull align 8 dereferenceable(24) %14)
          to label %510 unwind label %632

510:                                              ; preds = %509
  %511 = load ptr, ptr %347, align 8, !tbaa !38
  %512 = load ptr, ptr %348, align 8, !tbaa !12
  br label %513

513:                                              ; preds = %510, %503
  %514 = phi ptr [ %512, %510 ], [ %489, %503 ]
  %515 = phi ptr [ %511, %510 ], [ %508, %503 ]
  call void @llvm.lifetime.end.p0(i64 24, ptr nonnull %14) #23
  call void @llvm.lifetime.start.p0(i64 24, ptr nonnull %14) #23
  %516 = fmul double %2, 0.000000e+00
  %517 = fmul double %2, 0.000000e+00
  call void @llvm.experimental.noalias.scope.decl(metadata !198)
  %518 = load double, ptr %344, align 8, !tbaa !5, !noalias !198
  %519 = fadd double %517, %518
  %520 = load <2 x double>, ptr %1, align 8, !tbaa !5, !noalias !198
  %521 = insertelement <2 x double> %493, double %516, i64 1
  %522 = fadd <2 x double> %521, %520
  store <2 x double> %522, ptr %14, align 16, !tbaa !5, !alias.scope !198
  store double %519, ptr %492, align 16, !tbaa !5, !alias.scope !198
  %523 = icmp eq ptr %515, %514
  br i1 %523, label %531, label %524

524:                                              ; preds = %513
  %525 = extractelement <2 x double> %522, i64 0
  store double %525, ptr %515, align 8, !tbaa !5
  %526 = load double, ptr %491, align 8, !tbaa !5
  %527 = getelementptr inbounds [3 x double], ptr %515, i64 0, i64 1
  store double %526, ptr %527, align 8, !tbaa !5
  %528 = load double, ptr %492, align 16, !tbaa !5
  %529 = getelementptr inbounds [3 x double], ptr %515, i64 0, i64 2
  store double %528, ptr %529, align 8, !tbaa !5
  %530 = getelementptr inbounds %"class.dealii::Point", ptr %515, i64 1
  store ptr %530, ptr %347, align 8, !tbaa !13
  br label %535

531:                                              ; preds = %513
  invoke void @_ZNSt6vectorIN6dealii5PointILi3EEESaIS2_EE17_M_realloc_insertEN9__gnu_cxx17__normal_iteratorIPS2_S4_EERKS2_(ptr noundef nonnull align 8 dereferenceable(24) %9, ptr %514, ptr noundef nonnull align 8 dereferenceable(24) %14)
          to label %532 unwind label %632

532:                                              ; preds = %531
  %533 = load ptr, ptr %347, align 8, !tbaa !38
  %534 = load ptr, ptr %348, align 8, !tbaa !12
  br label %535

535:                                              ; preds = %532, %524
  %536 = phi ptr [ %534, %532 ], [ %514, %524 ]
  %537 = phi ptr [ %533, %532 ], [ %530, %524 ]
  call void @llvm.lifetime.end.p0(i64 24, ptr nonnull %14) #23
  call void @llvm.lifetime.start.p0(i64 24, ptr nonnull %14) #23
  %538 = fmul double %2, 0.000000e+00
  %539 = fmul double %2, 0.000000e+00
  call void @llvm.experimental.noalias.scope.decl(metadata !200)
  %540 = load double, ptr %1, align 8, !tbaa !5, !noalias !200
  %541 = load double, ptr %343, align 8, !tbaa !5, !noalias !200
  %542 = load double, ptr %344, align 8, !tbaa !5, !noalias !200
  %543 = fadd double %538, %540
  %544 = fsub double %541, %2
  %545 = fadd double %539, %542
  store double %543, ptr %14, align 16, !tbaa !5, !alias.scope !200
  store double %544, ptr %491, align 8, !tbaa !5, !alias.scope !200
  store double %545, ptr %492, align 16, !tbaa !5, !alias.scope !200
  %546 = icmp eq ptr %537, %536
  br i1 %546, label %553, label %547

547:                                              ; preds = %535
  store double %543, ptr %537, align 8, !tbaa !5
  %548 = load double, ptr %491, align 8, !tbaa !5
  %549 = getelementptr inbounds [3 x double], ptr %537, i64 0, i64 1
  store double %548, ptr %549, align 8, !tbaa !5
  %550 = load double, ptr %492, align 16, !tbaa !5
  %551 = getelementptr inbounds [3 x double], ptr %537, i64 0, i64 2
  store double %550, ptr %551, align 8, !tbaa !5
  %552 = getelementptr inbounds %"class.dealii::Point", ptr %537, i64 1
  store ptr %552, ptr %347, align 8, !tbaa !13
  br label %557

553:                                              ; preds = %535
  invoke void @_ZNSt6vectorIN6dealii5PointILi3EEESaIS2_EE17_M_realloc_insertEN9__gnu_cxx17__normal_iteratorIPS2_S4_EERKS2_(ptr noundef nonnull align 8 dereferenceable(24) %9, ptr %536, ptr noundef nonnull align 8 dereferenceable(24) %14)
          to label %554 unwind label %632

554:                                              ; preds = %553
  %555 = load ptr, ptr %347, align 8, !tbaa !38
  %556 = load ptr, ptr %348, align 8, !tbaa !12
  br label %557

557:                                              ; preds = %554, %547
  %558 = phi ptr [ %556, %554 ], [ %536, %547 ]
  %559 = phi ptr [ %555, %554 ], [ %552, %547 ]
  call void @llvm.lifetime.end.p0(i64 24, ptr nonnull %14) #23
  call void @llvm.lifetime.start.p0(i64 24, ptr nonnull %14) #23
  %560 = fmul double %2, 0.000000e+00
  %561 = fmul double %2, 0.000000e+00
  call void @llvm.experimental.noalias.scope.decl(metadata !202)
  %562 = load double, ptr %344, align 8, !tbaa !5, !noalias !202
  %563 = fadd double %561, %562
  %564 = load <2 x double>, ptr %1, align 8, !tbaa !5, !noalias !202
  %565 = insertelement <2 x double> poison, double %560, i64 0
  %566 = insertelement <2 x double> %565, double %2, i64 1
  %567 = fadd <2 x double> %566, %564
  store <2 x double> %567, ptr %14, align 16, !tbaa !5, !alias.scope !202
  store double %563, ptr %492, align 16, !tbaa !5, !alias.scope !202
  %568 = icmp eq ptr %559, %558
  br i1 %568, label %576, label %569

569:                                              ; preds = %557
  %570 = extractelement <2 x double> %567, i64 0
  store double %570, ptr %559, align 8, !tbaa !5
  %571 = load double, ptr %491, align 8, !tbaa !5
  %572 = getelementptr inbounds [3 x double], ptr %559, i64 0, i64 1
  store double %571, ptr %572, align 8, !tbaa !5
  %573 = load double, ptr %492, align 16, !tbaa !5
  %574 = getelementptr inbounds [3 x double], ptr %559, i64 0, i64 2
  store double %573, ptr %574, align 8, !tbaa !5
  %575 = getelementptr inbounds %"class.dealii::Point", ptr %559, i64 1
  store ptr %575, ptr %347, align 8, !tbaa !13
  br label %580

576:                                              ; preds = %557
  invoke void @_ZNSt6vectorIN6dealii5PointILi3EEESaIS2_EE17_M_realloc_insertEN9__gnu_cxx17__normal_iteratorIPS2_S4_EERKS2_(ptr noundef nonnull align 8 dereferenceable(24) %9, ptr %558, ptr noundef nonnull align 8 dereferenceable(24) %14)
          to label %577 unwind label %632

577:                                              ; preds = %576
  %578 = load ptr, ptr %347, align 8, !tbaa !38
  %579 = load ptr, ptr %348, align 8, !tbaa !12
  br label %580

580:                                              ; preds = %577, %569
  %581 = phi ptr [ %579, %577 ], [ %558, %569 ]
  %582 = phi ptr [ %578, %577 ], [ %575, %569 ]
  call void @llvm.lifetime.end.p0(i64 24, ptr nonnull %14) #23
  call void @llvm.lifetime.start.p0(i64 24, ptr nonnull %14) #23
  %583 = fmul <2 x double> %494, zeroinitializer
  call void @llvm.experimental.noalias.scope.decl(metadata !204)
  %584 = load double, ptr %344, align 8, !tbaa !5, !noalias !204
  %585 = fsub double %584, %2
  %586 = load <2 x double>, ptr %1, align 8, !tbaa !5, !noalias !204
  %587 = fadd <2 x double> %583, %586
  store <2 x double> %587, ptr %14, align 16, !tbaa !5, !alias.scope !204
  store double %585, ptr %492, align 16, !tbaa !5, !alias.scope !204
  %588 = icmp eq ptr %582, %581
  br i1 %588, label %596, label %589

589:                                              ; preds = %580
  %590 = extractelement <2 x double> %587, i64 0
  store double %590, ptr %582, align 8, !tbaa !5
  %591 = load double, ptr %491, align 8, !tbaa !5
  %592 = getelementptr inbounds [3 x double], ptr %582, i64 0, i64 1
  store double %591, ptr %592, align 8, !tbaa !5
  %593 = load double, ptr %492, align 16, !tbaa !5
  %594 = getelementptr inbounds [3 x double], ptr %582, i64 0, i64 2
  store double %593, ptr %594, align 8, !tbaa !5
  %595 = getelementptr inbounds %"class.dealii::Point", ptr %582, i64 1
  store ptr %595, ptr %347, align 8, !tbaa !13
  br label %600

596:                                              ; preds = %580
  invoke void @_ZNSt6vectorIN6dealii5PointILi3EEESaIS2_EE17_M_realloc_insertEN9__gnu_cxx17__normal_iteratorIPS2_S4_EERKS2_(ptr noundef nonnull align 8 dereferenceable(24) %9, ptr %581, ptr noundef nonnull align 8 dereferenceable(24) %14)
          to label %597 unwind label %632

597:                                              ; preds = %596
  %598 = load ptr, ptr %347, align 8, !tbaa !38
  %599 = load ptr, ptr %348, align 8, !tbaa !12
  br label %600

600:                                              ; preds = %597, %589
  %601 = phi ptr [ %599, %597 ], [ %581, %589 ]
  %602 = phi ptr [ %598, %597 ], [ %595, %589 ]
  call void @llvm.lifetime.end.p0(i64 24, ptr nonnull %14) #23
  call void @llvm.lifetime.start.p0(i64 24, ptr nonnull %14) #23
  %603 = fmul <2 x double> %494, zeroinitializer
  call void @llvm.experimental.noalias.scope.decl(metadata !206)
  %604 = load double, ptr %344, align 8, !tbaa !5, !noalias !206
  %605 = fadd double %604, %2
  %606 = load <2 x double>, ptr %1, align 8, !tbaa !5, !noalias !206
  %607 = fadd <2 x double> %603, %606
  store <2 x double> %607, ptr %14, align 16, !tbaa !5, !alias.scope !206
  store double %605, ptr %492, align 16, !tbaa !5, !alias.scope !206
  %608 = icmp eq ptr %602, %601
  br i1 %608, label %616, label %609

609:                                              ; preds = %600
  %610 = extractelement <2 x double> %607, i64 0
  store double %610, ptr %602, align 8, !tbaa !5
  %611 = load double, ptr %491, align 8, !tbaa !5
  %612 = getelementptr inbounds [3 x double], ptr %602, i64 0, i64 1
  store double %611, ptr %612, align 8, !tbaa !5
  %613 = load double, ptr %492, align 16, !tbaa !5
  %614 = getelementptr inbounds [3 x double], ptr %602, i64 0, i64 2
  store double %613, ptr %614, align 8, !tbaa !5
  %615 = getelementptr inbounds %"class.dealii::Point", ptr %602, i64 1
  store ptr %615, ptr %347, align 8, !tbaa !13
  br label %620

616:                                              ; preds = %600
  invoke void @_ZNSt6vectorIN6dealii5PointILi3EEESaIS2_EE17_M_realloc_insertEN9__gnu_cxx17__normal_iteratorIPS2_S4_EERKS2_(ptr noundef nonnull align 8 dereferenceable(24) %9, ptr %601, ptr noundef nonnull align 8 dereferenceable(24) %14)
          to label %617 unwind label %632

617:                                              ; preds = %616
  %618 = load ptr, ptr %347, align 8, !tbaa !38
  %619 = load ptr, ptr %348, align 8, !tbaa !12
  br label %620

620:                                              ; preds = %617, %609
  %621 = phi ptr [ %619, %617 ], [ %601, %609 ]
  %622 = phi ptr [ %618, %617 ], [ %615, %609 ]
  call void @llvm.lifetime.end.p0(i64 24, ptr nonnull %14) #23
  %623 = getelementptr inbounds [3 x double], ptr %15, i64 0, i64 1
  %624 = getelementptr inbounds [3 x double], ptr %15, i64 0, i64 2
  call void @llvm.lifetime.start.p0(i64 24, ptr nonnull %15) #23
  call void @llvm.experimental.noalias.scope.decl(metadata !208)
  %625 = load double, ptr %344, align 8, !tbaa !5, !noalias !208
  %626 = fsub double %625, %19
  %627 = load <2 x double>, ptr %1, align 8, !tbaa !5, !noalias !208
  %628 = insertelement <2 x double> poison, double %19, i64 0
  %629 = shufflevector <2 x double> %628, <2 x double> poison, <2 x i32> zeroinitializer
  %630 = fsub <2 x double> %627, %629
  store <2 x double> %630, ptr %15, align 16, !tbaa !5, !alias.scope !208
  store double %626, ptr %624, align 16, !tbaa !5, !alias.scope !208
  %631 = icmp eq ptr %622, %621
  br i1 %631, label %641, label %634

632:                                              ; preds = %616, %596, %576, %553, %531, %509
  %633 = landingpad { ptr, i32 }
          cleanup
  call void @llvm.lifetime.end.p0(i64 24, ptr nonnull %14) #23
  br label %968

634:                                              ; preds = %620
  %635 = extractelement <2 x double> %630, i64 0
  store double %635, ptr %622, align 8, !tbaa !5
  %636 = load double, ptr %623, align 8, !tbaa !5
  %637 = getelementptr inbounds [3 x double], ptr %622, i64 0, i64 1
  store double %636, ptr %637, align 8, !tbaa !5
  %638 = load double, ptr %624, align 16, !tbaa !5
  %639 = getelementptr inbounds [3 x double], ptr %622, i64 0, i64 2
  store double %638, ptr %639, align 8, !tbaa !5
  %640 = getelementptr inbounds %"class.dealii::Point", ptr %622, i64 1
  store ptr %640, ptr %347, align 8, !tbaa !13
  br label %645

641:                                              ; preds = %620
  invoke void @_ZNSt6vectorIN6dealii5PointILi3EEESaIS2_EE17_M_realloc_insertEN9__gnu_cxx17__normal_iteratorIPS2_S4_EERKS2_(ptr noundef nonnull align 8 dereferenceable(24) %9, ptr %621, ptr noundef nonnull align 8 dereferenceable(24) %15)
          to label %642 unwind label %791

642:                                              ; preds = %641
  %643 = load ptr, ptr %347, align 8, !tbaa !38
  %644 = load ptr, ptr %348, align 8, !tbaa !12
  br label %645

645:                                              ; preds = %642, %634
  %646 = phi ptr [ %644, %642 ], [ %621, %634 ]
  %647 = phi ptr [ %643, %642 ], [ %640, %634 ]
  call void @llvm.lifetime.end.p0(i64 24, ptr nonnull %15) #23
  call void @llvm.lifetime.start.p0(i64 24, ptr nonnull %15) #23
  call void @llvm.experimental.noalias.scope.decl(metadata !211)
  %648 = load double, ptr %1, align 8, !tbaa !5, !noalias !211
  %649 = fadd double %19, %648
  store double %649, ptr %15, align 16, !tbaa !5, !alias.scope !211
  %650 = load <2 x double>, ptr %343, align 8, !tbaa !5, !noalias !211
  %651 = fsub <2 x double> %650, %629
  store <2 x double> %651, ptr %623, align 8, !tbaa !5, !alias.scope !211
  %652 = icmp eq ptr %647, %646
  br i1 %652, label %659, label %653

653:                                              ; preds = %645
  store double %649, ptr %647, align 8, !tbaa !5
  %654 = load double, ptr %623, align 8, !tbaa !5
  %655 = getelementptr inbounds [3 x double], ptr %647, i64 0, i64 1
  store double %654, ptr %655, align 8, !tbaa !5
  %656 = load double, ptr %624, align 16, !tbaa !5
  %657 = getelementptr inbounds [3 x double], ptr %647, i64 0, i64 2
  store double %656, ptr %657, align 8, !tbaa !5
  %658 = getelementptr inbounds %"class.dealii::Point", ptr %647, i64 1
  store ptr %658, ptr %347, align 8, !tbaa !13
  br label %663

659:                                              ; preds = %645
  invoke void @_ZNSt6vectorIN6dealii5PointILi3EEESaIS2_EE17_M_realloc_insertEN9__gnu_cxx17__normal_iteratorIPS2_S4_EERKS2_(ptr noundef nonnull align 8 dereferenceable(24) %9, ptr %646, ptr noundef nonnull align 8 dereferenceable(24) %15)
          to label %660 unwind label %791

660:                                              ; preds = %659
  %661 = load ptr, ptr %347, align 8, !tbaa !38
  %662 = load ptr, ptr %348, align 8, !tbaa !12
  br label %663

663:                                              ; preds = %660, %653
  %664 = phi ptr [ %662, %660 ], [ %646, %653 ]
  %665 = phi ptr [ %661, %660 ], [ %658, %653 ]
  call void @llvm.lifetime.end.p0(i64 24, ptr nonnull %15) #23
  call void @llvm.lifetime.start.p0(i64 24, ptr nonnull %15) #23
  call void @llvm.experimental.noalias.scope.decl(metadata !213)
  %666 = load double, ptr %1, align 8, !tbaa !5, !noalias !213
  %667 = load double, ptr %343, align 8, !tbaa !5, !noalias !213
  %668 = load double, ptr %344, align 8, !tbaa !5, !noalias !213
  %669 = fsub double %666, %19
  %670 = fadd double %19, %667
  %671 = fsub double %668, %19
  store double %669, ptr %15, align 16, !tbaa !5, !alias.scope !213
  store double %670, ptr %623, align 8, !tbaa !5, !alias.scope !213
  store double %671, ptr %624, align 16, !tbaa !5, !alias.scope !213
  %672 = icmp eq ptr %665, %664
  br i1 %672, label %679, label %673

673:                                              ; preds = %663
  store double %669, ptr %665, align 8, !tbaa !5
  %674 = load double, ptr %623, align 8, !tbaa !5
  %675 = getelementptr inbounds [3 x double], ptr %665, i64 0, i64 1
  store double %674, ptr %675, align 8, !tbaa !5
  %676 = load double, ptr %624, align 16, !tbaa !5
  %677 = getelementptr inbounds [3 x double], ptr %665, i64 0, i64 2
  store double %676, ptr %677, align 8, !tbaa !5
  %678 = getelementptr inbounds %"class.dealii::Point", ptr %665, i64 1
  store ptr %678, ptr %347, align 8, !tbaa !13
  br label %683

679:                                              ; preds = %663
  invoke void @_ZNSt6vectorIN6dealii5PointILi3EEESaIS2_EE17_M_realloc_insertEN9__gnu_cxx17__normal_iteratorIPS2_S4_EERKS2_(ptr noundef nonnull align 8 dereferenceable(24) %9, ptr %664, ptr noundef nonnull align 8 dereferenceable(24) %15)
          to label %680 unwind label %791

680:                                              ; preds = %679
  %681 = load ptr, ptr %347, align 8, !tbaa !38
  %682 = load ptr, ptr %348, align 8, !tbaa !12
  br label %683

683:                                              ; preds = %680, %673
  %684 = phi ptr [ %682, %680 ], [ %664, %673 ]
  %685 = phi ptr [ %681, %680 ], [ %678, %673 ]
  call void @llvm.lifetime.end.p0(i64 24, ptr nonnull %15) #23
  call void @llvm.lifetime.start.p0(i64 24, ptr nonnull %15) #23
  call void @llvm.experimental.noalias.scope.decl(metadata !215)
  %686 = load double, ptr %344, align 8, !tbaa !5, !noalias !215
  %687 = fsub double %686, %19
  %688 = load <2 x double>, ptr %1, align 8, !tbaa !5, !noalias !215
  %689 = fadd <2 x double> %629, %688
  store <2 x double> %689, ptr %15, align 16, !tbaa !5, !alias.scope !215
  store double %687, ptr %624, align 16, !tbaa !5, !alias.scope !215
  %690 = icmp eq ptr %685, %684
  br i1 %690, label %698, label %691

691:                                              ; preds = %683
  %692 = extractelement <2 x double> %689, i64 0
  store double %692, ptr %685, align 8, !tbaa !5
  %693 = load double, ptr %623, align 8, !tbaa !5
  %694 = getelementptr inbounds [3 x double], ptr %685, i64 0, i64 1
  store double %693, ptr %694, align 8, !tbaa !5
  %695 = load double, ptr %624, align 16, !tbaa !5
  %696 = getelementptr inbounds [3 x double], ptr %685, i64 0, i64 2
  store double %695, ptr %696, align 8, !tbaa !5
  %697 = getelementptr inbounds %"class.dealii::Point", ptr %685, i64 1
  store ptr %697, ptr %347, align 8, !tbaa !13
  br label %702

698:                                              ; preds = %683
  invoke void @_ZNSt6vectorIN6dealii5PointILi3EEESaIS2_EE17_M_realloc_insertEN9__gnu_cxx17__normal_iteratorIPS2_S4_EERKS2_(ptr noundef nonnull align 8 dereferenceable(24) %9, ptr %684, ptr noundef nonnull align 8 dereferenceable(24) %15)
          to label %699 unwind label %791

699:                                              ; preds = %698
  %700 = load ptr, ptr %347, align 8, !tbaa !38
  %701 = load ptr, ptr %348, align 8, !tbaa !12
  br label %702

702:                                              ; preds = %699, %691
  %703 = phi ptr [ %701, %699 ], [ %684, %691 ]
  %704 = phi ptr [ %700, %699 ], [ %697, %691 ]
  call void @llvm.lifetime.end.p0(i64 24, ptr nonnull %15) #23
  call void @llvm.lifetime.start.p0(i64 24, ptr nonnull %15) #23
  call void @llvm.experimental.noalias.scope.decl(metadata !217)
  %705 = load double, ptr %344, align 8, !tbaa !5, !noalias !217
  %706 = fadd double %19, %705
  %707 = load <2 x double>, ptr %1, align 8, !tbaa !5, !noalias !217
  %708 = fsub <2 x double> %707, %629
  store <2 x double> %708, ptr %15, align 16, !tbaa !5, !alias.scope !217
  store double %706, ptr %624, align 16, !tbaa !5, !alias.scope !217
  %709 = icmp eq ptr %704, %703
  br i1 %709, label %717, label %710

710:                                              ; preds = %702
  %711 = extractelement <2 x double> %708, i64 0
  store double %711, ptr %704, align 8, !tbaa !5
  %712 = load double, ptr %623, align 8, !tbaa !5
  %713 = getelementptr inbounds [3 x double], ptr %704, i64 0, i64 1
  store double %712, ptr %713, align 8, !tbaa !5
  %714 = load double, ptr %624, align 16, !tbaa !5
  %715 = getelementptr inbounds [3 x double], ptr %704, i64 0, i64 2
  store double %714, ptr %715, align 8, !tbaa !5
  %716 = getelementptr inbounds %"class.dealii::Point", ptr %704, i64 1
  store ptr %716, ptr %347, align 8, !tbaa !13
  br label %721

717:                                              ; preds = %702
  invoke void @_ZNSt6vectorIN6dealii5PointILi3EEESaIS2_EE17_M_realloc_insertEN9__gnu_cxx17__normal_iteratorIPS2_S4_EERKS2_(ptr noundef nonnull align 8 dereferenceable(24) %9, ptr %703, ptr noundef nonnull align 8 dereferenceable(24) %15)
          to label %718 unwind label %791

718:                                              ; preds = %717
  %719 = load ptr, ptr %347, align 8, !tbaa !38
  %720 = load ptr, ptr %348, align 8, !tbaa !12
  br label %721

721:                                              ; preds = %718, %710
  %722 = phi ptr [ %720, %718 ], [ %703, %710 ]
  %723 = phi ptr [ %719, %718 ], [ %716, %710 ]
  call void @llvm.lifetime.end.p0(i64 24, ptr nonnull %15) #23
  call void @llvm.lifetime.start.p0(i64 24, ptr nonnull %15) #23
  call void @llvm.experimental.noalias.scope.decl(metadata !219)
  %724 = load double, ptr %1, align 8, !tbaa !5, !noalias !219
  %725 = load double, ptr %343, align 8, !tbaa !5, !noalias !219
  %726 = load double, ptr %344, align 8, !tbaa !5, !noalias !219
  %727 = fadd double %19, %724
  %728 = fsub double %725, %19
  %729 = fadd double %19, %726
  store double %727, ptr %15, align 16, !tbaa !5, !alias.scope !219
  store double %728, ptr %623, align 8, !tbaa !5, !alias.scope !219
  store double %729, ptr %624, align 16, !tbaa !5, !alias.scope !219
  %730 = icmp eq ptr %723, %722
  br i1 %730, label %737, label %731

731:                                              ; preds = %721
  store double %727, ptr %723, align 8, !tbaa !5
  %732 = load double, ptr %623, align 8, !tbaa !5
  %733 = getelementptr inbounds [3 x double], ptr %723, i64 0, i64 1
  store double %732, ptr %733, align 8, !tbaa !5
  %734 = load double, ptr %624, align 16, !tbaa !5
  %735 = getelementptr inbounds [3 x double], ptr %723, i64 0, i64 2
  store double %734, ptr %735, align 8, !tbaa !5
  %736 = getelementptr inbounds %"class.dealii::Point", ptr %723, i64 1
  store ptr %736, ptr %347, align 8, !tbaa !13
  br label %741

737:                                              ; preds = %721
  invoke void @_ZNSt6vectorIN6dealii5PointILi3EEESaIS2_EE17_M_realloc_insertEN9__gnu_cxx17__normal_iteratorIPS2_S4_EERKS2_(ptr noundef nonnull align 8 dereferenceable(24) %9, ptr %722, ptr noundef nonnull align 8 dereferenceable(24) %15)
          to label %738 unwind label %791

738:                                              ; preds = %737
  %739 = load ptr, ptr %347, align 8, !tbaa !38
  %740 = load ptr, ptr %348, align 8, !tbaa !12
  br label %741

741:                                              ; preds = %738, %731
  %742 = phi ptr [ %740, %738 ], [ %722, %731 ]
  %743 = phi ptr [ %739, %738 ], [ %736, %731 ]
  call void @llvm.lifetime.end.p0(i64 24, ptr nonnull %15) #23
  call void @llvm.lifetime.start.p0(i64 24, ptr nonnull %15) #23
  call void @llvm.experimental.noalias.scope.decl(metadata !221)
  %744 = load double, ptr %1, align 8, !tbaa !5, !noalias !221
  %745 = fsub double %744, %19
  store double %745, ptr %15, align 16, !tbaa !5, !alias.scope !221
  %746 = load <2 x double>, ptr %343, align 8, !tbaa !5, !noalias !221
  %747 = fadd <2 x double> %629, %746
  store <2 x double> %747, ptr %623, align 8, !tbaa !5, !alias.scope !221
  %748 = icmp eq ptr %743, %742
  br i1 %748, label %755, label %749

749:                                              ; preds = %741
  store double %745, ptr %743, align 8, !tbaa !5
  %750 = load double, ptr %623, align 8, !tbaa !5
  %751 = getelementptr inbounds [3 x double], ptr %743, i64 0, i64 1
  store double %750, ptr %751, align 8, !tbaa !5
  %752 = load double, ptr %624, align 16, !tbaa !5
  %753 = getelementptr inbounds [3 x double], ptr %743, i64 0, i64 2
  store double %752, ptr %753, align 8, !tbaa !5
  %754 = getelementptr inbounds %"class.dealii::Point", ptr %743, i64 1
  store ptr %754, ptr %347, align 8, !tbaa !13
  br label %759

755:                                              ; preds = %741
  invoke void @_ZNSt6vectorIN6dealii5PointILi3EEESaIS2_EE17_M_realloc_insertEN9__gnu_cxx17__normal_iteratorIPS2_S4_EERKS2_(ptr noundef nonnull align 8 dereferenceable(24) %9, ptr %742, ptr noundef nonnull align 8 dereferenceable(24) %15)
          to label %756 unwind label %791

756:                                              ; preds = %755
  %757 = load ptr, ptr %347, align 8, !tbaa !38
  %758 = load ptr, ptr %348, align 8, !tbaa !12
  br label %759

759:                                              ; preds = %756, %749
  %760 = phi ptr [ %758, %756 ], [ %742, %749 ]
  %761 = phi ptr [ %757, %756 ], [ %754, %749 ]
  call void @llvm.lifetime.end.p0(i64 24, ptr nonnull %15) #23
  call void @llvm.lifetime.start.p0(i64 24, ptr nonnull %15) #23
  call void @llvm.experimental.noalias.scope.decl(metadata !223)
  %762 = load double, ptr %344, align 8, !tbaa !5, !noalias !223
  %763 = fadd double %19, %762
  %764 = load <2 x double>, ptr %1, align 8, !tbaa !5, !noalias !223
  %765 = fadd <2 x double> %629, %764
  store <2 x double> %765, ptr %15, align 16, !tbaa !5, !alias.scope !223
  store double %763, ptr %624, align 16, !tbaa !5, !alias.scope !223
  %766 = icmp eq ptr %761, %760
  br i1 %766, label %774, label %767

767:                                              ; preds = %759
  %768 = extractelement <2 x double> %765, i64 0
  store double %768, ptr %761, align 8, !tbaa !5
  %769 = load double, ptr %623, align 8, !tbaa !5
  %770 = getelementptr inbounds [3 x double], ptr %761, i64 0, i64 1
  store double %769, ptr %770, align 8, !tbaa !5
  %771 = load double, ptr %624, align 16, !tbaa !5
  %772 = getelementptr inbounds [3 x double], ptr %761, i64 0, i64 2
  store double %771, ptr %772, align 8, !tbaa !5
  %773 = getelementptr inbounds %"class.dealii::Point", ptr %761, i64 1
  store ptr %773, ptr %347, align 8, !tbaa !13
  br label %778

774:                                              ; preds = %759
  invoke void @_ZNSt6vectorIN6dealii5PointILi3EEESaIS2_EE17_M_realloc_insertEN9__gnu_cxx17__normal_iteratorIPS2_S4_EERKS2_(ptr noundef nonnull align 8 dereferenceable(24) %9, ptr %760, ptr noundef nonnull align 8 dereferenceable(24) %15)
          to label %775 unwind label %791

775:                                              ; preds = %774
  %776 = load ptr, ptr %347, align 8, !tbaa !38
  %777 = load ptr, ptr %348, align 8, !tbaa !12
  br label %778

778:                                              ; preds = %775, %767
  %779 = phi ptr [ %777, %775 ], [ %760, %767 ]
  %780 = phi ptr [ %776, %775 ], [ %773, %767 ]
  call void @llvm.lifetime.end.p0(i64 24, ptr nonnull %15) #23
  %781 = getelementptr inbounds [3 x double], ptr %16, i64 0, i64 1
  %782 = getelementptr inbounds [3 x double], ptr %16, i64 0, i64 2
  call void @llvm.lifetime.start.p0(i64 24, ptr nonnull %16) #23
  %783 = insertelement <2 x double> poison, double %3, i64 0
  %784 = shufflevector <2 x double> %783, <2 x double> poison, <2 x i32> zeroinitializer
  %785 = fmul <2 x double> %784, zeroinitializer
  call void @llvm.experimental.noalias.scope.decl(metadata !225)
  %786 = load double, ptr %1, align 8, !tbaa !5, !noalias !225
  %787 = fsub double %786, %3
  store double %787, ptr %16, align 16, !tbaa !5, !alias.scope !225
  %788 = load <2 x double>, ptr %343, align 8, !tbaa !5, !noalias !225
  %789 = fadd <2 x double> %785, %788
  store <2 x double> %789, ptr %781, align 8, !tbaa !5, !alias.scope !225
  %790 = icmp eq ptr %780, %779
  br i1 %790, label %802, label %796

791:                                              ; preds = %774, %755, %737, %717, %698, %679, %659, %641
  %792 = landingpad { ptr, i32 }
          cleanup
  call void @llvm.lifetime.end.p0(i64 24, ptr nonnull %15) #23
  br label %968

793:                                              ; preds = %902, %909
  call void @llvm.lifetime.end.p0(i64 24, ptr nonnull %16) #23
  call void @llvm.lifetime.start.p0(i64 36, ptr nonnull %7)
  call void @llvm.memset.p0.i64(ptr noundef nonnull align 8 dereferenceable(36) %7, i8 0, i64 36, i1 false)
  invoke void @_ZNSt6vectorIN6dealii8CellDataILi3EEESaIS2_EE14_M_fill_insertEN9__gnu_cxx17__normal_iteratorIPS2_S4_EEmRKS2_(ptr noundef nonnull align 8 dereferenceable(24) %10, ptr null, i64 noundef 12, ptr noundef nonnull align 4 dereferenceable(36) %7)
          to label %794 unwind label %937

794:                                              ; preds = %793
  %795 = load ptr, ptr %10, align 8, !tbaa !14
  call void @llvm.lifetime.end.p0(i64 36, ptr nonnull %7)
  br label %912

796:                                              ; preds = %778
  store double %787, ptr %780, align 8, !tbaa !5
  %797 = load double, ptr %781, align 8, !tbaa !5
  %798 = getelementptr inbounds [3 x double], ptr %780, i64 0, i64 1
  store double %797, ptr %798, align 8, !tbaa !5
  %799 = load double, ptr %782, align 16, !tbaa !5
  %800 = getelementptr inbounds [3 x double], ptr %780, i64 0, i64 2
  store double %799, ptr %800, align 8, !tbaa !5
  %801 = getelementptr inbounds %"class.dealii::Point", ptr %780, i64 1
  store ptr %801, ptr %347, align 8, !tbaa !13
  br label %806

802:                                              ; preds = %778
  invoke void @_ZNSt6vectorIN6dealii5PointILi3EEESaIS2_EE17_M_realloc_insertEN9__gnu_cxx17__normal_iteratorIPS2_S4_EERKS2_(ptr noundef nonnull align 8 dereferenceable(24) %9, ptr %779, ptr noundef nonnull align 8 dereferenceable(24) %16)
          to label %803 unwind label %910

803:                                              ; preds = %802
  %804 = load ptr, ptr %347, align 8, !tbaa !38
  %805 = load ptr, ptr %348, align 8, !tbaa !12
  br label %806

806:                                              ; preds = %803, %796
  %807 = phi ptr [ %805, %803 ], [ %779, %796 ]
  %808 = phi ptr [ %804, %803 ], [ %801, %796 ]
  call void @llvm.lifetime.end.p0(i64 24, ptr nonnull %16) #23
  call void @llvm.lifetime.start.p0(i64 24, ptr nonnull %16) #23
  %809 = fmul double %3, 0.000000e+00
  %810 = fmul double %3, 0.000000e+00
  call void @llvm.experimental.noalias.scope.decl(metadata !228)
  %811 = load double, ptr %344, align 8, !tbaa !5, !noalias !228
  %812 = fadd double %810, %811
  %813 = load <2 x double>, ptr %1, align 8, !tbaa !5, !noalias !228
  %814 = insertelement <2 x double> %783, double %809, i64 1
  %815 = fadd <2 x double> %814, %813
